
========================================================================

** ELF Header Information

    File Name: D:\cccc2022\CODE\airflow_meter\embeded\airflow_meter_b_board_app\MDK\output\flashcode\flashcode.axf

    Machine class: ELFCLASS32 (32-bit)
    Data encoding: ELFDATA2LSB (Little endian)
    Header version: EV_CURRENT (Current version)
    Operating System ABI: none
    ABI Version: 0
    File Type: ET_EXEC (Executable) (2)
    Machine: EM_ARM (ARM)

    Image Entry point: 0x08000199
    Flags: EF_ARM_HASENTRY + EF_ARM_ABI_FLOAT_HARD (0x05000402)

    ARM ELF revision: 5 (ABI version 2)

    Conforms to Hard float procedure-call standard

    Built with
    Component: ARM Compiler 6.16 Tool: armasm [5dfea300]
    Component: ARM Compiler 6.16 Tool: armlink [5dfeaa00]

    Header size: 52 bytes (0x34)
    Program header entry size: 32 bytes (0x20)
    Section header entry size: 40 bytes (0x28)

    Program header entries: 1
    Section header entries: 15

    Program header offset: 418000 (0x000660d0)
    Section header offset: 418032 (0x000660f0)

    Section header string table index: 14

========================================================================

** Program header #0 (PT_LOAD) [PF_X + PF_W + PF_R + PF_ARM_ENTRY]
    Size : 58264 bytes (34960 bytes in file)
    Virtual address: 0x08000000 (Alignment 8)


========================================================================

** Section #1 'ER_IROM1' (SHT_PROGBITS) [SHF_ALLOC + SHF_EXECINSTR]
    Size   : 34892 bytes (alignment 8)
    Address: 0x08000000

    $d.realdata
    RESET
    __Vectors
    __dso_handle
        0x08000000:    20005b48    H[.     DCD    536894280
        0x08000004:    08000329    )...    DCD    134218537
        0x08000008:    08002855    U(..    DCD    134228053
        0x0800000c:    080071cd    .q..    DCD    134246861
        0x08000010:    08002851    Q(..    DCD    134228049
        0x08000014:    080023d5    .#..    DCD    134226901
        0x08000018:    080037cd    .7..    DCD    134232013
        0x0800001c:    00000000    ....    DCD    0
        0x08000020:    00000000    ....    DCD    0
        0x08000024:    00000000    ....    DCD    0
        0x08000028:    00000000    ....    DCD    0
        0x0800002c:    0800329d    .2..    DCD    134230685
        0x08000030:    080023d9    .#..    DCD    134226905
        0x08000034:    00000000    ....    DCD    0
        0x08000038:    0800033f    ?...    DCD    134218559
        0x0800003c:    08003361    a3..    DCD    134230881
        0x08000040:    08000343    C...    DCD    134218563
        0x08000044:    08000343    C...    DCD    134218563
        0x08000048:    08000343    C...    DCD    134218563
        0x0800004c:    08000343    C...    DCD    134218563
        0x08000050:    08000343    C...    DCD    134218563
        0x08000054:    08000343    C...    DCD    134218563
        0x08000058:    08000343    C...    DCD    134218563
        0x0800005c:    08000343    C...    DCD    134218563
        0x08000060:    08000343    C...    DCD    134218563
        0x08000064:    08000343    C...    DCD    134218563
        0x08000068:    08000343    C...    DCD    134218563
        0x0800006c:    08000343    C...    DCD    134218563
        0x08000070:    08000343    C...    DCD    134218563
        0x08000074:    08000343    C...    DCD    134218563
        0x08000078:    08000343    C...    DCD    134218563
        0x0800007c:    08000343    C...    DCD    134218563
        0x08000080:    08000343    C...    DCD    134218563
        0x08000084:    08000343    C...    DCD    134218563
        0x08000088:    08000343    C...    DCD    134218563
        0x0800008c:    08000343    C...    DCD    134218563
        0x08000090:    08000343    C...    DCD    134218563
        0x08000094:    08000343    C...    DCD    134218563
        0x08000098:    08000343    C...    DCD    134218563
        0x0800009c:    080023dd    .#..    DCD    134226909
        0x080000a0:    08000343    C...    DCD    134218563
        0x080000a4:    08000343    C...    DCD    134218563
        0x080000a8:    08000343    C...    DCD    134218563
        0x080000ac:    0800344d    M4..    DCD    134231117
        0x080000b0:    08000343    C...    DCD    134218563
        0x080000b4:    08000343    C...    DCD    134218563
        0x080000b8:    08000343    C...    DCD    134218563
        0x080000bc:    08000343    C...    DCD    134218563
        0x080000c0:    08000343    C...    DCD    134218563
        0x080000c4:    08000343    C...    DCD    134218563
        0x080000c8:    08000343    C...    DCD    134218563
        0x080000cc:    08000343    C...    DCD    134218563
        0x080000d0:    080030bd    .0..    DCD    134230205
        0x080000d4:    08000343    C...    DCD    134218563
        0x080000d8:    08000343    C...    DCD    134218563
        0x080000dc:    08003451    Q4..    DCD    134231121
        0x080000e0:    08000343    C...    DCD    134218563
        0x080000e4:    08000343    C...    DCD    134218563
        0x080000e8:    08000343    C...    DCD    134218563
        0x080000ec:    08000343    C...    DCD    134218563
        0x080000f0:    08000343    C...    DCD    134218563
        0x080000f4:    08000343    C...    DCD    134218563
        0x080000f8:    08000343    C...    DCD    134218563
        0x080000fc:    08000343    C...    DCD    134218563
        0x08000100:    08000343    C...    DCD    134218563
        0x08000104:    08000343    C...    DCD    134218563
        0x08000108:    08000343    C...    DCD    134218563
        0x0800010c:    08000343    C...    DCD    134218563
        0x08000110:    08000343    C...    DCD    134218563
        0x08000114:    08000343    C...    DCD    134218563
        0x08000118:    08000343    C...    DCD    134218563
        0x0800011c:    08000343    C...    DCD    134218563
        0x08000120:    08000343    C...    DCD    134218563
        0x08000124:    08000343    C...    DCD    134218563
        0x08000128:    08000343    C...    DCD    134218563
        0x0800012c:    08000343    C...    DCD    134218563
        0x08000130:    08000343    C...    DCD    134218563
        0x08000134:    08000343    C...    DCD    134218563
        0x08000138:    08000343    C...    DCD    134218563
        0x0800013c:    08000343    C...    DCD    134218563
        0x08000140:    08000343    C...    DCD    134218563
        0x08000144:    08000343    C...    DCD    134218563
        0x08000148:    08000343    C...    DCD    134218563
        0x0800014c:    08000343    C...    DCD    134218563
        0x08000150:    08000343    C...    DCD    134218563
        0x08000154:    08000343    C...    DCD    134218563
        0x08000158:    08000343    C...    DCD    134218563
        0x0800015c:    08000343    C...    DCD    134218563
        0x08000160:    08000343    C...    DCD    134218563
        0x08000164:    08000343    C...    DCD    134218563
        0x08000168:    08000343    C...    DCD    134218563
        0x0800016c:    08000343    C...    DCD    134218563
        0x08000170:    08000343    C...    DCD    134218563
        0x08000174:    08000343    C...    DCD    134218563
        0x08000178:    08000343    C...    DCD    134218563
        0x0800017c:    08000343    C...    DCD    134218563
        0x08000180:    08000343    C...    DCD    134218563
        0x08000184:    08000343    C...    DCD    134218563
        0x08000188:    08000343    C...    DCD    134218563
        0x0800018c:    08000343    C...    DCD    134218563
        0x08000190:    08000343    C...    DCD    134218563
        0x08000194:    08000343    C...    DCD    134218563
    $t
    !!!main
    __Vectors_End
    __main
        0x08000198:    f000f802    ....    BL       __scatterload ; 0x80001a0
        0x0800019c:    f000f8b4    ....    BL       __rt_entry ; 0x8000308
    !!!scatter
    __scatterload
    __scatterload_rt2
    __scatterload_rt2_thumb_only
        0x080001a0:    a00a        ..      ADR      r0,{pc}+0x2c ; 0x80001cc
        0x080001a2:    e8900c00    ....    LDM      r0,{r10,r11}
        0x080001a6:    4482        .D      ADD      r10,r10,r0
        0x080001a8:    4483        .D      ADD      r11,r11,r0
        0x080001aa:    f1aa0701    ....    SUB      r7,r10,#1
    __scatterload_null
        0x080001ae:    45da        .E      CMP      r10,r11
        0x080001b0:    d101        ..      BNE      0x80001b6 ; __scatterload_null + 8
        0x080001b2:    f000f8a9    ....    BL       __rt_entry ; 0x8000308
        0x080001b6:    f2af0e09    ....    ADR      lr,{pc}-7 ; 0x80001af
        0x080001ba:    e8ba000f    ....    LDM      r10!,{r0-r3}
        0x080001be:    f0130f01    ....    TST      r3,#1
        0x080001c2:    bf18        ..      IT       NE
        0x080001c4:    1afb        ..      SUBNE    r3,r7,r3
        0x080001c6:    f0430301    C...    ORR      r3,r3,#1
        0x080001ca:    4718        .G      BX       r3
    $d
        0x080001cc:    000083b0    ....    DCD    33712
        0x080001d0:    000083d0    ....    DCD    33744
    $t
    !!dczerorl
    __decompress
    __decompress0
        0x080001d4:    440a        .D      ADD      r2,r2,r1
        0x080001d6:    f8104b01    ...K    LDRB     r4,[r0],#1
        0x080001da:    f014050f    ....    ANDS     r5,r4,#0xf
        0x080001de:    bf08        ..      IT       EQ
        0x080001e0:    f8105b01    ...[    LDRBEQ   r5,[r0],#1
        0x080001e4:    0924        $.      LSRS     r4,r4,#4
        0x080001e6:    bf08        ..      IT       EQ
        0x080001e8:    f8104b01    ...K    LDRBEQ   r4,[r0],#1
        0x080001ec:    1e6d        m.      SUBS     r5,r5,#1
        0x080001ee:    d005        ..      BEQ      0x80001fc ; __decompress + 40
        0x080001f0:    f8103b01    ...;    LDRB     r3,[r0],#1
        0x080001f4:    1e6d        m.      SUBS     r5,r5,#1
        0x080001f6:    f8013b01    ...;    STRB     r3,[r1],#1
        0x080001fa:    d1f9        ..      BNE      0x80001f0 ; __decompress + 28
        0x080001fc:    1e64        d.      SUBS     r4,r4,#1
        0x080001fe:    d003        ..      BEQ      0x8000208 ; __decompress + 52
        0x08000200:    1e64        d.      SUBS     r4,r4,#1
        0x08000202:    f8015b01    ...[    STRB     r5,[r1],#1
        0x08000206:    d1fb        ..      BNE      0x8000200 ; __decompress + 44
        0x08000208:    4291        .B      CMP      r1,r2
        0x0800020a:    d3e4        ..      BCC      0x80001d6 ; __decompress + 2
        0x0800020c:    4770        pG      BX       lr
        0x0800020e:    0000        ..      MOVS     r0,r0
    !!handler_zi
    __scatterload_zeroinit
        0x08000210:    2300        .#      MOVS     r3,#0
        0x08000212:    2400        .$      MOVS     r4,#0
        0x08000214:    2500        .%      MOVS     r5,#0
        0x08000216:    2600        .&      MOVS     r6,#0
        0x08000218:    3a10        .:      SUBS     r2,r2,#0x10
        0x0800021a:    bf28        (.      IT       CS
        0x0800021c:    c178        x.      STMCS    r1!,{r3-r6}
        0x0800021e:    d8fb        ..      BHI      0x8000218 ; __scatterload_zeroinit + 8
        0x08000220:    0752        R.      LSLS     r2,r2,#29
        0x08000222:    bf28        (.      IT       CS
        0x08000224:    c130        0.      STMCS    r1!,{r4,r5}
        0x08000226:    bf48        H.      IT       MI
        0x08000228:    600b        .`      STRMI    r3,[r1,#0]
        0x0800022a:    4770        pG      BX       lr
    .ARM.Collect$$_printf_percent$$00000001
    .ARM.Collect$$_printf_percent$$00000000
    _printf_n
    _printf_percent
        0x0800022c:    296e        n)      CMP      r1,#0x6e
        0x0800022e:    f000846f    ..o.    BEQ.W    _printf_charcount ; 0x8000b10
    .ARM.Collect$$_printf_percent$$00000002
    _printf_p
        0x08000232:    2970        p)      CMP      r1,#0x70
        0x08000234:    f00085a5    ....    BEQ.W    _printf_hex_ptr ; 0x8000d82
    .ARM.Collect$$_printf_percent$$00000003
    _printf_f
        0x08000238:    2966        f)      CMP      r1,#0x66
        0x0800023a:    f00785de    ....    BEQ.W    _printf_fp_dec ; 0x8007dfa
    .ARM.Collect$$_printf_percent$$00000004
    _printf_e
        0x0800023e:    2965        e)      CMP      r1,#0x65
        0x08000240:    f00785db    ....    BEQ.W    _printf_fp_dec ; 0x8007dfa
    .ARM.Collect$$_printf_percent$$00000005
    _printf_g
        0x08000244:    2967        g)      CMP      r1,#0x67
        0x08000246:    f00785d8    ....    BEQ.W    _printf_fp_dec ; 0x8007dfa
    .ARM.Collect$$_printf_percent$$00000006
    _printf_a
        0x0800024a:    2961        a)      CMP      r1,#0x61
        0x0800024c:    f00785d7    ....    BEQ.W    _printf_fp_hex ; 0x8007dfe
    .ARM.Collect$$_printf_percent$$00000007
    _printf_ll
        0x08000250:    6803        .h      LDR      r3,[r0,#0]
        0x08000252:    0a1b        ..      LSRS     r3,r3,#8
        0x08000254:    bf28        (.      IT       CS
        0x08000256:    f0410180    A...    ORRCS    r1,r1,#0x80
    .ARM.Collect$$_printf_percent$$00000008
    _printf_i
        0x0800025a:    2969        i)      CMP      r1,#0x69
        0x0800025c:    f000841c    ....    BEQ.W    _printf_int_dec ; 0x8000a98
    .ARM.Collect$$_printf_percent$$00000009
    _printf_d
        0x08000260:    2964        d)      CMP      r1,#0x64
        0x08000262:    f0008419    ....    BEQ.W    _printf_int_dec ; 0x8000a98
    .ARM.Collect$$_printf_percent$$0000000A
    _printf_u
        0x08000266:    2975        u)      CMP      r1,#0x75
        0x08000268:    f0008416    ....    BEQ.W    _printf_int_dec ; 0x8000a98
    .ARM.Collect$$_printf_percent$$0000000B
    _printf_o
        0x0800026c:    296f        o)      CMP      r1,#0x6f
        0x0800026e:    f0008533    ..3.    BEQ.W    _printf_int_oct ; 0x8000cd8
    .ARM.Collect$$_printf_percent$$0000000C
    _printf_x
        0x08000272:    2978        x)      CMP      r1,#0x78
        0x08000274:    f0008571    ..q.    BEQ.W    _printf_int_hex ; 0x8000d5a
    .ARM.Collect$$_printf_percent$$0000000D
    _printf_lli
        0x08000278:    29e9        .)      CMP      r1,#0xe9
        0x0800027a:    f00084cd    ....    BEQ.W    _printf_longlong_dec ; 0x8000c18
    .ARM.Collect$$_printf_percent$$0000000E
    _printf_lld
        0x0800027e:    29e4        .)      CMP      r1,#0xe4
        0x08000280:    f00084ca    ....    BEQ.W    _printf_longlong_dec ; 0x8000c18
    .ARM.Collect$$_printf_percent$$0000000F
    _printf_llu
        0x08000284:    29f5        .)      CMP      r1,#0xf5
        0x08000286:    f00084c7    ....    BEQ.W    _printf_longlong_dec ; 0x8000c18
    .ARM.Collect$$_printf_percent$$00000010
    _printf_llo
        0x0800028a:    29ef        .)      CMP      r1,#0xef
        0x0800028c:    f0008530    ..0.    BEQ.W    _printf_ll_oct ; 0x8000cf0
    .ARM.Collect$$_printf_percent$$00000011
    _printf_llx
        0x08000290:    29f8        .)      CMP      r1,#0xf8
        0x08000292:    f0008570    ..p.    BEQ.W    _printf_ll_hex ; 0x8000d76
    .ARM.Collect$$_printf_percent$$00000012
    _printf_l
        0x08000296:    6803        .h      LDR      r3,[r0,#0]
        0x08000298:    09db        ..      LSRS     r3,r3,#7
        0x0800029a:    bf28        (.      IT       CS
        0x0800029c:    f0410180    A...    ORRCS    r1,r1,#0x80
    .ARM.Collect$$_printf_percent$$00000013
    _printf_c
        0x080002a0:    2963        c)      CMP      r1,#0x63
        0x080002a2:    f001855a    ..Z.    BEQ.W    _printf_char ; 0x8001d5a
    .ARM.Collect$$_printf_percent$$00000014
    _printf_s
        0x080002a6:    2973        s)      CMP      r1,#0x73
        0x080002a8:    f001855f    .._.    BEQ.W    _printf_string ; 0x8001d6a
    .ARM.Collect$$_printf_percent$$00000015
    _printf_lc
        0x080002ac:    29e3        .)      CMP      r1,#0xe3
        0x080002ae:    f001856a    ..j.    BEQ.W    _printf_wchar ; 0x8001d86
    .ARM.Collect$$_printf_percent$$00000016
    _printf_ls
        0x080002b2:    29f3        .)      CMP      r1,#0xf3
        0x080002b4:    f001856f    ..o.    BEQ.W    _printf_wstring ; 0x8001d96
    .ARM.Collect$$_printf_percent$$00000017
    _printf_percent_end
        0x080002b8:    2000        .       MOVS     r0,#0
        0x080002ba:    4770        pG      BX       lr
    .ARM.Collect$$libinit$$00000000
    __rt_lib_init
        0x080002bc:    b51f        ..      PUSH     {r0-r4,lr}
    .ARM.Collect$$libinit$$00000001
    __rt_lib_init_fp_1
        0x080002be:    f007fd8a    ....    BL       _fp_init ; 0x8007dd6
    .ARM.Collect$$libinit$$00000004
    .ARM.Collect$$libinit$$00000005
    __rt_lib_init_heap_2
    __rt_lib_init_preinit_1
        0x080002c2:    e89d0003    ....    LDM      sp,{r0,r1}
        0x080002c6:    f001ff05    ....    BL       _init_alloc ; 0x80020d4
    .ARM.Collect$$libinit$$0000000A
    .ARM.Collect$$libinit$$0000000C
    .ARM.Collect$$libinit$$0000000E
    .ARM.Collect$$libinit$$0000000F
    __rt_lib_init_heap_1
    __rt_lib_init_lc_common
    __rt_lib_init_rand_1
    __rt_lib_init_user_alloc_1
        0x080002ca:    f000fb5d    ..].    BL       __rt_locale ; 0x8000988
        0x080002ce:    0004        ..      MOVS     r4,r0
    .ARM.Collect$$libinit$$00000011
    .ARM.Collect$$libinit$$00000012
    __rt_lib_init_lc_collate_1
    __rt_lib_init_lc_ctype_2
        0x080002d0:    2000        .       MOVS     r0,#0
        0x080002d2:    2100        .!      MOVS     r1,#0
        0x080002d4:    f006ffe0    ....    BL       _get_lc_ctype ; 0x8007298
        0x080002d8:    1c40        @.      ADDS     r0,r0,#1
        0x080002da:    6060        ``      STR      r0,[r4,#4]
    .ARM.Collect$$libinit$$00000013
    .ARM.Collect$$libinit$$00000015
    .ARM.Collect$$libinit$$00000016
    __rt_lib_init_lc_ctype_1
    __rt_lib_init_lc_monetary_1
    __rt_lib_init_lc_numeric_2
        0x080002dc:    2000        .       MOVS     r0,#0
        0x080002de:    2100        .!      MOVS     r1,#0
        0x080002e0:    f007f806    ....    BL       _get_lc_numeric ; 0x80072f0
        0x080002e4:    60e0        .`      STR      r0,[r4,#0xc]
    .ARM.Collect$$libinit$$00000017
    .ARM.Collect$$libinit$$00000018
    __rt_lib_init_lc_numeric_1
    __rt_lib_init_lc_time_2
        0x080002e6:    2000        .       MOVS     r0,#0
        0x080002e8:    2100        .!      MOVS     r1,#0
        0x080002ea:    f006ffeb    ....    BL       _get_lc_time ; 0x80072c4
        0x080002ee:    6120         a      STR      r0,[r4,#0x10]
    .ARM.Collect$$libinit$$00000019
    .ARM.Collect$$libinit$$0000001B
    .ARM.Collect$$libinit$$0000001D
    .ARM.Collect$$libinit$$0000001F
    .ARM.Collect$$libinit$$00000021
    .ARM.Collect$$libinit$$00000023
    .ARM.Collect$$libinit$$00000024
    __rt_lib_init_atexit_1
    __rt_lib_init_clock_1
    __rt_lib_init_fp_trap_1
    __rt_lib_init_getenv_1
    __rt_lib_init_lc_time_1
    __rt_lib_init_signal_1
    __rt_lib_init_stdio_2
        0x080002f0:    f000ff0a    ....    BL       _initio ; 0x8001108
    .ARM.Collect$$libinit$$00000025
    .ARM.Collect$$libinit$$0000002C
    .ARM.Collect$$libinit$$0000002E
    .ARM.Collect$$libinit$$00000030
    .ARM.Collect$$libinit$$00000031
    __rt_lib_init_alloca_1
    __rt_lib_init_argv_1
    __rt_lib_init_cpp_2
    __rt_lib_init_exceptions_1
    __rt_lib_init_stdio_1
        0x080002f4:    f000fb34    ..4.    BL       __cpp_initialize__aeabi_ ; 0x8000960
    .ARM.Collect$$libinit$$00000032
    .ARM.Collect$$libinit$$00000033
    __rt_lib_init_cpp_1
    __rt_lib_init_return
        0x080002f8:    bd1f        ..      POP      {r0-r4,pc}
    .ARM.Collect$$libshutdown$$00000000
    __rt_lib_shutdown
        0x080002fa:    b510        ..      PUSH     {r4,lr}
    .ARM.Collect$$libshutdown$$00000001
    __rt_lib_shutdown_cpp_2
        0x080002fc:    2000        .       MOVS     r0,#0
        0x080002fe:    f001fe59    ..Y.    BL       __cxa_finalize ; 0x8001fb4
    .ARM.Collect$$libshutdown$$00000002
    .ARM.Collect$$libshutdown$$00000003
    __rt_lib_shutdown_cpp_1
    __rt_lib_shutdown_stdio_2
        0x08000302:    f000ff6a    ..j.    BL       _terminateio ; 0x80011da
    .ARM.Collect$$libshutdown$$00000004
    .ARM.Collect$$libshutdown$$00000007
    .ARM.Collect$$libshutdown$$0000000A
    .ARM.Collect$$libshutdown$$0000000C
    .ARM.Collect$$libshutdown$$0000000F
    .ARM.Collect$$libshutdown$$00000010
    __rt_lib_shutdown_fp_trap_1
    __rt_lib_shutdown_heap_1
    __rt_lib_shutdown_return
    __rt_lib_shutdown_signal_1
    __rt_lib_shutdown_stdio_1
    __rt_lib_shutdown_user_alloc_1
        0x08000306:    bd10        ..      POP      {r4,pc}
    .ARM.Collect$$rtentry$$00000000
    .ARM.Collect$$rtentry$$00000002
    .ARM.Collect$$rtentry$$00000004
    __rt_entry
    __rt_entry_presh_1
    __rt_entry_sh
        0x08000308:    f001fea3    ....    BL       __user_setup_stackheap ; 0x8002052
        0x0800030c:    4611        .F      MOV      r1,r2
    .ARM.Collect$$rtentry$$00000009
    .ARM.Collect$$rtentry$$0000000A
    __rt_entry_li
    __rt_entry_postsh_1
        0x0800030e:    f7ffffd5    ....    BL       __rt_lib_init ; 0x80002bc
    .ARM.Collect$$rtentry$$0000000C
    .ARM.Collect$$rtentry$$0000000D
    __rt_entry_main
    __rt_entry_postli_1
        0x08000312:    f005fca7    ....    BL       main ; 0x8005c64
        0x08000316:    f001ffc5    ....    BL       exit ; 0x80022a4
    .ARM.Collect$$rtexit$$00000000
    __rt_exit
        0x0800031a:    b403        ..      PUSH     {r0,r1}
    .ARM.Collect$$rtexit$$00000002
    .ARM.Collect$$rtexit$$00000003
    __rt_exit_ls
    __rt_exit_prels_1
        0x0800031c:    f7ffffed    ....    BL       __rt_lib_shutdown ; 0x80002fa
    .ARM.Collect$$rtexit$$00000004
    __rt_exit_exit
        0x08000320:    bc03        ..      POP      {r0,r1}
        0x08000322:    f001ffe7    ....    BL       _sys_exit ; 0x80022f4
        0x08000326:    0000        ..      MOVS     r0,r0
    .text
    $v0
    Reset_Handler
        0x08000328:    4809        .H      LDR      r0,[pc,#36] ; [0x8000350] = 0x8003381
        0x0800032a:    4780        .G      BLX      r0
        0x0800032c:    4809        .H      LDR      r0,[pc,#36] ; [0x8000354] = 0x8000199
        0x0800032e:    4700        .G      BX       r0
        0x08000330:    e7fe        ..      B        0x8000330 ; Reset_Handler + 8
        0x08000332:    e7fe        ..      B        0x8000332 ; Reset_Handler + 10
        0x08000334:    e7fe        ..      B        0x8000334 ; Reset_Handler + 12
        0x08000336:    e7fe        ..      B        0x8000336 ; Reset_Handler + 14
        0x08000338:    e7fe        ..      B        0x8000338 ; Reset_Handler + 16
        0x0800033a:    e7fe        ..      B        0x800033a ; Reset_Handler + 18
        0x0800033c:    e7fe        ..      B        0x800033c ; Reset_Handler + 20
    PendSV_Handler
        0x0800033e:    e7fe        ..      B        PendSV_Handler ; 0x800033e
        0x08000340:    e7fe        ..      B        0x8000340 ; PendSV_Handler + 2
    ADC1_2_IRQHandler
    ADC3_4_IRQHandler
    CAN1_RX1_IRQHandler
    CAN1_SCE_IRQHandler
    CAN2_RX0_IRQHandler
    CAN2_RX1_IRQHandler
    CAN2_SCE_IRQHandler
    CAN2_TX_IRQHandler
    COMP7_IRQHandler
    COMP_1_2_3_IRQHandler
    COMP_4_5_6_IRQHandler
    DMA1_Channel1_IRQHandler
    DMA1_Channel2_IRQHandler
    DMA1_Channel3_IRQHandler
    DMA1_Channel4_IRQHandler
    DMA1_Channel5_IRQHandler
    DMA1_Channel6_IRQHandler
    DMA1_Channel7_IRQHandler
    DMA1_Channel8_IRQHandler
    DMA2_Channel1_IRQHandler
    DMA2_Channel2_IRQHandler
    DMA2_Channel3_IRQHandler
    DMA2_Channel4_IRQHandler
    DMA2_Channel5_IRQHandler
    DMA2_Channel6_IRQHandler
    DMA2_Channel7_IRQHandler
    DMA2_Channel8_IRQHandler
    DVP_IRQHandler
    ETH_IRQHandler
    ETH_WKUP_IRQHandler
    EXTI0_IRQHandler
    EXTI15_10_IRQHandler
    EXTI1_IRQHandler
    EXTI2_IRQHandler
    EXTI3_IRQHandler
    EXTI4_IRQHandler
    FLASH_IRQHandler
    I2C1_ER_IRQHandler
    I2C1_EV_IRQHandler
    I2C2_ER_IRQHandler
    I2C2_EV_IRQHandler
    I2C3_ER_IRQHandler
    I2C3_EV_IRQHandler
    I2C4_ER_IRQHandler
    I2C4_EV_IRQHandler
    MMU_IRQHandler
    PVD_IRQHandler
    QSPI_IRQHandler
    RCC_IRQHandler
    RSRAM_IRQHandler
    RTCAlarm_IRQHandler
    RTC_WKUP_IRQHandler
    SAC_IRQHandler
    SDIO_IRQHandler
    SPI1_IRQHandler
    SPI3_IRQHandler
    TAMPER_IRQHandler
    TIM1_BRK_IRQHandler
    TIM1_TRG_COM_IRQHandler
    TIM1_UP_IRQHandler
    TIM2_IRQHandler
    TIM3_IRQHandler
    TIM4_IRQHandler
    TIM5_IRQHandler
    TIM6_IRQHandler
    TIM7_IRQHandler
    TIM8_BRK_IRQHandler
    TIM8_CC_IRQHandler
    TIM8_TRG_COM_IRQHandler
    TIM8_UP_IRQHandler
    TSC_IRQHandler
    UART4_IRQHandler
    UART5_IRQHandler
    UART6_IRQHandler
    UART7_IRQHandler
    USART1_IRQHandler
    USART2_IRQHandler
    USBWakeUp_IRQHandler
    USB_HP_CAN1_TX_IRQHandler
    USB_LP_CAN1_RX0_IRQHandler
    WWDG_IRQHandler
    XFMC_IRQHandler
        0x08000342:    e7fe        ..      B        ADC1_2_IRQHandler ; 0x8000342
    __user_initial_stackheap
        0x08000344:    4804        .H      LDR      r0,[pc,#16] ; [0x8000358] = 0x20004a48
        0x08000346:    4905        .I      LDR      r1,[pc,#20] ; [0x800035c] = 0x20005b48
        0x08000348:    4a05        .J      LDR      r2,[pc,#20] ; [0x8000360] = 0x20004b48
        0x0800034a:    4b06        .K      LDR      r3,[pc,#24] ; [0x8000364] = 0x20004b48
        0x0800034c:    4770        pG      BX       lr
    $d
        0x0800034e:    0000        ..      DCW    0
        0x08000350:    08003381    .3..    DCD    134230913
        0x08000354:    08000199    ....    DCD    134218137
        0x08000358:    20004a48    HJ.     DCD    536889928
        0x0800035c:    20005b48    H[.     DCD    536894280
        0x08000360:    20004b48    HK.     DCD    536890184
        0x08000364:    20004b48    HK.     DCD    536890184
    $t
    .text
    time
        0x08000368:    b510        ..      PUSH     {r4,lr}
        0x0800036a:    4604        .F      MOV      r4,r0
        0x0800036c:    2100        .!      MOVS     r1,#0
        0x0800036e:    2011        .       MOVS     r0,#0x11
        0x08000370:    beab        ..      BKPT     #0xab
        0x08000372:    2c00        .,      CMP      r4,#0
        0x08000374:    d000        ..      BEQ      0x8000378 ; time + 16
        0x08000376:    6020         `      STR      r0,[r4,#0]
        0x08000378:    bd10        ..      POP      {r4,pc}
        0x0800037a:    0000        ..      MOVS     r0,r0
    .text
    __rt_ctype_table
        0x0800037c:    b510        ..      PUSH     {r4,lr}
        0x0800037e:    f000fb03    ....    BL       __rt_locale ; 0x8000988
        0x08000382:    1d00        ..      ADDS     r0,r0,#4
        0x08000384:    bd10        ..      POP      {r4,pc}
        0x08000386:    bf00        ..      NOP      
    $d
        0x08000388:    00006f11    .o..    DCD    28433
    $t
    .text
    printf
        0x0800038c:    b40f        ..      PUSH     {r0-r3}
        0x0800038e:    4904        .I      LDR      r1,[pc,#16] ; [0x80003a0] = 0x200001bc
        0x08000390:    b510        ..      PUSH     {r4,lr}
        0x08000392:    aa03        ..      ADD      r2,sp,#0xc
        0x08000394:    9802        ..      LDR      r0,[sp,#8]
        0x08000396:    f000fbcf    ....    BL       _printf_char_file ; 0x8000b38
        0x0800039a:    bc10        ..      POP      {r4}
        0x0800039c:    f85dfb14    ]...    LDR      pc,[sp],#0x14
    $d
        0x080003a0:    200001bc    ...     DCD    536871356
    $t
    .text
    fprintf
        0x080003a4:    b40f        ..      PUSH     {r0-r3}
        0x080003a6:    4601        .F      MOV      r1,r0
        0x080003a8:    b510        ..      PUSH     {r4,lr}
        0x080003aa:    aa04        ..      ADD      r2,sp,#0x10
        0x080003ac:    9803        ..      LDR      r0,[sp,#0xc]
        0x080003ae:    f000fbc3    ....    BL       _printf_char_file ; 0x8000b38
        0x080003b2:    bc10        ..      POP      {r4}
        0x080003b4:    f85dfb14    ]...    LDR      pc,[sp],#0x14
    .text
    vfprintf
        0x080003b8:    460b        .F      MOV      r3,r1
        0x080003ba:    4601        .F      MOV      r1,r0
        0x080003bc:    4618        .F      MOV      r0,r3
        0x080003be:    f000bbbb    ....    B.W      _printf_char_file ; 0x8000b38
        0x080003c2:    0000        ..      MOVS     r0,r0
    .text
    _do_fflush
        0x080003c4:    b570        p.      PUSH     {r4-r6,lr}
        0x080003c6:    4604        .F      MOV      r4,r0
        0x080003c8:    68c0        .h      LDR      r0,[r0,#0xc]
        0x080003ca:    0781        ..      LSLS     r1,r0,#30
        0x080003cc:    d013        ..      BEQ      0x80003f6 ; _do_fflush + 50
        0x080003ce:    0680        ..      LSLS     r0,r0,#26
        0x080003d0:    d501        ..      BPL      0x80003d6 ; _do_fflush + 18
        0x080003d2:    6aa5        .j      LDR      r5,[r4,#0x28]
        0x080003d4:    e004        ..      B        0x80003e0 ; _do_fflush + 28
        0x080003d6:    69a1        .i      LDR      r1,[r4,#0x18]
        0x080003d8:    6860        `h      LDR      r0,[r4,#4]
        0x080003da:    4408        .D      ADD      r0,r0,r1
        0x080003dc:    6921        !i      LDR      r1,[r4,#0x10]
        0x080003de:    1a45        E.      SUBS     r5,r0,r1
        0x080003e0:    4620         F      MOV      r0,r4
        0x080003e2:    f000fe4d    ..M.    BL       _fflush ; 0x8001080
        0x080003e6:    2200        ."      MOVS     r2,#0
        0x080003e8:    4606        .F      MOV      r6,r0
        0x080003ea:    4629        )F      MOV      r1,r5
        0x080003ec:    4620         F      MOV      r0,r4
        0x080003ee:    f000fd97    ....    BL       _fseek ; 0x8000f20
        0x080003f2:    4630        0F      MOV      r0,r6
        0x080003f4:    bd70        p.      POP      {r4-r6,pc}
        0x080003f6:    2000        .       MOVS     r0,#0
        0x080003f8:    bd70        p.      POP      {r4-r6,pc}
    fflush
        0x080003fa:    b570        p.      PUSH     {r4-r6,lr}
        0x080003fc:    b110        ..      CBZ      r0,0x8000404 ; fflush + 10
        0x080003fe:    e8bd4070    ..p@    POP      {r4-r6,lr}
        0x08000402:    e7df        ..      B        _do_fflush ; 0x80003c4
        0x08000404:    2500        .%      MOVS     r5,#0
        0x08000406:    4c07        .L      LDR      r4,[pc,#28] ; [0x8000424] = 0x20000168
        0x08000408:    1e6e        n.      SUBS     r6,r5,#1
        0x0800040a:    e007        ..      B        0x800041c ; fflush + 34
        0x0800040c:    4620         F      MOV      r0,r4
        0x0800040e:    f7ffffd9    ....    BL       _do_fflush ; 0x80003c4
        0x08000412:    b100        ..      CBZ      r0,0x8000416 ; fflush + 28
        0x08000414:    4635        5F      MOV      r5,r6
        0x08000416:    6d20         m      LDR      r0,[r4,#0x50]
        0x08000418:    f0200401     ...    BIC      r4,r0,#1
        0x0800041c:    2c00        .,      CMP      r4,#0
        0x0800041e:    d1f5        ..      BNE      0x800040c ; fflush + 18
        0x08000420:    4628        (F      MOV      r0,r5
        0x08000422:    bd70        p.      POP      {r4-r6,pc}
    $d
        0x08000424:    20000168    h..     DCD    536871272
    $t
    .text
    putc
        0x08000428:    f005b9c6    ....    B.W      fputc ; 0x80057b8
    .text
    __cxa_atexit
        0x0800042c:    460b        .F      MOV      r3,r1
        0x0800042e:    4601        .F      MOV      r1,r0
        0x08000430:    4618        .F      MOV      r0,r3
        0x08000432:    f000bf05    ....    B.W      __aeabi_atexit ; 0x8001240
    .text
    strstr
        0x08000436:    b530        0.      PUSH     {r4,r5,lr}
        0x08000438:    4605        .F      MOV      r5,r0
        0x0800043a:    460b        .F      MOV      r3,r1
        0x0800043c:    462a        *F      MOV      r2,r5
        0x0800043e:    f8134b01    ...K    LDRB     r4,[r3],#1
        0x08000442:    f8120b01    ....    LDRB     r0,[r2],#1
        0x08000446:    b108        ..      CBZ      r0,0x800044c ; strstr + 22
        0x08000448:    42a0        .B      CMP      r0,r4
        0x0800044a:    d0f8        ..      BEQ      0x800043e ; strstr + 8
        0x0800044c:    b11c        ..      CBZ      r4,0x8000456 ; strstr + 32
        0x0800044e:    2800        .(      CMP      r0,#0
        0x08000450:    d002        ..      BEQ      0x8000458 ; strstr + 34
        0x08000452:    1c6d        m.      ADDS     r5,r5,#1
        0x08000454:    e7f1        ..      B        0x800043a ; strstr + 4
        0x08000456:    4628        (F      MOV      r0,r5
        0x08000458:    bd30        0.      POP      {r4,r5,pc}
    .text
    strcpy
        0x0800045a:    ea400301    @...    ORR      r3,r0,r1
        0x0800045e:    4602        .F      MOV      r2,r0
        0x08000460:    b530        0.      PUSH     {r4,r5,lr}
        0x08000462:    079b        ..      LSLS     r3,r3,#30
        0x08000464:    d110        ..      BNE      0x8000488 ; strcpy + 46
        0x08000466:    f04f3401    O..4    MOV      r4,#0x1010101
        0x0800046a:    e000        ..      B        0x800046e ; strcpy + 20
        0x0800046c:    c208        ..      STM      r2!,{r3}
        0x0800046e:    c908        ..      LDM      r1!,{r3}
        0x08000470:    1b1d        ..      SUBS     r5,r3,r4
        0x08000472:    439d        .C      BICS     r5,r5,r3
        0x08000474:    ea151fc4    ....    TST      r5,r4,LSL #7
        0x08000478:    d0f8        ..      BEQ      0x800046c ; strcpy + 18
        0x0800047a:    f01301ff    ....    ANDS     r1,r3,#0xff
        0x0800047e:    f8021b01    ....    STRB     r1,[r2],#1
        0x08000482:    d00d        ..      BEQ      0x80004a0 ; strcpy + 70
        0x08000484:    0a1b        ..      LSRS     r3,r3,#8
        0x08000486:    e7f8        ..      B        0x800047a ; strcpy + 32
        0x08000488:    f8113b01    ...;    LDRB     r3,[r1],#1
        0x0800048c:    2b00        .+      CMP      r3,#0
        0x0800048e:    f8023b01    ...;    STRB     r3,[r2],#1
        0x08000492:    d005        ..      BEQ      0x80004a0 ; strcpy + 70
        0x08000494:    f8113b01    ...;    LDRB     r3,[r1],#1
        0x08000498:    2b00        .+      CMP      r3,#0
        0x0800049a:    f8023b01    ...;    STRB     r3,[r2],#1
        0x0800049e:    d1f3        ..      BNE      0x8000488 ; strcpy + 46
        0x080004a0:    bd30        0.      POP      {r4,r5,pc}
    .text
    strlen
        0x080004a2:    b510        ..      PUSH     {r4,lr}
        0x080004a4:    1c43        C.      ADDS     r3,r0,#1
        0x080004a6:    e002        ..      B        0x80004ae ; strlen + 12
        0x080004a8:    f8101b01    ....    LDRB     r1,[r0],#1
        0x080004ac:    b171        q.      CBZ      r1,0x80004cc ; strlen + 42
        0x080004ae:    0781        ..      LSLS     r1,r0,#30
        0x080004b0:    d1fa        ..      BNE      0x80004a8 ; strlen + 6
        0x080004b2:    f04f3201    O..2    MOV      r2,#0x1010101
        0x080004b6:    c802        ..      LDM      r0!,{r1}
        0x080004b8:    1a8c        ..      SUBS     r4,r1,r2
        0x080004ba:    438c        .C      BICS     r4,r4,r1
        0x080004bc:    ea1411c2    ....    ANDS     r1,r4,r2,LSL #7
        0x080004c0:    d0f9        ..      BEQ      0x80004b6 ; strlen + 20
        0x080004c2:    1ac0        ..      SUBS     r0,r0,r3
        0x080004c4:    060a        ..      LSLS     r2,r1,#24
        0x080004c6:    d003        ..      BEQ      0x80004d0 ; strlen + 46
        0x080004c8:    1ec0        ..      SUBS     r0,r0,#3
        0x080004ca:    bd10        ..      POP      {r4,pc}
        0x080004cc:    1ac0        ..      SUBS     r0,r0,r3
        0x080004ce:    bd10        ..      POP      {r4,pc}
        0x080004d0:    040a        ..      LSLS     r2,r1,#16
        0x080004d2:    d001        ..      BEQ      0x80004d8 ; strlen + 54
        0x080004d4:    1e80        ..      SUBS     r0,r0,#2
        0x080004d6:    bd10        ..      POP      {r4,pc}
        0x080004d8:    0209        ..      LSLS     r1,r1,#8
        0x080004da:    d0fc        ..      BEQ      0x80004d6 ; strlen + 52
        0x080004dc:    1e40        @.      SUBS     r0,r0,#1
        0x080004de:    bd10        ..      POP      {r4,pc}
    .text
    __aeabi_memcpy
    __rt_memcpy
        0x080004e0:    2a03        .*      CMP      r2,#3
        0x080004e2:    f2408030    @.0.    BLS.W    _memcpy_lastbytes ; 0x8000546
        0x080004e6:    f0100c03    ....    ANDS     r12,r0,#3
        0x080004ea:    f0008015    ....    BEQ.W    0x8000518 ; __aeabi_memcpy + 56
        0x080004ee:    f8113b01    ...;    LDRB     r3,[r1],#1
        0x080004f2:    f1bc0f02    ....    CMP      r12,#2
        0x080004f6:    4462        bD      ADD      r2,r2,r12
        0x080004f8:    bf98        ..      IT       LS
        0x080004fa:    f811cb01    ....    LDRBLS   r12,[r1],#1
        0x080004fe:    f8003b01    ...;    STRB     r3,[r0],#1
        0x08000502:    bf38        8.      IT       CC
        0x08000504:    f8113b01    ...;    LDRBCC   r3,[r1],#1
        0x08000508:    f1a20204    ....    SUB      r2,r2,#4
        0x0800050c:    bf98        ..      IT       LS
        0x0800050e:    f800cb01    ....    STRBLS   r12,[r0],#1
        0x08000512:    bf38        8.      IT       CC
        0x08000514:    f8003b01    ...;    STRBCC   r3,[r0],#1
        0x08000518:    f0110303    ....    ANDS     r3,r1,#3
        0x0800051c:    f00086a7    ....    BEQ.W    __aeabi_memcpy4 ; 0x800126e
        0x08000520:    3a08        .:      SUBS     r2,r2,#8
        0x08000522:    f0c08008    ....    BCC.W    0x8000536 ; __aeabi_memcpy + 86
        0x08000526:    f8513b04    Q..;    LDR      r3,[r1],#4
        0x0800052a:    3a08        .:      SUBS     r2,r2,#8
        0x0800052c:    f851cb04    Q...    LDR      r12,[r1],#4
        0x08000530:    e8a01008    ....    STM      r0!,{r3,r12}
        0x08000534:    e7f5        ..      B        0x8000522 ; __aeabi_memcpy + 66
        0x08000536:    1d12        ..      ADDS     r2,r2,#4
        0x08000538:    bf5c        \.      ITT      PL
        0x0800053a:    f8513b04    Q..;    LDRPL    r3,[r1],#4
        0x0800053e:    f8403b04    @..;    STRPL    r3,[r0],#4
        0x08000542:    f3af8000    ....    NOP.W    
    _memcpy_lastbytes
        0x08000546:    07d2        ..      LSLS     r2,r2,#31
        0x08000548:    bf24        $.      ITT      CS
        0x0800054a:    f8113b01    ...;    LDRBCS   r3,[r1],#1
        0x0800054e:    f811cb01    ....    LDRBCS   r12,[r1],#1
        0x08000552:    bf48        H.      IT       MI
        0x08000554:    f8112b01    ...+    LDRBMI   r2,[r1],#1
        0x08000558:    bf24        $.      ITT      CS
        0x0800055a:    f8003b01    ...;    STRBCS   r3,[r0],#1
        0x0800055e:    f800cb01    ....    STRBCS   r12,[r0],#1
        0x08000562:    bf48        H.      IT       MI
        0x08000564:    f8002b01    ...+    STRBMI   r2,[r0],#1
        0x08000568:    4770        pG      BX       lr
        0x0800056a:    0000        ..      MOVS     r0,r0
        0x0800056c:    0000        ..      MOVS     r0,r0
        0x0800056e:    0000        ..      MOVS     r0,r0
    .text
    strcmp
        0x08000570:    b430        0.      PUSH     {r4,r5}
        0x08000572:    f04f3c01    O..<    MOV      r12,#0x1010101
        0x08000576:    f8502b04    P..+    LDR      r2,[r0],#4
        0x0800057a:    f8513b04    Q..;    LDR      r3,[r1],#4
        0x0800057e:    faccf452    ..R.    UQSUB8   r4,r12,r2
        0x08000582:    1ad5        ..      SUBS     r5,r2,r3
        0x08000584:    d120         .      BNE      0x80005c8 ; strcmp + 88
        0x08000586:    b9fc        ..      CBNZ     r4,0x80005c8 ; strcmp + 88
        0x08000588:    f8502b04    P..+    LDR      r2,[r0],#4
        0x0800058c:    f8513b04    Q..;    LDR      r3,[r1],#4
        0x08000590:    faccf452    ..R.    UQSUB8   r4,r12,r2
        0x08000594:    1ad5        ..      SUBS     r5,r2,r3
        0x08000596:    d117        ..      BNE      0x80005c8 ; strcmp + 88
        0x08000598:    b9b4        ..      CBNZ     r4,0x80005c8 ; strcmp + 88
        0x0800059a:    f8502b04    P..+    LDR      r2,[r0],#4
        0x0800059e:    f8513b04    Q..;    LDR      r3,[r1],#4
        0x080005a2:    faccf452    ..R.    UQSUB8   r4,r12,r2
        0x080005a6:    1ad5        ..      SUBS     r5,r2,r3
        0x080005a8:    d10e        ..      BNE      0x80005c8 ; strcmp + 88
        0x080005aa:    b96c        l.      CBNZ     r4,0x80005c8 ; strcmp + 88
        0x080005ac:    f8502b04    P..+    LDR      r2,[r0],#4
        0x080005b0:    f8513b04    Q..;    LDR      r3,[r1],#4
        0x080005b4:    faccf452    ..R.    UQSUB8   r4,r12,r2
        0x080005b8:    1ad5        ..      SUBS     r5,r2,r3
        0x080005ba:    d105        ..      BNE      0x80005c8 ; strcmp + 88
        0x080005bc:    2c00        .,      CMP      r4,#0
        0x080005be:    d0da        ..      BEQ      0x8000576 ; strcmp + 6
        0x080005c0:    bc30        0.      POP      {r4,r5}
        0x080005c2:    f04f0000    O...    MOV      r0,#0
        0x080005c6:    4770        pG      BX       lr
        0x080005c8:    ba29        ).      REV      r1,r5
        0x080005ca:    fab1f181    ....    CLZ      r1,r1
        0x080005ce:    f0110118    ....    ANDS     r1,r1,#0x18
        0x080005d2:    f1d10020    .. .    RSBS     r0,r1,#0x20
        0x080005d6:    4084        .@      LSLS     r4,r4,r0
        0x080005d8:    d1f2        ..      BNE      0x80005c0 ; strcmp + 80
        0x080005da:    40ca        .@      LSRS     r2,r2,r1
        0x080005dc:    40cb        .@      LSRS     r3,r3,r1
        0x080005de:    f01202ff    ....    ANDS     r2,r2,#0xff
        0x080005e2:    f01303ff    ....    ANDS     r3,r3,#0xff
        0x080005e6:    bc30        0.      POP      {r4,r5}
        0x080005e8:    1ad0        ..      SUBS     r0,r2,r3
        0x080005ea:    4770        pG      BX       lr
    .text
    localtime
        0x080005ec:    4901        .I      LDR      r1,[pc,#4] ; [0x80005f4] = 0x20000264
        0x080005ee:    f000be71    ..q.    B.W      _localtime_r ; 0x80012d4
    $d
        0x080005f2:    0000        ..      DCW    0
        0x080005f4:    20000264    d..     DCD    536871524
    $t
    .text
    _isoweek
        0x080005f8:    b570        p.      PUSH     {r4-r6,lr}
        0x080005fa:    4605        .F      MOV      r5,r0
        0x080005fc:    b901        ..      CBNZ     r1,0x8000600 ; _isoweek + 8
        0x080005fe:    2107        .!      MOVS     r1,#7
        0x08000600:    1a54        T.      SUBS     r4,r2,r1
        0x08000602:    1d24        $.      ADDS     r4,r4,#4
        0x08000604:    f5b47fb6    ....    CMP      r4,#0x16c
        0x08000608:    dd09        ..      BLE      0x800061e ; _isoweek + 38
        0x0800060a:    6828        (h      LDR      r0,[r5,#0]
        0x0800060c:    f000f95d    ..].    BL       _yeardays ; 0x80008ca
        0x08000610:    42a0        .B      CMP      r0,r4
        0x08000612:    dc04        ..      BGT      0x800061e ; _isoweek + 38
        0x08000614:    6828        (h      LDR      r0,[r5,#0]
        0x08000616:    1c40        @.      ADDS     r0,r0,#1
        0x08000618:    6028        (`      STR      r0,[r5,#0]
        0x0800061a:    2001        .       MOVS     r0,#1
        0x0800061c:    bd70        p.      POP      {r4-r6,pc}
        0x0800061e:    2c00        .,      CMP      r4,#0
        0x08000620:    da05        ..      BGE      0x800062e ; _isoweek + 54
        0x08000622:    6828        (h      LDR      r0,[r5,#0]
        0x08000624:    1e40        @.      SUBS     r0,r0,#1
        0x08000626:    6028        (`      STR      r0,[r5,#0]
        0x08000628:    f000f94f    ..O.    BL       _yeardays ; 0x80008ca
        0x0800062c:    4404        .D      ADD      r4,r4,r0
        0x0800062e:    2007        .       MOVS     r0,#7
        0x08000630:    fb94f0f0    ....    SDIV     r0,r4,r0
        0x08000634:    1c40        @.      ADDS     r0,r0,#1
        0x08000636:    bd70        p.      POP      {r4-r6,pc}
    strftime
        0x08000638:    e92d4ff0    -..O    PUSH     {r4-r11,lr}
        0x0800063c:    461f        .F      MOV      r7,r3
        0x0800063e:    4615        .F      MOV      r5,r2
        0x08000640:    468b        .F      MOV      r11,r1
        0x08000642:    4682        .F      MOV      r10,r0
        0x08000644:    2600        .&      MOVS     r6,#0
        0x08000646:    b089        ..      SUB      sp,sp,#0x24
        0x08000648:    f000f99e    ....    BL       __rt_locale ; 0x8000988
        0x0800064c:    f8d08010    ....    LDR      r8,[r0,#0x10]
        0x08000650:    2400        .$      MOVS     r4,#0
        0x08000652:    f1bb0f00    ....    CMP      r11,#0
        0x08000656:    d070        p.      BEQ      0x800073a ; strftime + 258
        0x08000658:    f8150b01    ....    LDRB     r0,[r5],#1
        0x0800065c:    b110        ..      CBZ      r0,0x8000664 ; strftime + 44
        0x0800065e:    2825        %(      CMP      r0,#0x25
        0x08000660:    d10d        ..      BNE      0x800067e ; strftime + 70
        0x08000662:    e00f        ..      B        0x8000684 ; strftime + 76
        0x08000664:    b124        $.      CBZ      r4,0x8000670 ; strftime + 56
        0x08000666:    1e64        d.      SUBS     r4,r4,#1
        0x08000668:    a806        ..      ADD      r0,sp,#0x18
        0x0800066a:    f8505024    P.$P    LDR      r5,[r0,r4,LSL #2]
        0x0800066e:    e7f3        ..      B        0x8000658 ; strftime + 32
        0x08000670:    2100        .!      MOVS     r1,#0
        0x08000672:    4630        0F      MOV      r0,r6
        0x08000674:    f80a1006    ....    STRB     r1,[r10,r6]
        0x08000678:    b009        ..      ADD      sp,sp,#0x24
        0x0800067a:    e8bd8ff0    ....    POP      {r4-r11,pc}
        0x0800067e:    f80a0006    ....    STRB     r0,[r10,r6]
        0x08000682:    e0c7        ..      B        0x8000814 ; strftime + 476
        0x08000684:    46e9        .F      MOV      r9,sp
        0x08000686:    f8150b01    ....    LDRB     r0,[r5],#1
        0x0800068a:    2859        Y(      CMP      r0,#0x59
        0x0800068c:    d070        p.      BEQ      0x8000770 ; strftime + 312
        0x0800068e:    dc23        #.      BGT      0x80006d8 ; strftime + 160
        0x08000690:    2849        I(      CMP      r0,#0x49
        0x08000692:    d06e        n.      BEQ      0x8000772 ; strftime + 314
        0x08000694:    dc14        ..      BGT      0x80006c0 ; strftime + 136
        0x08000696:    2844        D(      CMP      r0,#0x44
        0x08000698:    d06d        m.      BEQ      0x8000776 ; strftime + 318
        0x0800069a:    dc08        ..      BGT      0x80006ae ; strftime + 118
        0x0800069c:    2825        %(      CMP      r0,#0x25
        0x0800069e:    d0ee        ..      BEQ      0x800067e ; strftime + 70
        0x080006a0:    2841        A(      CMP      r0,#0x41
        0x080006a2:    d03e        >.      BEQ      0x8000722 ; strftime + 234
        0x080006a4:    2842        B(      CMP      r0,#0x42
        0x080006a6:    d049        I.      BEQ      0x800073c ; strftime + 260
        0x080006a8:    2843        C(      CMP      r0,#0x43
        0x080006aa:    d12c        ,.      BNE      0x8000706 ; strftime + 206
        0x080006ac:    e056        V.      B        0x800075c ; strftime + 292
        0x080006ae:    2845        E(      CMP      r0,#0x45
        0x080006b0:    d0e9        ..      BEQ      0x8000686 ; strftime + 78
        0x080006b2:    2846        F(      CMP      r0,#0x46
        0x080006b4:    d069        i.      BEQ      0x800078a ; strftime + 338
        0x080006b6:    2847        G(      CMP      r0,#0x47
        0x080006b8:    d076        v.      BEQ      0x80007a8 ; strftime + 368
        0x080006ba:    2848        H(      CMP      r0,#0x48
        0x080006bc:    d123        #.      BNE      0x8000706 ; strftime + 206
        0x080006be:    e07a        z.      B        0x80007b6 ; strftime + 382
        0x080006c0:    384d        M8      SUBS     r0,r0,#0x4d
        0x080006c2:    280c        .(      CMP      r0,#0xc
        0x080006c4:    d21f        ..      BCS      0x8000706 ; strftime + 206
        0x080006c6:    e8dff000    ....    TBB      [pc,r0]
    $d
        0x080006ca:    1e88        ..      DCW    7816
        0x080006cc:    9b1e1e06    ....    DCD    2602442246
        0x080006d0:    b5b3a9a0    ....    DCD    3048450464
        0x080006d4:    cfc1        ..      DCW    53185
    $t
        0x080006d6:    e7d6        ..      B        0x8000686 ; strftime + 78
        0x080006d8:    385a        Z8      SUBS     r0,r0,#0x5a
        0x080006da:    2821        !(      CMP      r0,#0x21
        0x080006dc:    d213        ..      BCS      0x8000706 ; strftime + 206
        0x080006de:    e8dff000    ....    TBB      [pc,r0]
    $d
        0x080006e2:    1211        ..      DCW    4625
        0x080006e4:    12121212    ....    DCD    303174162
        0x080006e8:    37261a12    ..&7    DCD    925243922
        0x080006ec:    59125045    EP.Y    DCD    1494372421
        0x080006f0:    12741226    &.t.    DCD    309596710
        0x080006f4:    127e7912    .y~.    DCD    310278418
        0x080006f8:    12891280    ....    DCD    310973056
        0x080006fc:    b312a296    ....    DCD    3004342934
        0x08000700:    0011cbbd    ....    DCD    1166269
    $t
        0x08000704:    e7a8        ..      B        0x8000658 ; strftime + 32
        0x08000706:    2025        %       MOVS     r0,#0x25
        0x08000708:    f80a0006    ....    STRB     r0,[r10,r6]
        0x0800070c:    1c76        v.      ADDS     r6,r6,#1
        0x0800070e:    455e        ^E      CMP      r6,r11
        0x08000710:    d213        ..      BCS      0x800073a ; strftime + 258
        0x08000712:    1e6d        m.      SUBS     r5,r5,#1
        0x08000714:    e7a0        ..      B        0x8000658 ; strftime + 32
        0x08000716:    f8d81000    ....    LDR      r1,[r8,#0]
        0x0800071a:    69ba        .i      LDR      r2,[r7,#0x18]
        0x0800071c:    f8d80024    ..$.    LDR      r0,[r8,#0x24]
        0x08000720:    e011        ..      B        0x8000746 ; strftime + 270
        0x08000722:    f8d81004    ....    LDR      r1,[r8,#4]
        0x08000726:    69ba        .i      LDR      r2,[r7,#0x18]
        0x08000728:    f8d80028    ..(.    LDR      r0,[r8,#0x28]
        0x0800072c:    e00b        ..      B        0x8000746 ; strftime + 270
        0x0800072e:    f8d81008    ....    LDR      r1,[r8,#8]
        0x08000732:    693a        :i      LDR      r2,[r7,#0x10]
        0x08000734:    f8d8002c    ..,.    LDR      r0,[r8,#0x2c]
        0x08000738:    e005        ..      B        0x8000746 ; strftime + 270
        0x0800073a:    e0b2        ..      B        0x80008a2 ; strftime + 618
        0x0800073c:    f8d8100c    ....    LDR      r1,[r8,#0xc]
        0x08000740:    693a        :i      LDR      r2,[r7,#0x10]
        0x08000742:    f8d80030    ..0.    LDR      r0,[r8,#0x30]
        0x08000746:    fb021100    ....    MLA      r1,r2,r0,r1
        0x0800074a:    eb010908    ....    ADD      r9,r1,r8
        0x0800074e:    e0aa        ..      B        0x80008a6 ; strftime + 622
        0x08000750:    a806        ..      ADD      r0,sp,#0x18
        0x08000752:    f8405024    @.$P    STR      r5,[r0,r4,LSL #2]
        0x08000756:    f8d81018    ....    LDR      r1,[r8,#0x18]
        0x0800075a:    e08a        ..      B        0x8000872 ; strftime + 570
        0x0800075c:    6979        yi      LDR      r1,[r7,#0x14]
        0x0800075e:    2064        d       MOVS     r0,#0x64
        0x08000760:    fb91f2f0    ....    SDIV     r2,r1,r0
        0x08000764:    3213        .2      ADDS     r2,r2,#0x13
        0x08000766:    4648        HF      MOV      r0,r9
        0x08000768:    a168        h.      ADR      r1,{pc}+0x1a4 ; 0x800090c
        0x0800076a:    e092        ..      B        0x8000892 ; strftime + 602
        0x0800076c:    68fa        .h      LDR      r2,[r7,#0xc]
        0x0800076e:    e089        ..      B        0x8000884 ; strftime + 588
        0x08000770:    e08a        ..      B        0x8000888 ; strftime + 592
        0x08000772:    e022        ".      B        0x80007ba ; strftime + 386
        0x08000774:    e7ff        ..      B        0x8000776 ; strftime + 318
        0x08000776:    a806        ..      ADD      r0,sp,#0x18
        0x08000778:    f8405024    @.$P    STR      r5,[r0,r4,LSL #2]
        0x0800077c:    a565        e.      ADR      r5,{pc}+0x198 ; 0x8000914
        0x0800077e:    1c64        d.      ADDS     r4,r4,#1
        0x08000780:    e76a        j.      B        0x8000658 ; strftime + 32
        0x08000782:    68fa        .h      LDR      r2,[r7,#0xc]
        0x08000784:    a166        f.      ADR      r1,{pc}+0x19c ; 0x8000920
        0x08000786:    4648        HF      MOV      r0,r9
        0x08000788:    e083        ..      B        0x8000892 ; strftime + 602
        0x0800078a:    a806        ..      ADD      r0,sp,#0x18
        0x0800078c:    f8405024    @.$P    STR      r5,[r0,r4,LSL #2]
        0x08000790:    a564        d.      ADR      r5,{pc}+0x194 ; 0x8000924
        0x08000792:    e7f4        ..      B        0x800077e ; strftime + 326
        0x08000794:    4638        8F      MOV      r0,r7
        0x08000796:    f000f8ad    ....    BL       _weekbasedyear ; 0x80008f4
        0x0800079a:    2164        d!      MOVS     r1,#0x64
        0x0800079c:    fb90f2f1    ....    SDIV     r2,r0,r1
        0x080007a0:    fb010212    ....    MLS      r2,r1,r2,r0
        0x080007a4:    e058        X.      B        0x8000858 ; strftime + 544
        0x080007a6:    e7ff        ..      B        0x80007a8 ; strftime + 368
        0x080007a8:    4638        8F      MOV      r0,r7
        0x080007aa:    f000f8a3    ....    BL       _weekbasedyear ; 0x80008f4
        0x080007ae:    4602        .F      MOV      r2,r0
        0x080007b0:    a15f        _.      ADR      r1,{pc}+0x180 ; 0x8000930
        0x080007b2:    4668        hF      MOV      r0,sp
        0x080007b4:    e06d        m.      B        0x8000892 ; strftime + 602
        0x080007b6:    68ba        .h      LDR      r2,[r7,#8]
        0x080007b8:    e064        d.      B        0x8000884 ; strftime + 588
        0x080007ba:    68b8        .h      LDR      r0,[r7,#8]
        0x080007bc:    210c        .!      MOVS     r1,#0xc
        0x080007be:    300b        .0      ADDS     r0,r0,#0xb
        0x080007c0:    fb90f2f1    ....    SDIV     r2,r0,r1
        0x080007c4:    fb010212    ....    MLS      r2,r1,r2,r0
        0x080007c8:    e005        ..      B        0x80007d6 ; strftime + 414
        0x080007ca:    69fa        .i      LDR      r2,[r7,#0x1c]
        0x080007cc:    a159        Y.      ADR      r1,{pc}+0x168 ; 0x8000934
        0x080007ce:    4648        HF      MOV      r0,r9
        0x080007d0:    1c52        R.      ADDS     r2,r2,#1
        0x080007d2:    e05e        ^.      B        0x8000892 ; strftime + 602
        0x080007d4:    693a        :i      LDR      r2,[r7,#0x10]
        0x080007d6:    a14d        M.      ADR      r1,{pc}+0x136 ; 0x800090c
        0x080007d8:    e7f9        ..      B        0x80007ce ; strftime + 406
        0x080007da:    687a        zh      LDR      r2,[r7,#4]
        0x080007dc:    e052        R.      B        0x8000884 ; strftime + 588
        0x080007de:    210a        .!      MOVS     r1,#0xa
        0x080007e0:    e016        ..      B        0x8000810 ; strftime + 472
        0x080007e2:    68b8        .h      LDR      r0,[r7,#8]
        0x080007e4:    280c        .(      CMP      r0,#0xc
        0x080007e6:    da02        ..      BGE      0x80007ee ; strftime + 438
        0x080007e8:    f8d81010    ....    LDR      r1,[r8,#0x10]
        0x080007ec:    e7ad        ..      B        0x800074a ; strftime + 274
        0x080007ee:    f8d81014    ....    LDR      r1,[r8,#0x14]
        0x080007f2:    e7aa        ..      B        0x800074a ; strftime + 274
        0x080007f4:    a806        ..      ADD      r0,sp,#0x18
        0x080007f6:    f8405024    @.$P    STR      r5,[r0,r4,LSL #2]
        0x080007fa:    f8d81034    ..4.    LDR      r1,[r8,#0x34]
        0x080007fe:    e038        8.      B        0x8000872 ; strftime + 570
        0x08000800:    a806        ..      ADD      r0,sp,#0x18
        0x08000802:    f8405024    @.$P    STR      r5,[r0,r4,LSL #2]
        0x08000806:    a54d        M.      ADR      r5,{pc}+0x136 ; 0x800093c
        0x08000808:    e7b9        ..      B        0x800077e ; strftime + 326
        0x0800080a:    683a        :h      LDR      r2,[r7,#0]
        0x0800080c:    e03a        :.      B        0x8000884 ; strftime + 588
        0x0800080e:    2109        .!      MOVS     r1,#9
        0x08000810:    f80a1006    ....    STRB     r1,[r10,r6]
        0x08000814:    1c76        v.      ADDS     r6,r6,#1
        0x08000816:    455e        ^E      CMP      r6,r11
        0x08000818:    d3b2        ..      BCC      0x8000780 ; strftime + 328
        0x0800081a:    e042        B.      B        0x80008a2 ; strftime + 618
        0x0800081c:    a806        ..      ADD      r0,sp,#0x18
        0x0800081e:    f8405024    @.$P    STR      r5,[r0,r4,LSL #2]
        0x08000822:    a548        H.      ADR      r5,{pc}+0x122 ; 0x8000944
        0x08000824:    e7ab        ..      B        0x800077e ; strftime + 326
        0x08000826:    69ba        .i      LDR      r2,[r7,#0x18]
        0x08000828:    b902        ..      CBNZ     r2,0x800082c ; strftime + 500
        0x0800082a:    2207        ."      MOVS     r2,#7
        0x0800082c:    a148        H.      ADR      r1,{pc}+0x124 ; 0x8000950
        0x0800082e:    e7aa        ..      B        0x8000786 ; strftime + 334
        0x08000830:    2100        .!      MOVS     r1,#0
        0x08000832:    e00c        ..      B        0x800084e ; strftime + 534
        0x08000834:    6978        xi      LDR      r0,[r7,#0x14]
        0x08000836:    f200706c    ..lp    ADD      r0,r0,#0x76c
        0x0800083a:    9008        ..      STR      r0,[sp,#0x20]
        0x0800083c:    e9d71206    ....    LDRD     r1,r2,[r7,#0x18]
        0x08000840:    a808        ..      ADD      r0,sp,#0x20
        0x08000842:    f7fffed9    ....    BL       _isoweek ; 0x80005f8
        0x08000846:    e006        ..      B        0x8000856 ; strftime + 542
        0x08000848:    69ba        .i      LDR      r2,[r7,#0x18]
        0x0800084a:    e7ef        ..      B        0x800082c ; strftime + 500
        0x0800084c:    2101        .!      MOVS     r1,#1
        0x0800084e:    e9d72006    ...     LDRD     r2,r0,[r7,#0x18]
        0x08000852:    f000f82e    ....    BL       _findweek ; 0x80008b2
        0x08000856:    4602        .F      MOV      r2,r0
        0x08000858:    a12c        ,.      ADR      r1,{pc}+0xb4 ; 0x800090c
        0x0800085a:    e7aa        ..      B        0x80007b2 ; strftime + 378
        0x0800085c:    a806        ..      ADD      r0,sp,#0x18
        0x0800085e:    f8405024    @.$P    STR      r5,[r0,r4,LSL #2]
        0x08000862:    f8d8101c    ....    LDR      r1,[r8,#0x1c]
        0x08000866:    e004        ..      B        0x8000872 ; strftime + 570
        0x08000868:    a806        ..      ADD      r0,sp,#0x18
        0x0800086a:    f8405024    @.$P    STR      r5,[r0,r4,LSL #2]
        0x0800086e:    f8d81020    .. .    LDR      r1,[r8,#0x20]
        0x08000872:    eb010508    ....    ADD      r5,r1,r8
        0x08000876:    e782        ..      B        0x800077e ; strftime + 326
        0x08000878:    6979        yi      LDR      r1,[r7,#0x14]
        0x0800087a:    2064        d       MOVS     r0,#0x64
        0x0800087c:    fb91f2f0    ....    SDIV     r2,r1,r0
        0x08000880:    fb001212    ....    MLS      r2,r0,r2,r1
        0x08000884:    a121        !.      ADR      r1,{pc}+0x88 ; 0x800090c
        0x08000886:    e77e        ~.      B        0x8000786 ; strftime + 334
        0x08000888:    697a        zi      LDR      r2,[r7,#0x14]
        0x0800088a:    4648        HF      MOV      r0,r9
        0x0800088c:    a128        (.      ADR      r1,{pc}+0xa4 ; 0x8000930
        0x0800088e:    f202726c    ..lr    ADD      r2,r2,#0x76c
        0x08000892:    f000f889    ....    BL       sprintf ; 0x80009a8
        0x08000896:    e006        ..      B        0x80008a6 ; strftime + 622
        0x08000898:    f80a0006    ....    STRB     r0,[r10,r6]
        0x0800089c:    1c76        v.      ADDS     r6,r6,#1
        0x0800089e:    455e        ^E      CMP      r6,r11
        0x080008a0:    d301        ..      BCC      0x80008a6 ; strftime + 622
        0x080008a2:    2000        .       MOVS     r0,#0
        0x080008a4:    e6e8        ..      B        0x8000678 ; strftime + 64
        0x080008a6:    f8190b01    ....    LDRB     r0,[r9],#1
        0x080008aa:    2800        .(      CMP      r0,#0
        0x080008ac:    f43faedf    ?...    BEQ      0x800066e ; strftime + 54
        0x080008b0:    e7f2        ..      B        0x8000898 ; strftime + 608
    _findweek
        0x080008b2:    1a51        Q.      SUBS     r1,r2,r1
        0x080008b4:    d500        ..      BPL      0x80008b8 ; _findweek + 6
        0x080008b6:    1dc9        ..      ADDS     r1,r1,#7
        0x080008b8:    1a40        @.      SUBS     r0,r0,r1
        0x080008ba:    d501        ..      BPL      0x80008c0 ; _findweek + 14
        0x080008bc:    2000        .       MOVS     r0,#0
        0x080008be:    4770        pG      BX       lr
        0x080008c0:    2107        .!      MOVS     r1,#7
        0x080008c2:    fb90f0f1    ....    SDIV     r0,r0,r1
        0x080008c6:    1c40        @.      ADDS     r0,r0,#1
        0x080008c8:    4770        pG      BX       lr
    _yeardays
        0x080008ca:    0781        ..      LSLS     r1,r0,#30
        0x080008cc:    d10c        ..      BNE      0x80008e8 ; _yeardays + 30
        0x080008ce:    2164        d!      MOVS     r1,#0x64
        0x080008d0:    fb90f2f1    ....    SDIV     r2,r0,r1
        0x080008d4:    fb010112    ....    MLS      r1,r1,r2,r0
        0x080008d8:    b951        Q.      CBNZ     r1,0x80008f0 ; _yeardays + 38
        0x080008da:    f44f71c8    O..q    MOV      r1,#0x190
        0x080008de:    fb90f2f1    ....    SDIV     r2,r0,r1
        0x080008e2:    fb010012    ....    MLS      r0,r1,r2,r0
        0x080008e6:    b118        ..      CBZ      r0,0x80008f0 ; _yeardays + 38
        0x080008e8:    2000        .       MOVS     r0,#0
        0x080008ea:    f200106d    ..m.    ADD      r0,r0,#0x16d
        0x080008ee:    4770        pG      BX       lr
        0x080008f0:    2001        .       MOVS     r0,#1
        0x080008f2:    e7fa        ..      B        0x80008ea ; _yeardays + 32
    _weekbasedyear
        0x080008f4:    b508        ..      PUSH     {r3,lr}
        0x080008f6:    6941        Ai      LDR      r1,[r0,#0x14]
        0x080008f8:    f201716c    ..lq    ADD      r1,r1,#0x76c
        0x080008fc:    9100        ..      STR      r1,[sp,#0]
        0x080008fe:    e9d01206    ....    LDRD     r1,r2,[r0,#0x18]
        0x08000902:    4668        hF      MOV      r0,sp
        0x08000904:    f7fffe78    ..x.    BL       _isoweek ; 0x80005f8
        0x08000908:    9800        ..      LDR      r0,[sp,#0]
        0x0800090a:    bd08        ..      POP      {r3,pc}
    $d
        0x0800090c:    64322e25    %.2d    DCD    1681010213
        0x08000910:    00000000    ....    DCD    0
        0x08000914:    252f6d25    %m/%    DCD    623865125
        0x08000918:    79252f64    d/%y    DCD    2032480100
        0x0800091c:    00000000    ....    DCD    0
        0x08000920:    00643225    %2d.    DCD    6566437
        0x08000924:    252d5925    %Y-%    DCD    623728933
        0x08000928:    64252d6d    m-%d    DCD    1680158061
        0x0800092c:    00000000    ....    DCD    0
        0x08000930:    00006425    %d..    DCD    25637
        0x08000934:    64332e25    %.3d    DCD    1681075749
        0x08000938:    00000000    ....    DCD    0
        0x0800093c:    253a4825    %H:%    DCD    624576549
        0x08000940:    0000004d    M...    DCD    77
        0x08000944:    253a4825    %H:%    DCD    624576549
        0x08000948:    53253a4d    M:%S    DCD    1394948685
        0x0800094c:    00000000    ....    DCD    0
        0x08000950:    64312e25    %.1d    DCD    1680944677
        0x08000954:    00000000    ....    DCD    0
    $t
    .text
    __use_two_region_memory
        0x08000958:    4770        pG      BX       lr
    __rt_heap_escrow
        0x0800095a:    4770        pG      BX       lr
    __rt_heap_expand
        0x0800095c:    4770        pG      BX       lr
        0x0800095e:    0000        ..      MOVS     r0,r0
    .text
    __cpp_initialize__aeabi_
        0x08000960:    b570        p.      PUSH     {r4-r6,lr}
        0x08000962:    4c06        .L      LDR      r4,[pc,#24] ; [0x800097c] = 0x7ee0
        0x08000964:    447c        |D      ADD      r4,r4,pc
        0x08000966:    4d06        .M      LDR      r5,[pc,#24] ; [0x8000980] = 0x7ee0
        0x08000968:    447d        }D      ADD      r5,r5,pc
        0x0800096a:    e004        ..      B        0x8000976 ; __cpp_initialize__aeabi_ + 22
        0x0800096c:    4620         F      MOV      r0,r4
        0x0800096e:    6801        .h      LDR      r1,[r0,#0]
        0x08000970:    4408        .D      ADD      r0,r0,r1
        0x08000972:    4780        .G      BLX      r0
        0x08000974:    1d24        $.      ADDS     r4,r4,#4
        0x08000976:    42ac        .B      CMP      r4,r5
        0x08000978:    d1f8        ..      BNE      0x800096c ; __cpp_initialize__aeabi_ + 12
        0x0800097a:    bd70        p.      POP      {r4-r6,pc}
    $d
        0x0800097c:    00007ee0    .~..    DCD    32480
        0x08000980:    00007ee0    .~..    DCD    32480
    $t
    .text
    __I$use$semihosting
    __use_no_semihosting_swi
        0x08000984:    4770        pG      BX       lr
    .text
    __semihosting_library_function
        0x08000986:    0000        ..      MOVS     r0,r0
    .text
    __rt_locale
        0x08000988:    4800        .H      LDR      r0,[pc,#0] ; [0x800098c] = 0x200002b0
        0x0800098a:    4770        pG      BX       lr
    $d
        0x0800098c:    200002b0    ...     DCD    536871600
    $t
    .text
    __read_errno
        0x08000990:    b510        ..      PUSH     {r4,lr}
        0x08000992:    f000fd37    ..7.    BL       __aeabi_errno_addr ; 0x8001404
        0x08000996:    6800        .h      LDR      r0,[r0,#0]
        0x08000998:    bd10        ..      POP      {r4,pc}
    __set_errno
        0x0800099a:    b510        ..      PUSH     {r4,lr}
        0x0800099c:    4604        .F      MOV      r4,r0
        0x0800099e:    f000fd31    ..1.    BL       __aeabi_errno_addr ; 0x8001404
        0x080009a2:    6004        .`      STR      r4,[r0,#0]
        0x080009a4:    bd10        ..      POP      {r4,pc}
        0x080009a6:    0000        ..      MOVS     r0,r0
    .text
    sprintf
        0x080009a8:    b40f        ..      PUSH     {r0-r3}
        0x080009aa:    b51c        ..      PUSH     {r2-r4,lr}
        0x080009ac:    4b08        .K      LDR      r3,[pc,#32] ; [0x80009d0] = 0x1389
        0x080009ae:    aa06        ..      ADD      r2,sp,#0x18
        0x080009b0:    447b        {D      ADD      r3,r3,pc
        0x080009b2:    4669        iF      MOV      r1,sp
        0x080009b4:    9000        ..      STR      r0,[sp,#0]
        0x080009b6:    9805        ..      LDR      r0,[sp,#0x14]
        0x080009b8:    f001f9ad    ....    BL       _printf_char_common ; 0x8001d16
        0x080009bc:    4604        .F      MOV      r4,r0
        0x080009be:    2000        .       MOVS     r0,#0
        0x080009c0:    4669        iF      MOV      r1,sp
        0x080009c2:    f001f9bb    ....    BL       _sputc ; 0x8001d3c
        0x080009c6:    4620         F      MOV      r0,r4
        0x080009c8:    bc1c        ..      POP      {r2-r4}
        0x080009ca:    f85dfb14    ]...    LDR      pc,[sp],#0x14
    $d
        0x080009ce:    0000        ..      DCW    0
        0x080009d0:    00001389    ....    DCD    5001
    $t
    .text
    _printf_pre_padding
        0x080009d4:    b570        p.      PUSH     {r4-r6,lr}
        0x080009d6:    4604        .F      MOV      r4,r0
        0x080009d8:    6985        .i      LDR      r5,[r0,#0x18]
        0x080009da:    6800        .h      LDR      r0,[r0,#0]
        0x080009dc:    06c1        ..      LSLS     r1,r0,#27
        0x080009de:    d501        ..      BPL      0x80009e4 ; _printf_pre_padding + 16
        0x080009e0:    2630        0&      MOVS     r6,#0x30
        0x080009e2:    e000        ..      B        0x80009e6 ; _printf_pre_padding + 18
        0x080009e4:    2620         &      MOVS     r6,#0x20
        0x080009e6:    07c0        ..      LSLS     r0,r0,#31
        0x080009e8:    d007        ..      BEQ      0x80009fa ; _printf_pre_padding + 38
        0x080009ea:    bd70        p.      POP      {r4-r6,pc}
        0x080009ec:    e9d42101    ...!    LDRD     r2,r1,[r4,#4]
        0x080009f0:    4630        0F      MOV      r0,r6
        0x080009f2:    4790        .G      BLX      r2
        0x080009f4:    6a20         j      LDR      r0,[r4,#0x20]
        0x080009f6:    1c40        @.      ADDS     r0,r0,#1
        0x080009f8:    6220         b      STR      r0,[r4,#0x20]
        0x080009fa:    1e6d        m.      SUBS     r5,r5,#1
        0x080009fc:    d5f6        ..      BPL      0x80009ec ; _printf_pre_padding + 24
        0x080009fe:    bd70        p.      POP      {r4-r6,pc}
    _printf_post_padding
        0x08000a00:    b570        p.      PUSH     {r4-r6,lr}
        0x08000a02:    4604        .F      MOV      r4,r0
        0x08000a04:    6985        .i      LDR      r5,[r0,#0x18]
        0x08000a06:    7800        .x      LDRB     r0,[r0,#0]
        0x08000a08:    07c0        ..      LSLS     r0,r0,#31
        0x08000a0a:    d107        ..      BNE      0x8000a1c ; _printf_post_padding + 28
        0x08000a0c:    bd70        p.      POP      {r4-r6,pc}
        0x08000a0e:    e9d42101    ...!    LDRD     r2,r1,[r4,#4]
        0x08000a12:    2020                MOVS     r0,#0x20
        0x08000a14:    4790        .G      BLX      r2
        0x08000a16:    6a20         j      LDR      r0,[r4,#0x20]
        0x08000a18:    1c40        @.      ADDS     r0,r0,#1
        0x08000a1a:    6220         b      STR      r0,[r4,#0x20]
        0x08000a1c:    1e6d        m.      SUBS     r5,r5,#1
        0x08000a1e:    d5f6        ..      BPL      0x8000a0e ; _printf_post_padding + 14
        0x08000a20:    bd70        p.      POP      {r4-r6,pc}
    .text
    _printf_truncate_signed
        0x08000a22:    6809        .h      LDR      r1,[r1,#0]
        0x08000a24:    054a        J.      LSLS     r2,r1,#21
        0x08000a26:    d501        ..      BPL      0x8000a2c ; _printf_truncate_signed + 10
        0x08000a28:    b240        @.      SXTB     r0,r0
        0x08000a2a:    4770        pG      BX       lr
        0x08000a2c:    05c9        ..      LSLS     r1,r1,#23
        0x08000a2e:    d5fc        ..      BPL      0x8000a2a ; _printf_truncate_signed + 8
        0x08000a30:    b200        ..      SXTH     r0,r0
        0x08000a32:    4770        pG      BX       lr
    _printf_truncate_unsigned
        0x08000a34:    6809        .h      LDR      r1,[r1,#0]
        0x08000a36:    054a        J.      LSLS     r2,r1,#21
        0x08000a38:    d501        ..      BPL      0x8000a3e ; _printf_truncate_unsigned + 10
        0x08000a3a:    b2c0        ..      UXTB     r0,r0
        0x08000a3c:    4770        pG      BX       lr
        0x08000a3e:    05c9        ..      LSLS     r1,r1,#23
        0x08000a40:    d5fc        ..      BPL      0x8000a3c ; _printf_truncate_unsigned + 8
        0x08000a42:    b280        ..      UXTH     r0,r0
        0x08000a44:    4770        pG      BX       lr
    .text
    _printf_str
        0x08000a46:    b570        p.      PUSH     {r4-r6,lr}
        0x08000a48:    460c        .F      MOV      r4,r1
        0x08000a4a:    4605        .F      MOV      r5,r0
        0x08000a4c:    2a01        .*      CMP      r2,#1
        0x08000a4e:    d005        ..      BEQ      0x8000a5c ; _printf_str + 22
        0x08000a50:    7828        (x      LDRB     r0,[r5,#0]
        0x08000a52:    0680        ..      LSLS     r0,r0,#26
        0x08000a54:    d500        ..      BPL      0x8000a58 ; _printf_str + 18
        0x08000a56:    69ea        .i      LDR      r2,[r5,#0x1c]
        0x08000a58:    2300        .#      MOVS     r3,#0
        0x08000a5a:    e002        ..      B        0x8000a62 ; _printf_str + 28
        0x08000a5c:    2301        .#      MOVS     r3,#1
        0x08000a5e:    e005        ..      B        0x8000a6c ; _printf_str + 38
        0x08000a60:    1c5b        [.      ADDS     r3,r3,#1
        0x08000a62:    4293        .B      CMP      r3,r2
        0x08000a64:    d202        ..      BCS      0x8000a6c ; _printf_str + 38
        0x08000a66:    5ce0        .\      LDRB     r0,[r4,r3]
        0x08000a68:    2800        .(      CMP      r0,#0
        0x08000a6a:    d1f9        ..      BNE      0x8000a60 ; _printf_str + 26
        0x08000a6c:    69a8        .i      LDR      r0,[r5,#0x18]
        0x08000a6e:    18e6        ..      ADDS     r6,r4,r3
        0x08000a70:    1ac0        ..      SUBS     r0,r0,r3
        0x08000a72:    61a8        .a      STR      r0,[r5,#0x18]
        0x08000a74:    6a28        (j      LDR      r0,[r5,#0x20]
        0x08000a76:    4418        .D      ADD      r0,r0,r3
        0x08000a78:    6228        (b      STR      r0,[r5,#0x20]
        0x08000a7a:    4628        (F      MOV      r0,r5
        0x08000a7c:    f7ffffaa    ....    BL       _printf_pre_padding ; 0x80009d4
        0x08000a80:    e004        ..      B        0x8000a8c ; _printf_str + 70
        0x08000a82:    e9d52101    ...!    LDRD     r2,r1,[r5,#4]
        0x08000a86:    f8140b01    ....    LDRB     r0,[r4],#1
        0x08000a8a:    4790        .G      BLX      r2
        0x08000a8c:    42b4        .B      CMP      r4,r6
        0x08000a8e:    d3f8        ..      BCC      0x8000a82 ; _printf_str + 60
        0x08000a90:    4628        (F      MOV      r0,r5
        0x08000a92:    f7ffffb5    ....    BL       _printf_post_padding ; 0x8000a00
        0x08000a96:    bd70        p.      POP      {r4-r6,pc}
    .text
    _printf_int_dec
        0x08000a98:    e92d41f0    -..A    PUSH     {r4-r8,lr}
        0x08000a9c:    4606        .F      MOV      r6,r0
        0x08000a9e:    2400        .$      MOVS     r4,#0
        0x08000aa0:    6810        .h      LDR      r0,[r2,#0]
        0x08000aa2:    2975        u)      CMP      r1,#0x75
        0x08000aa4:    4631        1F      MOV      r1,r6
        0x08000aa6:    a516        ..      ADR      r5,{pc}+0x5a ; 0x8000b00
        0x08000aa8:    d010        ..      BEQ      0x8000acc ; _printf_int_dec + 52
        0x08000aaa:    f7ffffba    ....    BL       _printf_truncate_signed ; 0x8000a22
        0x08000aae:    2800        .(      CMP      r0,#0
        0x08000ab0:    da02        ..      BGE      0x8000ab8 ; _printf_int_dec + 32
        0x08000ab2:    4240        @B      RSBS     r0,r0,#0
        0x08000ab4:    a513        ..      ADR      r5,{pc}+0x50 ; 0x8000b04
        0x08000ab6:    e007        ..      B        0x8000ac8 ; _printf_int_dec + 48
        0x08000ab8:    6831        1h      LDR      r1,[r6,#0]
        0x08000aba:    078a        ..      LSLS     r2,r1,#30
        0x08000abc:    d501        ..      BPL      0x8000ac2 ; _printf_int_dec + 42
        0x08000abe:    a512        ..      ADR      r5,{pc}+0x4a ; 0x8000b08
        0x08000ac0:    e002        ..      B        0x8000ac8 ; _printf_int_dec + 48
        0x08000ac2:    0749        I.      LSLS     r1,r1,#29
        0x08000ac4:    d504        ..      BPL      0x8000ad0 ; _printf_int_dec + 56
        0x08000ac6:    a511        ..      ADR      r5,{pc}+0x46 ; 0x8000b0c
        0x08000ac8:    2401        .$      MOVS     r4,#1
        0x08000aca:    e001        ..      B        0x8000ad0 ; _printf_int_dec + 56
        0x08000acc:    f7ffffb2    ....    BL       _printf_truncate_unsigned ; 0x8000a34
        0x08000ad0:    2100        .!      MOVS     r1,#0
        0x08000ad2:    220a        ."      MOVS     r2,#0xa
        0x08000ad4:    f1060724    ..$.    ADD      r7,r6,#0x24
        0x08000ad8:    e009        ..      B        0x8000aee ; _printf_int_dec + 86
        0x08000ada:    fbb0fcf2    ....    UDIV     r12,r0,r2
        0x08000ade:    fbb0f3f2    ....    UDIV     r3,r0,r2
        0x08000ae2:    fb02001c    ....    MLS      r0,r2,r12,r0
        0x08000ae6:    3030        00      ADDS     r0,r0,#0x30
        0x08000ae8:    5478        xT      STRB     r0,[r7,r1]
        0x08000aea:    4618        .F      MOV      r0,r3
        0x08000aec:    1c49        I.      ADDS     r1,r1,#1
        0x08000aee:    2800        .(      CMP      r0,#0
        0x08000af0:    d1f3        ..      BNE      0x8000ada ; _printf_int_dec + 66
        0x08000af2:    4623        #F      MOV      r3,r4
        0x08000af4:    462a        *F      MOV      r2,r5
        0x08000af6:    4630        0F      MOV      r0,r6
        0x08000af8:    e8bd41f0    ...A    POP      {r4-r8,lr}
        0x08000afc:    f000bd21    ..!.    B.W      _printf_int_common ; 0x8001542
    $d
        0x08000b00:    00000000    ....    DCD    0
        0x08000b04:    0000002d    -...    DCD    45
        0x08000b08:    0000002b    +...    DCD    43
        0x08000b0c:    00000020     ...    DCD    32
    $t
    .text
    _printf_charcount
        0x08000b10:    6811        .h      LDR      r1,[r2,#0]
        0x08000b12:    6802        .h      LDR      r2,[r0,#0]
        0x08000b14:    6a00        .j      LDR      r0,[r0,#0x20]
        0x08000b16:    0553        S.      LSLS     r3,r2,#21
        0x08000b18:    d501        ..      BPL      0x8000b1e ; _printf_charcount + 14
        0x08000b1a:    7008        .p      STRB     r0,[r1,#0]
        0x08000b1c:    e00a        ..      B        0x8000b34 ; _printf_charcount + 36
        0x08000b1e:    05d3        ..      LSLS     r3,r2,#23
        0x08000b20:    d501        ..      BPL      0x8000b26 ; _printf_charcount + 22
        0x08000b22:    8008        ..      STRH     r0,[r1,#0]
        0x08000b24:    e006        ..      B        0x8000b34 ; _printf_charcount + 36
        0x08000b26:    0613        ..      LSLS     r3,r2,#24
        0x08000b28:    d503        ..      BPL      0x8000b32 ; _printf_charcount + 34
        0x08000b2a:    17c2        ..      ASRS     r2,r0,#31
        0x08000b2c:    e9c10200    ....    STRD     r0,r2,[r1,#0]
        0x08000b30:    e000        ..      B        0x8000b34 ; _printf_charcount + 36
        0x08000b32:    6008        .`      STR      r0,[r1,#0]
        0x08000b34:    2001        .       MOVS     r0,#1
        0x08000b36:    4770        pG      BX       lr
    .text
    _printf_char_file
        0x08000b38:    4b07        .K      LDR      r3,[pc,#28] ; [0x8000b58] = 0x4c77
        0x08000b3a:    b570        p.      PUSH     {r4-r6,lr}
        0x08000b3c:    460d        .F      MOV      r5,r1
        0x08000b3e:    447b        {D      ADD      r3,r3,pc
        0x08000b40:    f001f8e9    ....    BL       _printf_char_common ; 0x8001d16
        0x08000b44:    4604        .F      MOV      r4,r0
        0x08000b46:    4628        (F      MOV      r0,r5
        0x08000b48:    f001f929    ..).    BL       ferror ; 0x8001d9e
        0x08000b4c:    b110        ..      CBZ      r0,0x8000b54 ; _printf_char_file + 28
        0x08000b4e:    f04f30ff    O..0    MOV      r0,#0xffffffff
        0x08000b52:    bd70        p.      POP      {r4-r6,pc}
        0x08000b54:    4620         F      MOV      r0,r4
        0x08000b56:    bd70        p.      POP      {r4-r6,pc}
    $d
        0x08000b58:    00004c77    wL..    DCD    19575
    $t
    .text
    _printf_wctomb
        0x08000b5c:    e92d5fff    -.._    PUSH     {r0-r12,lr}
        0x08000b60:    4615        .F      MOV      r5,r2
        0x08000b62:    468a        .F      MOV      r10,r1
        0x08000b64:    4604        .F      MOV      r4,r0
        0x08000b66:    f8df80ac    ....    LDR      r8,[pc,#172] ; [0x8000c14] = 0x7296
        0x08000b6a:    44f8        .D      ADD      r8,r8,pc
        0x08000b6c:    2700        .'      MOVS     r7,#0
        0x08000b6e:    e9d81000    ....    LDRD     r1,r0,[r8,#0]
        0x08000b72:    463e        >F      MOV      r6,r7
        0x08000b74:    e9cd1000    ....    STRD     r1,r0,[sp,#0]
        0x08000b78:    e010        ..      B        0x8000b9c ; _printf_wctomb + 64
        0x08000b7a:    f83a1016    :...    LDRH     r1,[r10,r6,LSL #1]
        0x08000b7e:    466a        jF      MOV      r2,sp
        0x08000b80:    a802        ..      ADD      r0,sp,#8
        0x08000b82:    f001f9f3    ....    BL       _c16rtomb ; 0x8001f6c
        0x08000b86:    1c41        A.      ADDS     r1,r0,#1
        0x08000b88:    d007        ..      BEQ      0x8000b9a ; _printf_wctomb + 62
        0x08000b8a:    7821        !x      LDRB     r1,[r4,#0]
        0x08000b8c:    0689        ..      LSLS     r1,r1,#26
        0x08000b8e:    d503        ..      BPL      0x8000b98 ; _printf_wctomb + 60
        0x08000b90:    69e2        .i      LDR      r2,[r4,#0x1c]
        0x08000b92:    1839        9.      ADDS     r1,r7,r0
        0x08000b94:    4291        .B      CMP      r1,r2
        0x08000b96:    d80d        ..      BHI      0x8000bb4 ; _printf_wctomb + 88
        0x08000b98:    4407        .D      ADD      r7,r7,r0
        0x08000b9a:    1c76        v.      ADDS     r6,r6,#1
        0x08000b9c:    7820         x      LDRB     r0,[r4,#0]
        0x08000b9e:    0680        ..      LSLS     r0,r0,#26
        0x08000ba0:    d502        ..      BPL      0x8000ba8 ; _printf_wctomb + 76
        0x08000ba2:    69e0        .i      LDR      r0,[r4,#0x1c]
        0x08000ba4:    42b8        .B      CMP      r0,r7
        0x08000ba6:    dd05        ..      BLE      0x8000bb4 ; _printf_wctomb + 88
        0x08000ba8:    42ae        .B      CMP      r6,r5
        0x08000baa:    dbe6        ..      BLT      0x8000b7a ; _printf_wctomb + 30
        0x08000bac:    f83a0016    :...    LDRH     r0,[r10,r6,LSL #1]
        0x08000bb0:    2800        .(      CMP      r0,#0
        0x08000bb2:    d1e2        ..      BNE      0x8000b7a ; _printf_wctomb + 30
        0x08000bb4:    69a0        .i      LDR      r0,[r4,#0x18]
        0x08000bb6:    1bc0        ..      SUBS     r0,r0,r7
        0x08000bb8:    61a0        .a      STR      r0,[r4,#0x18]
        0x08000bba:    4620         F      MOV      r0,r4
        0x08000bbc:    f7ffff0a    ....    BL       _printf_pre_padding ; 0x80009d4
        0x08000bc0:    e9d81000    ....    LDRD     r1,r0,[r8,#0]
        0x08000bc4:    e9cd1000    ....    STRD     r1,r0,[sp,#0]
        0x08000bc8:    2000        .       MOVS     r0,#0
        0x08000bca:    e017        ..      B        0x8000bfc ; _printf_wctomb + 160
        0x08000bcc:    f83a1018    :...    LDRH     r1,[r10,r8,LSL #1]
        0x08000bd0:    466a        jF      MOV      r2,sp
        0x08000bd2:    a802        ..      ADD      r0,sp,#8
        0x08000bd4:    f001f9ca    ....    BL       _c16rtomb ; 0x8001f6c
        0x08000bd8:    f1b03fff    ...?    CMP      r0,#0xffffffff
        0x08000bdc:    4681        .F      MOV      r9,r0
        0x08000bde:    d00b        ..      BEQ      0x8000bf8 ; _printf_wctomb + 156
        0x08000be0:    2500        .%      MOVS     r5,#0
        0x08000be2:    f10d0b08    ....    ADD      r11,sp,#8
        0x08000be6:    e005        ..      B        0x8000bf4 ; _printf_wctomb + 152
        0x08000be8:    e9d42101    ...!    LDRD     r2,r1,[r4,#4]
        0x08000bec:    f81b0005    ....    LDRB     r0,[r11,r5]
        0x08000bf0:    4790        .G      BLX      r2
        0x08000bf2:    1c6d        m.      ADDS     r5,r5,#1
        0x08000bf4:    454d        ME      CMP      r5,r9
        0x08000bf6:    d3f7        ..      BCC      0x8000be8 ; _printf_wctomb + 140
        0x08000bf8:    f1080001    ....    ADD      r0,r8,#1
        0x08000bfc:    42b0        .B      CMP      r0,r6
        0x08000bfe:    4680        .F      MOV      r8,r0
        0x08000c00:    dbe4        ..      BLT      0x8000bcc ; _printf_wctomb + 112
        0x08000c02:    6a20         j      LDR      r0,[r4,#0x20]
        0x08000c04:    4438        8D      ADD      r0,r0,r7
        0x08000c06:    6220         b      STR      r0,[r4,#0x20]
        0x08000c08:    4620         F      MOV      r0,r4
        0x08000c0a:    f7fffef9    ....    BL       _printf_post_padding ; 0x8000a00
        0x08000c0e:    e8bd9fff    ....    POP      {r0-r12,pc}
    $d
        0x08000c12:    0000        ..      DCW    0
        0x08000c14:    00007296    .r..    DCD    29334
    $t
    .text
    _printf_longlong_dec
        0x08000c18:    e92d41f0    -..A    PUSH     {r4-r8,lr}
        0x08000c1c:    4680        .F      MOV      r8,r0
        0x08000c1e:    1dd2        ..      ADDS     r2,r2,#7
        0x08000c20:    f0220207    "...    BIC      r2,r2,#7
        0x08000c24:    2500        .%      MOVS     r5,#0
        0x08000c26:    e9d20200    ....    LDRD     r0,r2,[r2,#0]
        0x08000c2a:    29f5        .)      CMP      r1,#0xf5
        0x08000c2c:    a615        ..      ADR      r6,{pc}+0x58 ; 0x8000c84
        0x08000c2e:    d014        ..      BEQ      0x8000c5a ; _printf_longlong_dec + 66
        0x08000c30:    1e01        ..      SUBS     r1,r0,#0
        0x08000c32:    f1720100    r...    SBCS     r1,r2,#0
        0x08000c36:    da06        ..      BGE      0x8000c46 ; _printf_longlong_dec + 46
        0x08000c38:    2300        .#      MOVS     r3,#0
        0x08000c3a:    ebd00003    ....    RSBS     r0,r0,r3
        0x08000c3e:    eb630202    c...    SBC      r2,r3,r2
        0x08000c42:    a611        ..      ADR      r6,{pc}+0x46 ; 0x8000c88
        0x08000c44:    e008        ..      B        0x8000c58 ; _printf_longlong_dec + 64
        0x08000c46:    f8d81000    ....    LDR      r1,[r8,#0]
        0x08000c4a:    078b        ..      LSLS     r3,r1,#30
        0x08000c4c:    d501        ..      BPL      0x8000c52 ; _printf_longlong_dec + 58
        0x08000c4e:    a60f        ..      ADR      r6,{pc}+0x3e ; 0x8000c8c
        0x08000c50:    e002        ..      B        0x8000c58 ; _printf_longlong_dec + 64
        0x08000c52:    0749        I.      LSLS     r1,r1,#29
        0x08000c54:    d501        ..      BPL      0x8000c5a ; _printf_longlong_dec + 66
        0x08000c56:    a60e        ..      ADR      r6,{pc}+0x3a ; 0x8000c90
        0x08000c58:    2501        .%      MOVS     r5,#1
        0x08000c5a:    4611        .F      MOV      r1,r2
        0x08000c5c:    2400        .$      MOVS     r4,#0
        0x08000c5e:    f1080724    ..$.    ADD      r7,r8,#0x24
        0x08000c62:    e004        ..      B        0x8000c6e ; _printf_longlong_dec + 86
        0x08000c64:    f000fc28    ..(.    BL       _ll_udiv10 ; 0x80014b8
        0x08000c68:    3230        02      ADDS     r2,r2,#0x30
        0x08000c6a:    553a        :U      STRB     r2,[r7,r4]
        0x08000c6c:    1c64        d.      ADDS     r4,r4,#1
        0x08000c6e:    ea500201    P...    ORRS     r2,r0,r1
        0x08000c72:    d1f7        ..      BNE      0x8000c64 ; _printf_longlong_dec + 76
        0x08000c74:    462b        +F      MOV      r3,r5
        0x08000c76:    4632        2F      MOV      r2,r6
        0x08000c78:    4621        !F      MOV      r1,r4
        0x08000c7a:    4640        @F      MOV      r0,r8
        0x08000c7c:    e8bd41f0    ...A    POP      {r4-r8,lr}
        0x08000c80:    f000bc5f    .._.    B.W      _printf_int_common ; 0x8001542
    $d
        0x08000c84:    00000000    ....    DCD    0
        0x08000c88:    0000002d    -...    DCD    45
        0x08000c8c:    0000002b    +...    DCD    43
        0x08000c90:    00000020     ...    DCD    32
    $t
    .text
    _printf_longlong_oct_internal
    _printf_longlong_oct
        0x08000c94:    b430        0.      PUSH     {r4,r5}
        0x08000c96:    2100        .!      MOVS     r1,#0
        0x08000c98:    f1000424    ..$.    ADD      r4,r0,#0x24
        0x08000c9c:    e008        ..      B        0x8000cb0 ; _printf_longlong_oct_internal + 28
        0x08000c9e:    f0020507    ....    AND      r5,r2,#7
        0x08000ca2:    08d2        ..      LSRS     r2,r2,#3
        0x08000ca4:    3530        05      ADDS     r5,r5,#0x30
        0x08000ca6:    ea427243    B.Cr    ORR      r2,r2,r3,LSL #29
        0x08000caa:    08db        ..      LSRS     r3,r3,#3
        0x08000cac:    5465        eT      STRB     r5,[r4,r1]
        0x08000cae:    1c49        I.      ADDS     r1,r1,#1
        0x08000cb0:    ea520503    R...    ORRS     r5,r2,r3
        0x08000cb4:    d1f3        ..      BNE      0x8000c9e ; _printf_longlong_oct_internal + 10
        0x08000cb6:    6804        .h      LDR      r4,[r0,#0]
        0x08000cb8:    2300        .#      MOVS     r3,#0
        0x08000cba:    a210        ..      ADR      r2,{pc}+0x42 ; 0x8000cfc
        0x08000cbc:    0725        %.      LSLS     r5,r4,#28
        0x08000cbe:    d508        ..      BPL      0x8000cd2 ; _printf_longlong_oct_internal + 62
        0x08000cc0:    f0040420    .. .    AND      r4,r4,#0x20
        0x08000cc4:    430c        .C      ORRS     r4,r4,r1
        0x08000cc6:    d004        ..      BEQ      0x8000cd2 ; _printf_longlong_oct_internal + 62
        0x08000cc8:    69c4        .i      LDR      r4,[r0,#0x1c]
        0x08000cca:    2301        .#      MOVS     r3,#1
        0x08000ccc:    a20c        ..      ADR      r2,{pc}+0x34 ; 0x8000d00
        0x08000cce:    1e64        d.      SUBS     r4,r4,#1
        0x08000cd0:    61c4        .a      STR      r4,[r0,#0x1c]
        0x08000cd2:    bc30        0.      POP      {r4,r5}
        0x08000cd4:    f000bc35    ..5.    B.W      _printf_int_common ; 0x8001542
    _printf_int_oct
        0x08000cd8:    b510        ..      PUSH     {r4,lr}
        0x08000cda:    4604        .F      MOV      r4,r0
        0x08000cdc:    4621        !F      MOV      r1,r4
        0x08000cde:    6810        .h      LDR      r0,[r2,#0]
        0x08000ce0:    f7fffea8    ....    BL       _printf_truncate_unsigned ; 0x8000a34
        0x08000ce4:    4602        .F      MOV      r2,r0
        0x08000ce6:    4620         F      MOV      r0,r4
        0x08000ce8:    e8bd4010    ...@    POP      {r4,lr}
        0x08000cec:    2300        .#      MOVS     r3,#0
        0x08000cee:    e7d1        ..      B        _printf_longlong_oct_internal ; 0x8000c94
    _printf_ll_oct
        0x08000cf0:    1dd2        ..      ADDS     r2,r2,#7
        0x08000cf2:    f0220107    "...    BIC      r1,r2,#7
        0x08000cf6:    e9d12300    ...#    LDRD     r2,r3,[r1,#0]
        0x08000cfa:    e7cb        ..      B        _printf_longlong_oct_internal ; 0x8000c94
    $d
        0x08000cfc:    00000000    ....    DCD    0
        0x08000d00:    00000030    0...    DCD    48
    $t
    .text
    _printf_hex_common
    _printf_longlong_hex
        0x08000d04:    b4f0        ..      PUSH     {r4-r7}
        0x08000d06:    460d        .F      MOV      r5,r1
        0x08000d08:    8801        ..      LDRH     r1,[r0,#0]
        0x08000d0a:    0509        ..      LSLS     r1,r1,#20
        0x08000d0c:    d502        ..      BPL      0x8000d14 ; _printf_hex_common + 16
        0x08000d0e:    4c21        !L      LDR      r4,[pc,#132] ; [0x8000d94] = 0x70f8
        0x08000d10:    447c        |D      ADD      r4,r4,pc
        0x08000d12:    e002        ..      B        0x8000d1a ; _printf_hex_common + 22
        0x08000d14:    4c1f        .L      LDR      r4,[pc,#124] ; [0x8000d94] = 0x70f8
        0x08000d16:    447c        |D      ADD      r4,r4,pc
        0x08000d18:    340e        .4      ADDS     r4,r4,#0xe
        0x08000d1a:    2100        .!      MOVS     r1,#0
        0x08000d1c:    f1000624    ..$.    ADD      r6,r0,#0x24
        0x08000d20:    e008        ..      B        0x8000d34 ; _printf_hex_common + 48
        0x08000d22:    f002070f    ....    AND      r7,r2,#0xf
        0x08000d26:    0912        ..      LSRS     r2,r2,#4
        0x08000d28:    5de7        .]      LDRB     r7,[r4,r7]
        0x08000d2a:    ea427203    B..r    ORR      r2,r2,r3,LSL #28
        0x08000d2e:    091b        ..      LSRS     r3,r3,#4
        0x08000d30:    5477        wT      STRB     r7,[r6,r1]
        0x08000d32:    1c49        I.      ADDS     r1,r1,#1
        0x08000d34:    ea520703    R...    ORRS     r7,r2,r3
        0x08000d38:    d1f3        ..      BNE      0x8000d22 ; _printf_hex_common + 30
        0x08000d3a:    7802        .x      LDRB     r2,[r0,#0]
        0x08000d3c:    2300        .#      MOVS     r3,#0
        0x08000d3e:    0712        ..      LSLS     r2,r2,#28
        0x08000d40:    d504        ..      BPL      0x8000d4c ; _printf_hex_common + 72
        0x08000d42:    2d70        p-      CMP      r5,#0x70
        0x08000d44:    d006        ..      BEQ      0x8000d54 ; _printf_hex_common + 80
        0x08000d46:    b109        ..      CBZ      r1,0x8000d4c ; _printf_hex_common + 72
        0x08000d48:    2302        .#      MOVS     r3,#2
        0x08000d4a:    3411        .4      ADDS     r4,r4,#0x11
        0x08000d4c:    4622        "F      MOV      r2,r4
        0x08000d4e:    bcf0        ..      POP      {r4-r7}
        0x08000d50:    f000bbf7    ....    B.W      _printf_int_common ; 0x8001542
        0x08000d54:    2301        .#      MOVS     r3,#1
        0x08000d56:    3410        .4      ADDS     r4,r4,#0x10
        0x08000d58:    e7f8        ..      B        0x8000d4c ; _printf_hex_common + 72
    _printf_int_hex
        0x08000d5a:    b570        p.      PUSH     {r4-r6,lr}
        0x08000d5c:    4604        .F      MOV      r4,r0
        0x08000d5e:    460d        .F      MOV      r5,r1
        0x08000d60:    4621        !F      MOV      r1,r4
        0x08000d62:    6810        .h      LDR      r0,[r2,#0]
        0x08000d64:    f7fffe66    ..f.    BL       _printf_truncate_unsigned ; 0x8000a34
        0x08000d68:    4602        .F      MOV      r2,r0
        0x08000d6a:    4629        )F      MOV      r1,r5
        0x08000d6c:    4620         F      MOV      r0,r4
        0x08000d6e:    e8bd4070    ..p@    POP      {r4-r6,lr}
        0x08000d72:    2300        .#      MOVS     r3,#0
        0x08000d74:    e7c6        ..      B        _printf_hex_common ; 0x8000d04
    _printf_ll_hex
        0x08000d76:    1dd2        ..      ADDS     r2,r2,#7
        0x08000d78:    f0220307    "...    BIC      r3,r2,#7
        0x08000d7c:    e9d32300    ...#    LDRD     r2,r3,[r3,#0]
        0x08000d80:    e7c0        ..      B        _printf_hex_common ; 0x8000d04
    _printf_hex_ptr
        0x08000d82:    6803        .h      LDR      r3,[r0,#0]
        0x08000d84:    6812        .h      LDR      r2,[r2,#0]
        0x08000d86:    f0430320    C. .    ORR      r3,r3,#0x20
        0x08000d8a:    6003        .`      STR      r3,[r0,#0]
        0x08000d8c:    2308        .#      MOVS     r3,#8
        0x08000d8e:    61c3        .a      STR      r3,[r0,#0x1c]
        0x08000d90:    2300        .#      MOVS     r3,#0
        0x08000d92:    e7b7        ..      B        _printf_hex_common ; 0x8000d04
    $d
        0x08000d94:    000070f8    .p..    DCD    28920
    $t
    .text
    __printf
        0x08000d98:    e92d5ff0    -.._    PUSH     {r4-r12,lr}
        0x08000d9c:    4689        .F      MOV      r9,r1
        0x08000d9e:    4604        .F      MOV      r4,r0
        0x08000da0:    f04f0a00    O...    MOV      r10,#0
        0x08000da4:    f8dfb174    ..t.    LDR      r11,[pc,#372] ; [0x8000f1c] = 0x7088
        0x08000da8:    44fb        .D      ADD      r11,r11,pc
        0x08000daa:    f8c0a020    .. .    STR      r10,[r0,#0x20]
        0x08000dae:    4620         F      MOV      r0,r4
        0x08000db0:    68e1        .h      LDR      r1,[r4,#0xc]
        0x08000db2:    4788        .G      BLX      r1
        0x08000db4:    2800        .(      CMP      r0,#0
        0x08000db6:    d074        t.      BEQ      0x8000ea2 ; __printf + 266
        0x08000db8:    2825        %(      CMP      r0,#0x25
        0x08000dba:    d006        ..      BEQ      0x8000dca ; __printf + 50
        0x08000dbc:    e9d42101    ...!    LDRD     r2,r1,[r4,#4]
        0x08000dc0:    4790        .G      BLX      r2
        0x08000dc2:    6a20         j      LDR      r0,[r4,#0x20]
        0x08000dc4:    1c40        @.      ADDS     r0,r0,#1
        0x08000dc6:    6220         b      STR      r0,[r4,#0x20]
        0x08000dc8:    e7f1        ..      B        0x8000dae ; __printf + 22
        0x08000dca:    2600        .&      MOVS     r6,#0
        0x08000dcc:    465f        _F      MOV      r7,r11
        0x08000dce:    4620         F      MOV      r0,r4
        0x08000dd0:    68e1        .h      LDR      r1,[r4,#0xc]
        0x08000dd2:    4788        .G      BLX      r1
        0x08000dd4:    2820         (      CMP      r0,#0x20
        0x08000dd6:    4605        .F      MOV      r5,r0
        0x08000dd8:    db07        ..      BLT      0x8000dea ; __printf + 82
        0x08000dda:    2d31        1-      CMP      r5,#0x31
        0x08000ddc:    d205        ..      BCS      0x8000dea ; __printf + 82
        0x08000dde:    1978        x.      ADDS     r0,r7,r5
        0x08000de0:    f8100c20    .. .    LDRB     r0,[r0,#-0x20]
        0x08000de4:    b108        ..      CBZ      r0,0x8000dea ; __printf + 82
        0x08000de6:    4306        .C      ORRS     r6,r6,r0
        0x08000de8:    e7f1        ..      B        0x8000dce ; __printf + 54
        0x08000dea:    07b0        ..      LSLS     r0,r6,#30
        0x08000dec:    d501        ..      BPL      0x8000df2 ; __printf + 90
        0x08000dee:    f0260604    &...    BIC      r6,r6,#4
        0x08000df2:    f8c4a01c    ....    STR      r10,[r4,#0x1c]
        0x08000df6:    2700        .'      MOVS     r7,#0
        0x08000df8:    f8c4a018    ....    STR      r10,[r4,#0x18]
        0x08000dfc:    2d2a        *-      CMP      r5,#0x2a
        0x08000dfe:    d009        ..      BEQ      0x8000e14 ; __printf + 124
        0x08000e00:    4628        (F      MOV      r0,r5
        0x08000e02:    f006fa41    ..A.    BL       _is_digit ; 0x8007288
        0x08000e06:    b338        8.      CBZ      r0,0x8000e58 ; __printf + 192
        0x08000e08:    eb040887    ....    ADD      r8,r4,r7,LSL #2
        0x08000e0c:    3d30        0=      SUBS     r5,r5,#0x30
        0x08000e0e:    f8c85018    ...P    STR      r5,[r8,#0x18]
        0x08000e12:    e019        ..      B        0x8000e48 ; __printf + 176
        0x08000e14:    f8591b04    Y...    LDR      r1,[r9],#4
        0x08000e18:    4620         F      MOV      r0,r4
        0x08000e1a:    eb040287    ....    ADD      r2,r4,r7,LSL #2
        0x08000e1e:    6191        .a      STR      r1,[r2,#0x18]
        0x08000e20:    68e1        .h      LDR      r1,[r4,#0xc]
        0x08000e22:    4788        .G      BLX      r1
        0x08000e24:    2f01        ./      CMP      r7,#1
        0x08000e26:    4605        .F      MOV      r5,r0
        0x08000e28:    d118        ..      BNE      0x8000e5c ; __printf + 196
        0x08000e2a:    69e0        .i      LDR      r0,[r4,#0x1c]
        0x08000e2c:    2800        .(      CMP      r0,#0
        0x08000e2e:    da20         .      BGE      0x8000e72 ; __printf + 218
        0x08000e30:    f0260620    &. .    BIC      r6,r6,#0x20
        0x08000e34:    e01d        ..      B        0x8000e72 ; __printf + 218
        0x08000e36:    f8d80018    ....    LDR      r0,[r8,#0x18]
        0x08000e3a:    eb000080    ....    ADD      r0,r0,r0,LSL #2
        0x08000e3e:    eb050040    ..@.    ADD      r0,r5,r0,LSL #1
        0x08000e42:    3830        08      SUBS     r0,r0,#0x30
        0x08000e44:    f8c80018    ....    STR      r0,[r8,#0x18]
        0x08000e48:    4620         F      MOV      r0,r4
        0x08000e4a:    68e1        .h      LDR      r1,[r4,#0xc]
        0x08000e4c:    4788        .G      BLX      r1
        0x08000e4e:    4605        .F      MOV      r5,r0
        0x08000e50:    f006fa1a    ....    BL       _is_digit ; 0x8007288
        0x08000e54:    2800        .(      CMP      r0,#0
        0x08000e56:    d1ee        ..      BNE      0x8000e36 ; __printf + 158
        0x08000e58:    2f01        ./      CMP      r7,#1
        0x08000e5a:    d00a        ..      BEQ      0x8000e72 ; __printf + 218
        0x08000e5c:    2d2e        .-      CMP      r5,#0x2e
        0x08000e5e:    d108        ..      BNE      0x8000e72 ; __printf + 218
        0x08000e60:    4620         F      MOV      r0,r4
        0x08000e62:    68e1        .h      LDR      r1,[r4,#0xc]
        0x08000e64:    4788        .G      BLX      r1
        0x08000e66:    1c7f        ..      ADDS     r7,r7,#1
        0x08000e68:    4605        .F      MOV      r5,r0
        0x08000e6a:    2f02        ./      CMP      r7,#2
        0x08000e6c:    f0460620    F. .    ORR      r6,r6,#0x20
        0x08000e70:    dbc4        ..      BLT      0x8000dfc ; __printf + 100
        0x08000e72:    69a0        .i      LDR      r0,[r4,#0x18]
        0x08000e74:    2800        .(      CMP      r0,#0
        0x08000e76:    da03        ..      BGE      0x8000e80 ; __printf + 232
        0x08000e78:    4240        @B      RSBS     r0,r0,#0
        0x08000e7a:    f0460601    F...    ORR      r6,r6,#1
        0x08000e7e:    61a0        .a      STR      r0,[r4,#0x18]
        0x08000e80:    07f0        ..      LSLS     r0,r6,#31
        0x08000e82:    d001        ..      BEQ      0x8000e88 ; __printf + 240
        0x08000e84:    f0260610    &...    BIC      r6,r6,#0x10
        0x08000e88:    2d6c        l-      CMP      r5,#0x6c
        0x08000e8a:    d00b        ..      BEQ      0x8000ea4 ; __printf + 268
        0x08000e8c:    2d68        h-      CMP      r5,#0x68
        0x08000e8e:    d009        ..      BEQ      0x8000ea4 ; __printf + 268
        0x08000e90:    2d4c        L-      CMP      r5,#0x4c
        0x08000e92:    d039        9.      BEQ      0x8000f08 ; __printf + 368
        0x08000e94:    2d6a        j-      CMP      r5,#0x6a
        0x08000e96:    d035        5.      BEQ      0x8000f04 ; __printf + 364
        0x08000e98:    2d74        t-      CMP      r5,#0x74
        0x08000e9a:    d035        5.      BEQ      0x8000f08 ; __printf + 368
        0x08000e9c:    2d7a        z-      CMP      r5,#0x7a
        0x08000e9e:    d033        3.      BEQ      0x8000f08 ; __printf + 368
        0x08000ea0:    e016        ..      B        0x8000ed0 ; __printf + 312
        0x08000ea2:    e038        8.      B        0x8000f16 ; __printf + 382
        0x08000ea4:    68e1        .h      LDR      r1,[r4,#0xc]
        0x08000ea6:    462f        /F      MOV      r7,r5
        0x08000ea8:    4620         F      MOV      r0,r4
        0x08000eaa:    4788        .G      BLX      r1
        0x08000eac:    42b8        .B      CMP      r0,r7
        0x08000eae:    4605        .F      MOV      r5,r0
        0x08000eb0:    d109        ..      BNE      0x8000ec6 ; __printf + 302
        0x08000eb2:    2f6c        l/      CMP      r7,#0x6c
        0x08000eb4:    d026        &.      BEQ      0x8000f04 ; __printf + 364
        0x08000eb6:    f44f6080    O..`    MOV      r0,#0x400
        0x08000eba:    68e1        .h      LDR      r1,[r4,#0xc]
        0x08000ebc:    4306        .C      ORRS     r6,r6,r0
        0x08000ebe:    4620         F      MOV      r0,r4
        0x08000ec0:    4788        .G      BLX      r1
        0x08000ec2:    4605        .F      MOV      r5,r0
        0x08000ec4:    e004        ..      B        0x8000ed0 ; __printf + 312
        0x08000ec6:    2f6c        l/      CMP      r7,#0x6c
        0x08000ec8:    d01a        ..      BEQ      0x8000f00 ; __printf + 360
        0x08000eca:    f44f7080    O..p    MOV      r0,#0x100
        0x08000ece:    4306        .C      ORRS     r6,r6,r0
        0x08000ed0:    b30d        ..      CBZ      r5,0x8000f16 ; __printf + 382
        0x08000ed2:    f1a50041    ..A.    SUB      r0,r5,#0x41
        0x08000ed6:    2819        .(      CMP      r0,#0x19
        0x08000ed8:    d802        ..      BHI      0x8000ee0 ; __printf + 328
        0x08000eda:    3520         5      ADDS     r5,r5,#0x20
        0x08000edc:    f4466600    F..f    ORR      r6,r6,#0x800
        0x08000ee0:    464a        JF      MOV      r2,r9
        0x08000ee2:    4629        )F      MOV      r1,r5
        0x08000ee4:    4620         F      MOV      r0,r4
        0x08000ee6:    6026        &`      STR      r6,[r4,#0]
        0x08000ee8:    464e        NF      MOV      r6,r9
        0x08000eea:    f7fff99f    ....    BL       _printf_n ; 0x800022c
        0x08000eee:    b180        ..      CBZ      r0,0x8000f12 ; __printf + 378
        0x08000ef0:    2801        .(      CMP      r0,#1
        0x08000ef2:    d00b        ..      BEQ      0x8000f0c ; __printf + 372
        0x08000ef4:    1df6        ..      ADDS     r6,r6,#7
        0x08000ef6:    f0260007    &...    BIC      r0,r6,#7
        0x08000efa:    f1000908    ....    ADD      r9,r0,#8
        0x08000efe:    e756        V.      B        0x8000dae ; __printf + 22
        0x08000f00:    2040        @       MOVS     r0,#0x40
        0x08000f02:    e7e4        ..      B        0x8000ece ; __printf + 310
        0x08000f04:    2080        .       MOVS     r0,#0x80
        0x08000f06:    e7d8        ..      B        0x8000eba ; __printf + 290
        0x08000f08:    2000        .       MOVS     r0,#0
        0x08000f0a:    e7d6        ..      B        0x8000eba ; __printf + 290
        0x08000f0c:    f1060904    ....    ADD      r9,r6,#4
        0x08000f10:    e74d        M.      B        0x8000dae ; __printf + 22
        0x08000f12:    4628        (F      MOV      r0,r5
        0x08000f14:    e752        R.      B        0x8000dbc ; __printf + 36
        0x08000f16:    6a20         j      LDR      r0,[r4,#0x20]
        0x08000f18:    e8bd9ff0    ....    POP      {r4-r12,pc}
    $d
        0x08000f1c:    00007088    .p..    DCD    28808
    $t
    .text
    _fseek
    fseek
        0x08000f20:    e92d41f0    -..A    PUSH     {r4-r8,lr}
        0x08000f24:    4604        .F      MOV      r4,r0
        0x08000f26:    4616        .F      MOV      r6,r2
        0x08000f28:    460d        .F      MOV      r5,r1
        0x08000f2a:    6947        Gi      LDR      r7,[r0,#0x14]
        0x08000f2c:    7b00        .{      LDRB     r0,[r0,#0xc]
        0x08000f2e:    0780        ..      LSLS     r0,r0,#30
        0x08000f30:    d02e        ..      BEQ      0x8000f90 ; _fseek + 112
        0x08000f32:    4638        8F      MOV      r0,r7
        0x08000f34:    f000fa49    ..I.    BL       _sys_istty ; 0x80013ca
        0x08000f38:    bb50        P.      CBNZ     r0,0x8000f90 ; _fseek + 112
        0x08000f3a:    b33e        >.      CBZ      r6,0x8000f8c ; _fseek + 108
        0x08000f3c:    2e01        ..      CMP      r6,#1
        0x08000f3e:    d002        ..      BEQ      0x8000f46 ; _fseek + 38
        0x08000f40:    2e02        ..      CMP      r6,#2
        0x08000f42:    d125        %.      BNE      0x8000f90 ; _fseek + 112
        0x08000f44:    e004        ..      B        0x8000f50 ; _fseek + 48
        0x08000f46:    4620         F      MOV      r0,r4
        0x08000f48:    f000ff2d    ..-.    BL       _ftell_internal ; 0x8001da6
        0x08000f4c:    4405        .D      ADD      r5,r5,r0
        0x08000f4e:    e01d        ..      B        0x8000f8c ; _fseek + 108
        0x08000f50:    4638        8F      MOV      r0,r7
        0x08000f52:    f000fa48    ..H.    BL       _sys_flen ; 0x80013e6
        0x08000f56:    68e1        .h      LDR      r1,[r4,#0xc]
        0x08000f58:    2800        .(      CMP      r0,#0
        0x08000f5a:    f0410110    A...    ORR      r1,r1,#0x10
        0x08000f5e:    60e1        .`      STR      r1,[r4,#0xc]
        0x08000f60:    da05        ..      BGE      0x8000f6e ; _fseek + 78
        0x08000f62:    4620         F      MOV      r0,r4
        0x08000f64:    f000f858    ..X.    BL       _seterr ; 0x8001018
        0x08000f68:    2001        .       MOVS     r0,#1
        0x08000f6a:    e8bd81f0    ....    POP      {r4-r8,pc}
        0x08000f6e:    03c9        ..      LSLS     r1,r1,#15
        0x08000f70:    d50b        ..      BPL      0x8000f8a ; _fseek + 106
        0x08000f72:    6862        bh      LDR      r2,[r4,#4]
        0x08000f74:    6ae1        .j      LDR      r1,[r4,#0x2c]
        0x08000f76:    4291        .B      CMP      r1,r2
        0x08000f78:    d800        ..      BHI      0x8000f7c ; _fseek + 92
        0x08000f7a:    4611        .F      MOV      r1,r2
        0x08000f7c:    69a2        .i      LDR      r2,[r4,#0x18]
        0x08000f7e:    4411        .D      ADD      r1,r1,r2
        0x08000f80:    6922        "i      LDR      r2,[r4,#0x10]
        0x08000f82:    1a89        ..      SUBS     r1,r1,r2
        0x08000f84:    4281        .B      CMP      r1,r0
        0x08000f86:    dd00        ..      BLE      0x8000f8a ; _fseek + 106
        0x08000f88:    4608        .F      MOV      r0,r1
        0x08000f8a:    4405        .D      ADD      r5,r5,r0
        0x08000f8c:    2d00        .-      CMP      r5,#0
        0x08000f8e:    da01        ..      BGE      0x8000f94 ; _fseek + 116
        0x08000f90:    2002        .       MOVS     r0,#2
        0x08000f92:    e7ea        ..      B        0x8000f6a ; _fseek + 74
        0x08000f94:    6ae1        .j      LDR      r1,[r4,#0x2c]
        0x08000f96:    6860        `h      LDR      r0,[r4,#4]
        0x08000f98:    68e2        .h      LDR      r2,[r4,#0xc]
        0x08000f9a:    4281        .B      CMP      r1,r0
        0x08000f9c:    d206        ..      BCS      0x8000fac ; _fseek + 140
        0x08000f9e:    0391        ..      LSLS     r1,r2,#14
        0x08000fa0:    62e0        .b      STR      r0,[r4,#0x2c]
        0x08000fa2:    d503        ..      BPL      0x8000fac ; _fseek + 140
        0x08000fa4:    f4223100    "..1    BIC      r1,r2,#0x20000
        0x08000fa8:    f0410210    A...    ORR      r2,r1,#0x10
        0x08000fac:    69a6        .i      LDR      r6,[r4,#0x18]
        0x08000fae:    2700        .'      MOVS     r7,#0
        0x08000fb0:    42ae        .B      CMP      r6,r5
        0x08000fb2:    dc13        ..      BGT      0x8000fdc ; _fseek + 188
        0x08000fb4:    6ae1        .j      LDR      r1,[r4,#0x2c]
        0x08000fb6:    4281        .B      CMP      r1,r0
        0x08000fb8:    d901        ..      BLS      0x8000fbe ; _fseek + 158
        0x08000fba:    460b        .F      MOV      r3,r1
        0x08000fbc:    e000        ..      B        0x8000fc0 ; _fseek + 160
        0x08000fbe:    4603        .F      MOV      r3,r0
        0x08000fc0:    eb030c06    ....    ADD      r12,r3,r6
        0x08000fc4:    6923        #i      LDR      r3,[r4,#0x10]
        0x08000fc6:    ebac0c03    ....    SUB      r12,r12,r3
        0x08000fca:    45ac        .E      CMP      r12,r5
        0x08000fcc:    dd06        ..      BLE      0x8000fdc ; _fseek + 188
        0x08000fce:    4281        .B      CMP      r1,r0
        0x08000fd0:    d901        ..      BLS      0x8000fd6 ; _fseek + 182
        0x08000fd2:    468c        .F      MOV      r12,r1
        0x08000fd4:    e000        ..      B        0x8000fd8 ; _fseek + 184
        0x08000fd6:    4684        .F      MOV      r12,r0
        0x08000fd8:    459c        .E      CMP      r12,r3
        0x08000fda:    d105        ..      BNE      0x8000fe8 ; _fseek + 200
        0x08000fdc:    60a7        .`      STR      r7,[r4,#8]
        0x08000fde:    6027        '`      STR      r7,[r4,#0]
        0x08000fe0:    f0420020    B. .    ORR      r0,r2,#0x20
        0x08000fe4:    62a5        .b      STR      r5,[r4,#0x28]
        0x08000fe6:    e00d        ..      B        0x8001004 ; _fseek + 228
        0x08000fe8:    1bad        ..      SUBS     r5,r5,r6
        0x08000fea:    69e6        .i      LDR      r6,[r4,#0x1c]
        0x08000fec:    1bae        ..      SUBS     r6,r5,r6
        0x08000fee:    4281        .B      CMP      r1,r0
        0x08000ff0:    60a6        .`      STR      r6,[r4,#8]
        0x08000ff2:    d900        ..      BLS      0x8000ff6 ; _fseek + 214
        0x08000ff4:    4608        .F      MOV      r0,r1
        0x08000ff6:    1ac0        ..      SUBS     r0,r0,r3
        0x08000ff8:    1a28        (.      SUBS     r0,r5,r0
        0x08000ffa:    6020         `      STR      r0,[r4,#0]
        0x08000ffc:    1958        X.      ADDS     r0,r3,r5
        0x08000ffe:    6060        ``      STR      r0,[r4,#4]
        0x08001000:    f0220020    ". .    BIC      r0,r2,#0x20
        0x08001004:    4903        .I      LDR      r1,[pc,#12] ; [0x8001014] = 0xffd7cfbf
        0x08001006:    4008        .@      ANDS     r0,r0,r1
        0x08001008:    60e0        .`      STR      r0,[r4,#0xc]
        0x0800100a:    2000        .       MOVS     r0,#0
        0x0800100c:    f8847048    ..Hp    STRB     r7,[r4,#0x48]
        0x08001010:    e7ab        ..      B        0x8000f6a ; _fseek + 74
    $d
        0x08001012:    0000        ..      DCW    0
        0x08001014:    ffd7cfbf    ....    DCD    4292333503
    $t
    .text
    _seterr
        0x08001018:    68c1        .h      LDR      r1,[r0,#0xc]
        0x0800101a:    f4211100    !...    BIC      r1,r1,#0x200000
        0x0800101e:    f0410180    A...    ORR      r1,r1,#0x80
        0x08001022:    60c1        .`      STR      r1,[r0,#0xc]
        0x08001024:    2100        .!      MOVS     r1,#0
        0x08001026:    6081        .`      STR      r1,[r0,#8]
        0x08001028:    6001        .`      STR      r1,[r0,#0]
        0x0800102a:    4770        pG      BX       lr
    _writebuf
        0x0800102c:    e92d47f0    -..G    PUSH     {r4-r10,lr}
        0x08001030:    4681        .F      MOV      r9,r0
        0x08001032:    4614        .F      MOV      r4,r2
        0x08001034:    460e        .F      MOV      r6,r1
        0x08001036:    f04f38ff    O..8    MOV      r8,#0xffffffff
        0x0800103a:    4832        2H      LDR      r0,[pc,#200] ; [0x8001104] = 0x20010
        0x0800103c:    68d5        .h      LDR      r5,[r2,#0xc]
        0x0800103e:    6957        Wi      LDR      r7,[r2,#0x14]
        0x08001040:    4205        .B      TST      r5,r0
        0x08001042:    d009        ..      BEQ      0x8001058 ; _writebuf + 44
        0x08001044:    4638        8F      MOV      r0,r7
        0x08001046:    69a1        .i      LDR      r1,[r4,#0x18]
        0x08001048:    f000f9c5    ....    BL       _sys_seek ; 0x80013d6
        0x0800104c:    2800        .(      CMP      r0,#0
        0x0800104e:    db11        ..      BLT      0x8001074 ; _writebuf + 72
        0x08001050:    482c        ,H      LDR      r0,[pc,#176] ; [0x8001104] = 0x20010
        0x08001052:    43c0        .C      MVNS     r0,r0
        0x08001054:    4005        .@      ANDS     r5,r5,r0
        0x08001056:    60e5        .`      STR      r5,[r4,#0xc]
        0x08001058:    462b        +F      MOV      r3,r5
        0x0800105a:    4632        2F      MOV      r2,r6
        0x0800105c:    4649        IF      MOV      r1,r9
        0x0800105e:    4638        8F      MOV      r0,r7
        0x08001060:    f000f9a4    ....    BL       _sys_write ; 0x80013ac
        0x08001064:    69a1        .i      LDR      r1,[r4,#0x18]
        0x08001066:    f0204200     ..B    BIC      r2,r0,#0x80000000
        0x0800106a:    1ab2        ..      SUBS     r2,r6,r2
        0x0800106c:    4411        .D      ADD      r1,r1,r2
        0x0800106e:    2800        .(      CMP      r0,#0
        0x08001070:    61a1        .a      STR      r1,[r4,#0x18]
        0x08001072:    d003        ..      BEQ      0x800107c ; _writebuf + 80
        0x08001074:    4620         F      MOV      r0,r4
        0x08001076:    f7ffffcf    ....    BL       _seterr ; 0x8001018
        0x0800107a:    4640        @F      MOV      r0,r8
        0x0800107c:    e8bd87f0    ....    POP      {r4-r10,pc}
    _fflush
        0x08001080:    b570        p.      PUSH     {r4-r6,lr}
        0x08001082:    4604        .F      MOV      r4,r0
        0x08001084:    6905        .i      LDR      r5,[r0,#0x10]
        0x08001086:    6ac0        .j      LDR      r0,[r0,#0x2c]
        0x08001088:    6861        ah      LDR      r1,[r4,#4]
        0x0800108a:    4288        .B      CMP      r0,r1
        0x0800108c:    d800        ..      BHI      0x8001090 ; _fflush + 16
        0x0800108e:    4608        .F      MOV      r0,r1
        0x08001090:    68e1        .h      LDR      r1,[r4,#0xc]
        0x08001092:    f4211120    !. .    BIC      r1,r1,#0x280000
        0x08001096:    60e1        .`      STR      r1,[r4,#0xc]
        0x08001098:    03c9        ..      LSLS     r1,r1,#15
        0x0800109a:    d512        ..      BPL      0x80010c2 ; _fflush + 66
        0x0800109c:    42a8        .B      CMP      r0,r5
        0x0800109e:    d008        ..      BEQ      0x80010b2 ; _fflush + 50
        0x080010a0:    4622        "F      MOV      r2,r4
        0x080010a2:    1b41        A.      SUBS     r1,r0,r5
        0x080010a4:    4628        (F      MOV      r0,r5
        0x080010a6:    f7ffffc1    ....    BL       _writebuf ; 0x800102c
        0x080010aa:    b110        ..      CBZ      r0,0x80010b2 ; _fflush + 50
        0x080010ac:    f04f30ff    O..0    MOV      r0,#0xffffffff
        0x080010b0:    bd70        p.      POP      {r4-r6,pc}
        0x080010b2:    2000        .       MOVS     r0,#0
        0x080010b4:    62e5        .b      STR      r5,[r4,#0x2c]
        0x080010b6:    e9c45001    ...P    STRD     r5,r0,[r4,#4]
        0x080010ba:    68e0        .h      LDR      r0,[r4,#0xc]
        0x080010bc:    f4203080     ..0    BIC      r0,r0,#0x10000
        0x080010c0:    60e0        .`      STR      r0,[r4,#0xc]
        0x080010c2:    2000        .       MOVS     r0,#0
        0x080010c4:    bd70        p.      POP      {r4-r6,pc}
    _deferredlazyseek
        0x080010c6:    b510        ..      PUSH     {r4,lr}
        0x080010c8:    4604        .F      MOV      r4,r0
        0x080010ca:    68c0        .h      LDR      r0,[r0,#0xc]
        0x080010cc:    f0200020     . .    BIC      r0,r0,#0x20
        0x080010d0:    60e0        .`      STR      r0,[r4,#0xc]
        0x080010d2:    6aa1        .j      LDR      r1,[r4,#0x28]
        0x080010d4:    69a0        .i      LDR      r0,[r4,#0x18]
        0x080010d6:    4288        .B      CMP      r0,r1
        0x080010d8:    d00d        ..      BEQ      0x80010f6 ; _deferredlazyseek + 48
        0x080010da:    4620         F      MOV      r0,r4
        0x080010dc:    f7ffffd0    ....    BL       _fflush ; 0x8001080
        0x080010e0:    68e0        .h      LDR      r0,[r4,#0xc]
        0x080010e2:    f4205040     .@P    BIC      r0,r0,#0x3000
        0x080010e6:    f0400010    @...    ORR      r0,r0,#0x10
        0x080010ea:    60e0        .`      STR      r0,[r4,#0xc]
        0x080010ec:    6aa0        .j      LDR      r0,[r4,#0x28]
        0x080010ee:    61a0        .a      STR      r0,[r4,#0x18]
        0x080010f0:    6920         i      LDR      r0,[r4,#0x10]
        0x080010f2:    62e0        .b      STR      r0,[r4,#0x2c]
        0x080010f4:    6060        ``      STR      r0,[r4,#4]
        0x080010f6:    f2440140    D.@.    MOV      r1,#0x4040
        0x080010fa:    68e0        .h      LDR      r0,[r4,#0xc]
        0x080010fc:    4388        .C      BICS     r0,r0,r1
        0x080010fe:    60e0        .`      STR      r0,[r4,#0xc]
        0x08001100:    bd10        ..      POP      {r4,pc}
    $d
        0x08001102:    0000        ..      DCW    0
        0x08001104:    00020010    ....    DCD    131088
    $t
    .text
    _initio
        0x08001108:    b510        ..      PUSH     {r4,lr}
        0x0800110a:    4842        BH      LDR      r0,[pc,#264] ; [0x8001214] = 0x20000168
        0x0800110c:    2154        T!      MOVS     r1,#0x54
        0x0800110e:    f000ff79    ..y.    BL       __aeabi_memclr4 ; 0x8002004
        0x08001112:    4841        AH      LDR      r0,[pc,#260] ; [0x8001218] = 0x200001bc
        0x08001114:    2154        T!      MOVS     r1,#0x54
        0x08001116:    f000ff75    ..u.    BL       __aeabi_memclr4 ; 0x8002004
        0x0800111a:    4840        @H      LDR      r0,[pc,#256] ; [0x800121c] = 0x20000210
        0x0800111c:    2154        T!      MOVS     r1,#0x54
        0x0800111e:    f000ff71    ..q.    BL       __aeabi_memclr4 ; 0x8002004
        0x08001122:    493f        ?I      LDR      r1,[pc,#252] ; [0x8001220] = 0x20000000
        0x08001124:    483b        ;H      LDR      r0,[pc,#236] ; [0x8001214] = 0x20000168
        0x08001126:    4a3c        <J      LDR      r2,[pc,#240] ; [0x8001218] = 0x200001bc
        0x08001128:    4b3f        ?K      LDR      r3,[pc,#252] ; [0x8001228] = 0x20000008
        0x0800112a:    6008        .`      STR      r0,[r1,#0]
        0x0800112c:    493d        =I      LDR      r1,[pc,#244] ; [0x8001224] = 0x20000004
        0x0800112e:    600a        .`      STR      r2,[r1,#0]
        0x08001130:    493a        :I      LDR      r1,[pc,#232] ; [0x800121c] = 0x20000210
        0x08001132:    6019        .`      STR      r1,[r3,#0]
        0x08001134:    1c53        S.      ADDS     r3,r2,#1
        0x08001136:    6503        .e      STR      r3,[r0,#0x50]
        0x08001138:    1c48        H.      ADDS     r0,r1,#1
        0x0800113a:    6510        .e      STR      r0,[r2,#0x50]
        0x0800113c:    2001        .       MOVS     r0,#1
        0x0800113e:    6508        .e      STR      r0,[r1,#0x50]
        0x08001140:    483b        ;H      LDR      r0,[pc,#236] ; [0x8001230] = 0x6cfb
        0x08001142:    4a34        4J      LDR      r2,[pc,#208] ; [0x8001214] = 0x20000168
        0x08001144:    a139        9.      ADR      r1,{pc}+0xe8 ; 0x800122c
        0x08001146:    4478        xD      ADD      r0,r0,pc
        0x08001148:    f000fe72    ..r.    BL       _freopen_locked ; 0x8001e30
        0x0800114c:    b920         .      CBNZ     r0,0x8001158 ; _initio + 80
        0x0800114e:    4838        8H      LDR      r0,[pc,#224] ; [0x8001230] = 0x6cfb
        0x08001150:    4478        xD      ADD      r0,r0,pc
        0x08001152:    380a        .8      SUBS     r0,r0,#0xa
        0x08001154:    f000ff4f    ..O.    BL       __rt_SIGRTRED ; 0x8001ff6
        0x08001158:    4837        7H      LDR      r0,[pc,#220] ; [0x8001238] = 0x6ce7
        0x0800115a:    4a2f        /J      LDR      r2,[pc,#188] ; [0x8001218] = 0x200001bc
        0x0800115c:    a135        5.      ADR      r1,{pc}+0xd8 ; 0x8001234
        0x0800115e:    4478        xD      ADD      r0,r0,pc
        0x08001160:    f000fe66    ..f.    BL       _freopen_locked ; 0x8001e30
        0x08001164:    b920         .      CBNZ     r0,0x8001170 ; _initio + 104
        0x08001166:    4834        4H      LDR      r0,[pc,#208] ; [0x8001238] = 0x6ce7
        0x08001168:    4478        xD      ADD      r0,r0,pc
        0x0800116a:    380a        .8      SUBS     r0,r0,#0xa
        0x0800116c:    f000ff43    ..C.    BL       __rt_SIGRTRED ; 0x8001ff6
        0x08001170:    4832        2H      LDR      r0,[pc,#200] ; [0x800123c] = 0x6cd3
        0x08001172:    4a2a        *J      LDR      r2,[pc,#168] ; [0x800121c] = 0x20000210
        0x08001174:    a12f        /.      ADR      r1,{pc}+0xc0 ; 0x8001234
        0x08001176:    4478        xD      ADD      r0,r0,pc
        0x08001178:    f000fe5a    ..Z.    BL       _freopen_locked ; 0x8001e30
        0x0800117c:    b920         .      CBNZ     r0,0x8001188 ; _initio + 128
        0x0800117e:    482f        /H      LDR      r0,[pc,#188] ; [0x800123c] = 0x6cd3
        0x08001180:    4478        xD      ADD      r0,r0,pc
        0x08001182:    380a        .8      SUBS     r0,r0,#0xa
        0x08001184:    f000ff37    ..7.    BL       __rt_SIGRTRED ; 0x8001ff6
        0x08001188:    2340        @#      MOVS     r3,#0x40
        0x0800118a:    4822        "H      LDR      r0,[pc,#136] ; [0x8001214] = 0x20000168
        0x0800118c:    00dc        ..      LSLS     r4,r3,#3
        0x0800118e:    2100        .!      MOVS     r1,#0
        0x08001190:    4622        "F      MOV      r2,r4
        0x08001192:    f000fe29    ..).    BL       setvbuf ; 0x8001de8
        0x08001196:    b120         .      CBZ      r0,0x80011a2 ; _initio + 154
        0x08001198:    4825        %H      LDR      r0,[pc,#148] ; [0x8001230] = 0x6cfb
        0x0800119a:    4478        xD      ADD      r0,r0,pc
        0x0800119c:    3854        T8      SUBS     r0,r0,#0x54
        0x0800119e:    f000ff2a    ..*.    BL       __rt_SIGRTRED ; 0x8001ff6
        0x080011a2:    481d        .H      LDR      r0,[pc,#116] ; [0x8001218] = 0x200001bc
        0x080011a4:    4622        "F      MOV      r2,r4
        0x080011a6:    2340        @#      MOVS     r3,#0x40
        0x080011a8:    2100        .!      MOVS     r1,#0
        0x080011aa:    f000fe1d    ....    BL       setvbuf ; 0x8001de8
        0x080011ae:    b120         .      CBZ      r0,0x80011ba ; _initio + 178
        0x080011b0:    4821        !H      LDR      r0,[pc,#132] ; [0x8001238] = 0x6ce7
        0x080011b2:    4478        xD      ADD      r0,r0,pc
        0x080011b4:    3854        T8      SUBS     r0,r0,#0x54
        0x080011b6:    f000ff1e    ....    BL       __rt_SIGRTRED ; 0x8001ff6
        0x080011ba:    4818        .H      LDR      r0,[pc,#96] ; [0x800121c] = 0x20000210
        0x080011bc:    4622        "F      MOV      r2,r4
        0x080011be:    2310        .#      MOVS     r3,#0x10
        0x080011c0:    2100        .!      MOVS     r1,#0
        0x080011c2:    f000fe11    ....    BL       setvbuf ; 0x8001de8
        0x080011c6:    2800        .(      CMP      r0,#0
        0x080011c8:    d006        ..      BEQ      0x80011d8 ; _initio + 208
        0x080011ca:    481c        .H      LDR      r0,[pc,#112] ; [0x800123c] = 0x6cd3
        0x080011cc:    4478        xD      ADD      r0,r0,pc
        0x080011ce:    e8bd4010    ...@    POP      {r4,lr}
        0x080011d2:    3856        V8      SUBS     r0,r0,#0x56
        0x080011d4:    f000bf0f    ....    B.W      __rt_SIGRTRED ; 0x8001ff6
        0x080011d8:    bd10        ..      POP      {r4,pc}
    _terminateio
        0x080011da:    4810        .H      LDR      r0,[pc,#64] ; [0x800121c] = 0x20000210
        0x080011dc:    b570        p.      PUSH     {r4-r6,lr}
        0x080011de:    6d00        .m      LDR      r0,[r0,#0x50]
        0x080011e0:    f0200401     ...    BIC      r4,r0,#1
        0x080011e4:    480b        .H      LDR      r0,[pc,#44] ; [0x8001214] = 0x20000168
        0x080011e6:    f000fe9b    ....    BL       _fclose_internal ; 0x8001f20
        0x080011ea:    480b        .H      LDR      r0,[pc,#44] ; [0x8001218] = 0x200001bc
        0x080011ec:    f000fe98    ....    BL       _fclose_internal ; 0x8001f20
        0x080011f0:    480a        .H      LDR      r0,[pc,#40] ; [0x800121c] = 0x20000210
        0x080011f2:    f000fe95    ....    BL       _fclose_internal ; 0x8001f20
        0x080011f6:    e009        ..      B        0x800120c ; _terminateio + 50
        0x080011f8:    6d20         m      LDR      r0,[r4,#0x50]
        0x080011fa:    f0200501     ...    BIC      r5,r0,#1
        0x080011fe:    4620         F      MOV      r0,r4
        0x08001200:    f000fe8e    ....    BL       _fclose_internal ; 0x8001f20
        0x08001204:    4620         F      MOV      r0,r4
        0x08001206:    f000f930    ..0.    BL       free ; 0x800146a
        0x0800120a:    462c        ,F      MOV      r4,r5
        0x0800120c:    2c00        .,      CMP      r4,#0
        0x0800120e:    d1f3        ..      BNE      0x80011f8 ; _terminateio + 30
        0x08001210:    bd70        p.      POP      {r4-r6,pc}
    $d
        0x08001212:    0000        ..      DCW    0
        0x08001214:    20000168    h..     DCD    536871272
        0x08001218:    200001bc    ...     DCD    536871356
        0x0800121c:    20000210    ...     DCD    536871440
        0x08001220:    20000000    ...     DCD    536870912
        0x08001224:    20000004    ...     DCD    536870916
        0x08001228:    20000008    ...     DCD    536870920
        0x0800122c:    00000072    r...    DCD    114
        0x08001230:    00006cfb    .l..    DCD    27899
        0x08001234:    00000077    w...    DCD    119
        0x08001238:    00006ce7    .l..    DCD    27879
        0x0800123c:    00006cd3    .l..    DCD    27859
    $t
    .text
    __aeabi_atexit
        0x08001240:    e92d41f0    -..A    PUSH     {r4-r8,lr}
        0x08001244:    4607        .F      MOV      r7,r0
        0x08001246:    4615        .F      MOV      r5,r2
        0x08001248:    460e        .F      MOV      r6,r1
        0x0800124a:    2010        .       MOVS     r0,#0x10
        0x0800124c:    f000f8de    ....    BL       malloc ; 0x800140c
        0x08001250:    0004        ..      MOVS     r4,r0
        0x08001252:    d00a        ..      BEQ      0x800126a ; __aeabi_atexit + 42
        0x08001254:    6067        g`      STR      r7,[r4,#4]
        0x08001256:    e9c46502    ...e    STRD     r6,r5,[r4,#8]
        0x0800125a:    f000f8cf    ....    BL       __rt_ddtor_pointer_addr ; 0x80013fc
        0x0800125e:    6801        .h      LDR      r1,[r0,#0]
        0x08001260:    6021        !`      STR      r1,[r4,#0]
        0x08001262:    6004        .`      STR      r4,[r0,#0]
        0x08001264:    2000        .       MOVS     r0,#0
        0x08001266:    e8bd81f0    ....    POP      {r4-r8,pc}
        0x0800126a:    2001        .       MOVS     r0,#1
        0x0800126c:    e7fb        ..      B        0x8001266 ; __aeabi_atexit + 38
    .text
    __aeabi_memcpy4
    __aeabi_memcpy8
    __rt_memcpy_w
        0x0800126e:    b510        ..      PUSH     {r4,lr}
        0x08001270:    3a20         :      SUBS     r2,r2,#0x20
        0x08001272:    f0c0800b    ....    BCC.W    0x800128c ; __aeabi_memcpy4 + 30
        0x08001276:    e8b15018    ...P    LDM      r1!,{r3,r4,r12,lr}
        0x0800127a:    e8a05018    ...P    STM      r0!,{r3,r4,r12,lr}
        0x0800127e:    e8b15018    ...P    LDM      r1!,{r3,r4,r12,lr}
        0x08001282:    e8a05018    ...P    STM      r0!,{r3,r4,r12,lr}
        0x08001286:    3a20         :      SUBS     r2,r2,#0x20
        0x08001288:    f4bfaff5    ....    BCS.W    0x8001276 ; __aeabi_memcpy4 + 8
        0x0800128c:    ea5f7c02    _..|    LSLS     r12,r2,#28
        0x08001290:    bf24        $.      ITT      CS
        0x08001292:    e8b15018    ...P    LDMCS    r1!,{r3,r4,r12,lr}
        0x08001296:    e8a05018    ...P    STMCS    r0!,{r3,r4,r12,lr}
        0x0800129a:    bf44        D.      ITT      MI
        0x0800129c:    c918        ..      LDMMI    r1!,{r3,r4}
        0x0800129e:    c018        ..      STMMI    r0!,{r3,r4}
        0x080012a0:    e8bd4010    ...@    POP      {r4,lr}
        0x080012a4:    ea5f7c82    _..|    LSLS     r12,r2,#30
        0x080012a8:    bf24        $.      ITT      CS
        0x080012aa:    f8513b04    Q..;    LDRCS    r3,[r1],#4
        0x080012ae:    f8403b04    @..;    STRCS    r3,[r0],#4
        0x080012b2:    bf08        ..      IT       EQ
        0x080012b4:    4770        pG      BXEQ     lr
    _memcpy_lastbytes_aligned
        0x080012b6:    07d2        ..      LSLS     r2,r2,#31
        0x080012b8:    bf28        (.      IT       CS
        0x080012ba:    f8313b02    1..;    LDRHCS   r3,[r1],#2
        0x080012be:    bf48        H.      IT       MI
        0x080012c0:    f8112b01    ...+    LDRBMI   r2,[r1],#1
        0x080012c4:    bf28        (.      IT       CS
        0x080012c6:    f8203b02     ..;    STRHCS   r3,[r0],#2
        0x080012ca:    bf48        H.      IT       MI
        0x080012cc:    f8002b01    ...+    STRBMI   r2,[r0],#1
        0x080012d0:    4770        pG      BX       lr
        0x080012d2:    0000        ..      MOVS     r0,r0
    .text
    _localtime_r
    _n$localtime_r
        0x080012d4:    b570        p.      PUSH     {r4-r6,lr}
        0x080012d6:    460c        .F      MOV      r4,r1
        0x080012d8:    6801        .h      LDR      r1,[r0,#0]
        0x080012da:    2000        .       MOVS     r0,#0
        0x080012dc:    1c4a        J.      ADDS     r2,r1,#1
        0x080012de:    d03e        >.      BEQ      0x800135e ; _localtime_r + 138
        0x080012e0:    223c        <"      MOVS     r2,#0x3c
        0x080012e2:    fbb1f3f2    ....    UDIV     r3,r1,r2
        0x080012e6:    fb021313    ....    MLS      r3,r2,r3,r1
        0x080012ea:    fbb1f1f2    ....    UDIV     r1,r1,r2
        0x080012ee:    6023        #`      STR      r3,[r4,#0]
        0x080012f0:    fbb1f3f2    ....    UDIV     r3,r1,r2
        0x080012f4:    fb021313    ....    MLS      r3,r2,r3,r1
        0x080012f8:    fbb1f1f2    ....    UDIV     r1,r1,r2
        0x080012fc:    2218        ."      MOVS     r2,#0x18
        0x080012fe:    6063        c`      STR      r3,[r4,#4]
        0x08001300:    fbb1f3f2    ....    UDIV     r3,r1,r2
        0x08001304:    fb021313    ....    MLS      r3,r2,r3,r1
        0x08001308:    fbb1f1f2    ....    UDIV     r1,r1,r2
        0x0800130c:    f24632e0    F..2    MOV      r2,#0x63e0
        0x08001310:    440a        .D      ADD      r2,r2,r1
        0x08001312:    2107        .!      MOVS     r1,#7
        0x08001314:    60a3        .`      STR      r3,[r4,#8]
        0x08001316:    fbb2f3f1    ....    UDIV     r3,r2,r1
        0x0800131a:    fb012113    ...!    MLS      r1,r1,r3,r2
        0x0800131e:    f24053b5    @..S    MOV      r3,#0x5b5
        0x08001322:    fbb2f5f3    ....    UDIV     r5,r2,r3
        0x08001326:    61a1        .a      STR      r1,[r4,#0x18]
        0x08001328:    fbb2f1f3    ....    UDIV     r1,r2,r3
        0x0800132c:    fb032215    ..."    MLS      r2,r3,r5,r2
        0x08001330:    0089        ..      LSLS     r1,r1,#2
        0x08001332:    f5b27fb7    ....    CMP      r2,#0x16e
        0x08001336:    d308        ..      BCC      0x800134a ; _localtime_r + 118
        0x08001338:    109b        ..      ASRS     r3,r3,#2
        0x0800133a:    1e52        R.      SUBS     r2,r2,#1
        0x0800133c:    fbb2f5f3    ....    UDIV     r5,r2,r3
        0x08001340:    4429        )D      ADD      r1,r1,r5
        0x08001342:    fbb2f5f3    ....    UDIV     r5,r2,r3
        0x08001346:    fb032215    ..."    MLS      r2,r3,r5,r2
        0x0800134a:    4b0f        .K      LDR      r3,[pc,#60] ; [0x8001388] = 0x6b21
        0x0800134c:    61e2        .a      STR      r2,[r4,#0x1c]
        0x0800134e:    6161        aa      STR      r1,[r4,#0x14]
        0x08001350:    0789        ..      LSLS     r1,r1,#30
        0x08001352:    447b        {D      ADD      r3,r3,pc
        0x08001354:    d00c        ..      BEQ      0x8001370 ; _localtime_r + 156
        0x08001356:    2a3b        ;*      CMP      r2,#0x3b
        0x08001358:    d30a        ..      BCC      0x8001370 ; _localtime_r + 156
        0x0800135a:    1c52        R.      ADDS     r2,r2,#1
        0x0800135c:    e008        ..      B        0x8001370 ; _localtime_r + 156
        0x0800135e:    212c        ,!      MOVS     r1,#0x2c
        0x08001360:    4620         F      MOV      r0,r4
        0x08001362:    f000fe4f    ..O.    BL       __aeabi_memclr4 ; 0x8002004
        0x08001366:    2001        .       MOVS     r0,#1
        0x08001368:    60e0        .`      STR      r0,[r4,#0xc]
        0x0800136a:    e00a        ..      B        0x8001382 ; _localtime_r + 174
        0x0800136c:    1a52        R.      SUBS     r2,r2,r1
        0x0800136e:    1c40        @.      ADDS     r0,r0,#1
        0x08001370:    5c19        .\      LDRB     r1,[r3,r0]
        0x08001372:    4291        .B      CMP      r1,r2
        0x08001374:    d9fa        ..      BLS      0x800136c ; _localtime_r + 152
        0x08001376:    1c52        R.      ADDS     r2,r2,#1
        0x08001378:    e9c42003    ...     STRD     r2,r0,[r4,#0xc]
        0x0800137c:    f04f30ff    O..0    MOV      r0,#0xffffffff
        0x08001380:    6220         b      STR      r0,[r4,#0x20]
        0x08001382:    4620         F      MOV      r0,r4
        0x08001384:    bd70        p.      POP      {r4-r6,pc}
    $d
        0x08001386:    0000        ..      DCW    0
        0x08001388:    00006b21    !k..    DCD    27425
    $t
    .text
    _sys_open
        0x0800138c:    b50e        ..      PUSH     {r1-r3,lr}
        0x0800138e:    e9cd0100    ....    STRD     r0,r1,[sp,#0]
        0x08001392:    f7fff886    ....    BL       strlen ; 0x80004a2
        0x08001396:    9002        ..      STR      r0,[sp,#8]
        0x08001398:    4669        iF      MOV      r1,sp
        0x0800139a:    2001        .       MOVS     r0,#1
        0x0800139c:    beab        ..      BKPT     #0xab
        0x0800139e:    bd0e        ..      POP      {r1-r3,pc}
    _sys_close
        0x080013a0:    b508        ..      PUSH     {r3,lr}
        0x080013a2:    4669        iF      MOV      r1,sp
        0x080013a4:    9000        ..      STR      r0,[sp,#0]
        0x080013a6:    2002        .       MOVS     r0,#2
        0x080013a8:    beab        ..      BKPT     #0xab
        0x080013aa:    bd08        ..      POP      {r3,pc}
    _sys_write
        0x080013ac:    b51f        ..      PUSH     {r0-r4,lr}
        0x080013ae:    e88d0007    ....    STM      sp,{r0-r2}
        0x080013b2:    4669        iF      MOV      r1,sp
        0x080013b4:    2005        .       MOVS     r0,#5
        0x080013b6:    beab        ..      BKPT     #0xab
        0x080013b8:    b004        ..      ADD      sp,sp,#0x10
        0x080013ba:    bd10        ..      POP      {r4,pc}
    _sys_read
        0x080013bc:    b51f        ..      PUSH     {r0-r4,lr}
        0x080013be:    e88d000f    ....    STM      sp,{r0-r3}
        0x080013c2:    4669        iF      MOV      r1,sp
        0x080013c4:    2006        .       MOVS     r0,#6
        0x080013c6:    beab        ..      BKPT     #0xab
        0x080013c8:    e7f6        ..      B        0x80013b8 ; _sys_write + 12
    _sys_istty
        0x080013ca:    b508        ..      PUSH     {r3,lr}
        0x080013cc:    4669        iF      MOV      r1,sp
        0x080013ce:    9000        ..      STR      r0,[sp,#0]
        0x080013d0:    2009        .       MOVS     r0,#9
        0x080013d2:    beab        ..      BKPT     #0xab
        0x080013d4:    bd08        ..      POP      {r3,pc}
    _sys_seek
        0x080013d6:    b51c        ..      PUSH     {r2-r4,lr}
        0x080013d8:    e9cd0100    ....    STRD     r0,r1,[sp,#0]
        0x080013dc:    4669        iF      MOV      r1,sp
        0x080013de:    200a        .       MOVS     r0,#0xa
        0x080013e0:    beab        ..      BKPT     #0xab
        0x080013e2:    bd1c        ..      POP      {r2-r4,pc}
    _sys_ensure
        0x080013e4:    4770        pG      BX       lr
    _sys_flen
        0x080013e6:    b508        ..      PUSH     {r3,lr}
        0x080013e8:    4669        iF      MOV      r1,sp
        0x080013ea:    9000        ..      STR      r0,[sp,#0]
        0x080013ec:    200c        .       MOVS     r0,#0xc
        0x080013ee:    beab        ..      BKPT     #0xab
        0x080013f0:    bd08        ..      POP      {r3,pc}
        0x080013f2:    0000        ..      MOVS     r0,r0
    .text
    __user_libspace
    __user_perproc_libspace
    __user_perthread_libspace
        0x080013f4:    4800        .H      LDR      r0,[pc,#0] ; [0x80013f8] = 0x20000290
        0x080013f6:    4770        pG      BX       lr
    $d
        0x080013f8:    20000290    ...     DCD    536871568
    $t
    .text
    __rt_ddtor_pointer_addr
        0x080013fc:    4800        .H      LDR      r0,[pc,#0] ; [0x8001400] = 0x200002c8
        0x080013fe:    4770        pG      BX       lr
    $d
        0x08001400:    200002c8    ...     DCD    536871624
    $t
    .text
    __aeabi_errno_addr
    __errno$intlibspace
    __rt_errno_addr$intlibspace
        0x08001404:    4800        .H      LDR      r0,[pc,#0] ; [0x8001408] = 0x20000290
        0x08001406:    4770        pG      BX       lr
    $d
        0x08001408:    20000290    ...     DCD    536871568
    $t
    .text
    malloc
        0x0800140c:    b570        p.      PUSH     {r4-r6,lr}
        0x0800140e:    4606        .F      MOV      r6,r0
        0x08001410:    f000fe44    ..D.    BL       __rt_heap_descriptor ; 0x800209c
        0x08001414:    6805        .h      LDR      r5,[r0,#0]
        0x08001416:    f106000b    ....    ADD      r0,r6,#0xb
        0x0800141a:    f0200407     ...    BIC      r4,r0,#7
        0x0800141e:    42b4        .B      CMP      r4,r6
        0x08001420:    bf9c        ..      ITT      LS
        0x08001422:    2000        .       MOVLS    r0,#0
        0x08001424:    bd70        p.      POPLS    {r4-r6,pc}
        0x08001426:    462b        +F      MOV      r3,r5
        0x08001428:    686a        jh      LDR      r2,[r5,#4]
        0x0800142a:    b1ba        ..      CBZ      r2,0x800145c ; malloc + 80
        0x0800142c:    6810        .h      LDR      r0,[r2,#0]
        0x0800142e:    42a0        .B      CMP      r0,r4
        0x08001430:    d310        ..      BCC      0x8001454 ; malloc + 72
        0x08001432:    f1040108    ....    ADD      r1,r4,#8
        0x08001436:    4288        .B      CMP      r0,r1
        0x08001438:    bf3c        <.      ITT      CC
        0x0800143a:    6850        Ph      LDRCC    r0,[r2,#4]
        0x0800143c:    6058        X`      STRCC    r0,[r3,#4]
        0x0800143e:    d307        ..      BCC      0x8001450 ; malloc + 68
        0x08001440:    6851        Qh      LDR      r1,[r2,#4]
        0x08001442:    1910        ..      ADDS     r0,r2,r4
        0x08001444:    6041        A`      STR      r1,[r0,#4]
        0x08001446:    6811        .h      LDR      r1,[r2,#0]
        0x08001448:    1b09        ..      SUBS     r1,r1,r4
        0x0800144a:    6001        .`      STR      r1,[r0,#0]
        0x0800144c:    6058        X`      STR      r0,[r3,#4]
        0x0800144e:    6014        .`      STR      r4,[r2,#0]
        0x08001450:    1d10        ..      ADDS     r0,r2,#4
        0x08001452:    bd70        p.      POP      {r4-r6,pc}
        0x08001454:    4613        .F      MOV      r3,r2
        0x08001456:    6852        Rh      LDR      r2,[r2,#4]
        0x08001458:    2a00        .*      CMP      r2,#0
        0x0800145a:    d1e7        ..      BNE      0x800142c ; malloc + 32
        0x0800145c:    4621        !F      MOV      r1,r4
        0x0800145e:    4628        (F      MOV      r0,r5
        0x08001460:    f000fe24    ..$.    BL       __Heap_Full ; 0x80020ac
        0x08001464:    2800        .(      CMP      r0,#0
        0x08001466:    d1de        ..      BNE      0x8001426 ; malloc + 26
        0x08001468:    bd70        p.      POP      {r4-r6,pc}
    .text
    free
        0x0800146a:    b570        p.      PUSH     {r4-r6,lr}
        0x0800146c:    4604        .F      MOV      r4,r0
        0x0800146e:    1f05        ..      SUBS     r5,r0,#4
        0x08001470:    f000fe14    ....    BL       __rt_heap_descriptor ; 0x800209c
        0x08001474:    6800        .h      LDR      r0,[r0,#0]
        0x08001476:    2c00        .,      CMP      r4,#0
        0x08001478:    bf14        ..      ITE      NE
        0x0800147a:    6844        Dh      LDRNE    r4,[r0,#4]
        0x0800147c:    bd70        p.      POPEQ    {r4-r6,pc}
        0x0800147e:    2c00        .,      CMP      r4,#0
        0x08001480:    bf18        ..      IT       NE
        0x08001482:    42ac        .B      CMPNE    r4,r5
        0x08001484:    bf3c        <.      ITT      CC
        0x08001486:    4620         F      MOVCC    r0,r4
        0x08001488:    6864        dh      LDRCC    r4,[r4,#4]
        0x0800148a:    d3f8        ..      BCC      0x800147e ; free + 20
        0x0800148c:    6801        .h      LDR      r1,[r0,#0]
        0x0800148e:    180a        ..      ADDS     r2,r1,r0
        0x08001490:    42aa        .B      CMP      r2,r5
        0x08001492:    bf18        ..      IT       NE
        0x08001494:    6045        E`      STRNE    r5,[r0,#4]
        0x08001496:    d103        ..      BNE      0x80014a0 ; free + 54
        0x08001498:    682a        *h      LDR      r2,[r5,#0]
        0x0800149a:    4605        .F      MOV      r5,r0
        0x0800149c:    4411        .D      ADD      r1,r1,r2
        0x0800149e:    6001        .`      STR      r1,[r0,#0]
        0x080014a0:    6828        (h      LDR      r0,[r5,#0]
        0x080014a2:    1941        A.      ADDS     r1,r0,r5
        0x080014a4:    42a1        .B      CMP      r1,r4
        0x080014a6:    bf1c        ..      ITT      NE
        0x080014a8:    606c        l`      STRNE    r4,[r5,#4]
        0x080014aa:    bd70        p.      POPNE    {r4-r6,pc}
        0x080014ac:    6861        ah      LDR      r1,[r4,#4]
        0x080014ae:    6069        i`      STR      r1,[r5,#4]
        0x080014b0:    6821        !h      LDR      r1,[r4,#0]
        0x080014b2:    4408        .D      ADD      r0,r0,r1
        0x080014b4:    6028        (`      STR      r0,[r5,#0]
        0x080014b6:    bd70        p.      POP      {r4-r6,pc}
    .text
    _ll_udiv10
        0x080014b8:    b530        0.      PUSH     {r4,r5,lr}
        0x080014ba:    f1b0020a    ....    SUBS     r2,r0,#0xa
        0x080014be:    f1710300    q...    SBCS     r3,r1,#0
        0x080014c2:    ea4f0e90    O...    LSR      lr,r0,#2
        0x080014c6:    ea4e7e81    N..~    ORR      lr,lr,r1,LSL #30
        0x080014ca:    ebb0000e    ....    SUBS     r0,r0,lr
        0x080014ce:    eb610191    a...    SBC      r1,r1,r1,LSR #2
        0x080014d2:    ea4f1e10    O...    LSR      lr,r0,#4
        0x080014d6:    ea4e7e01    N..~    ORR      lr,lr,r1,LSL #28
        0x080014da:    eb10000e    ....    ADDS     r0,r0,lr
        0x080014de:    eb411111    A...    ADC      r1,r1,r1,LSR #4
        0x080014e2:    ea4f2e10    O...    LSR      lr,r0,#8
        0x080014e6:    ea4e6e01    N..n    ORR      lr,lr,r1,LSL #24
        0x080014ea:    eb10000e    ....    ADDS     r0,r0,lr
        0x080014ee:    eb412111    A..!    ADC      r1,r1,r1,LSR #8
        0x080014f2:    ea4f4e10    O..N    LSR      lr,r0,#16
        0x080014f6:    ea4e4e01    N..N    ORR      lr,lr,r1,LSL #16
        0x080014fa:    eb10000e    ....    ADDS     r0,r0,lr
        0x080014fe:    eb414111    A..A    ADC      r1,r1,r1,LSR #16
        0x08001502:    1840        @.      ADDS     r0,r0,r1
        0x08001504:    f1410100    A...    ADC      r1,r1,#0
        0x08001508:    ea4f00d0    O...    LSR      r0,r0,#3
        0x0800150c:    ea407041    @.Ap    ORR      r0,r0,r1,LSL #29
        0x08001510:    ea4f01d1    O...    LSR      r1,r1,#3
        0x08001514:    ea4f0481    O...    LSL      r4,r1,#2
        0x08001518:    ea447490    D..t    ORR      r4,r4,r0,LSR #30
        0x0800151c:    eb100580    ....    ADDS     r5,r0,r0,LSL #2
        0x08001520:    eb440401    D...    ADC      r4,r4,r1
        0x08001524:    196d        m.      ADDS     r5,r5,r5
        0x08001526:    eb440404    D...    ADC      r4,r4,r4
        0x0800152a:    1b52        R.      SUBS     r2,r2,r5
        0x0800152c:    41a3        .A      SBCS     r3,r3,r4
        0x0800152e:    f04f0300    O...    MOV      r3,#0
        0x08001532:    bf48        H.      IT       MI
        0x08001534:    320a        .2      ADDMI    r2,r2,#0xa
        0x08001536:    d500        ..      BPL      0x800153a ; _ll_udiv10 + 130
        0x08001538:    bd30        0.      POP      {r4,r5,pc}
        0x0800153a:    1c40        @.      ADDS     r0,r0,#1
        0x0800153c:    f1410100    A...    ADC      r1,r1,#0
        0x08001540:    bd30        0.      POP      {r4,r5,pc}
    .text
    _printf_int_common
        0x08001542:    e92d47f0    -..G    PUSH     {r4-r10,lr}
        0x08001546:    460d        .F      MOV      r5,r1
        0x08001548:    4699        .F      MOV      r9,r3
        0x0800154a:    4692        .F      MOV      r10,r2
        0x0800154c:    4604        .F      MOV      r4,r0
        0x0800154e:    f1000824    ..$.    ADD      r8,r0,#0x24
        0x08001552:    6801        .h      LDR      r1,[r0,#0]
        0x08001554:    0688        ..      LSLS     r0,r1,#26
        0x08001556:    d504        ..      BPL      0x8001562 ; _printf_int_common + 32
        0x08001558:    69e0        .i      LDR      r0,[r4,#0x1c]
        0x0800155a:    f0210110    !...    BIC      r1,r1,#0x10
        0x0800155e:    6021        !`      STR      r1,[r4,#0]
        0x08001560:    e000        ..      B        0x8001564 ; _printf_int_common + 34
        0x08001562:    2001        .       MOVS     r0,#1
        0x08001564:    42a8        .B      CMP      r0,r5
        0x08001566:    dd01        ..      BLE      0x800156c ; _printf_int_common + 42
        0x08001568:    1b47        G.      SUBS     r7,r0,r5
        0x0800156a:    e000        ..      B        0x800156e ; _printf_int_common + 44
        0x0800156c:    2700        .'      MOVS     r7,#0
        0x0800156e:    69a1        .i      LDR      r1,[r4,#0x18]
        0x08001570:    197a        z.      ADDS     r2,r7,r5
        0x08001572:    eb020009    ....    ADD      r0,r2,r9
        0x08001576:    1a08        ..      SUBS     r0,r1,r0
        0x08001578:    61a0        .a      STR      r0,[r4,#0x18]
        0x0800157a:    7820         x      LDRB     r0,[r4,#0]
        0x0800157c:    06c0        ..      LSLS     r0,r0,#27
        0x0800157e:    d402        ..      BMI      0x8001586 ; _printf_int_common + 68
        0x08001580:    4620         F      MOV      r0,r4
        0x08001582:    f7fffa27    ..'.    BL       _printf_pre_padding ; 0x80009d4
        0x08001586:    2600        .&      MOVS     r6,#0
        0x08001588:    e008        ..      B        0x800159c ; _printf_int_common + 90
        0x0800158a:    e9d42101    ...!    LDRD     r2,r1,[r4,#4]
        0x0800158e:    f81a0006    ....    LDRB     r0,[r10,r6]
        0x08001592:    4790        .G      BLX      r2
        0x08001594:    6a20         j      LDR      r0,[r4,#0x20]
        0x08001596:    1c40        @.      ADDS     r0,r0,#1
        0x08001598:    1c76        v.      ADDS     r6,r6,#1
        0x0800159a:    6220         b      STR      r0,[r4,#0x20]
        0x0800159c:    454e        NE      CMP      r6,r9
        0x0800159e:    dbf4        ..      BLT      0x800158a ; _printf_int_common + 72
        0x080015a0:    7820         x      LDRB     r0,[r4,#0]
        0x080015a2:    06c0        ..      LSLS     r0,r0,#27
        0x080015a4:    d50a        ..      BPL      0x80015bc ; _printf_int_common + 122
        0x080015a6:    4620         F      MOV      r0,r4
        0x080015a8:    f7fffa14    ....    BL       _printf_pre_padding ; 0x80009d4
        0x080015ac:    e006        ..      B        0x80015bc ; _printf_int_common + 122
        0x080015ae:    e9d42101    ...!    LDRD     r2,r1,[r4,#4]
        0x080015b2:    2030        0       MOVS     r0,#0x30
        0x080015b4:    4790        .G      BLX      r2
        0x080015b6:    6a20         j      LDR      r0,[r4,#0x20]
        0x080015b8:    1c40        @.      ADDS     r0,r0,#1
        0x080015ba:    6220         b      STR      r0,[r4,#0x20]
        0x080015bc:    1e38        8.      SUBS     r0,r7,#0
        0x080015be:    f1a70701    ....    SUB      r7,r7,#1
        0x080015c2:    dcf4        ..      BGT      0x80015ae ; _printf_int_common + 108
        0x080015c4:    e007        ..      B        0x80015d6 ; _printf_int_common + 148
        0x080015c6:    e9d42101    ...!    LDRD     r2,r1,[r4,#4]
        0x080015ca:    f8180005    ....    LDRB     r0,[r8,r5]
        0x080015ce:    4790        .G      BLX      r2
        0x080015d0:    6a20         j      LDR      r0,[r4,#0x20]
        0x080015d2:    1c40        @.      ADDS     r0,r0,#1
        0x080015d4:    6220         b      STR      r0,[r4,#0x20]
        0x080015d6:    1e28        (.      SUBS     r0,r5,#0
        0x080015d8:    f1a50501    ....    SUB      r5,r5,#1
        0x080015dc:    dcf3        ..      BGT      0x80015c6 ; _printf_int_common + 132
        0x080015de:    4620         F      MOV      r0,r4
        0x080015e0:    f7fffa0e    ....    BL       _printf_post_padding ; 0x8000a00
        0x080015e4:    7820         x      LDRB     r0,[r4,#0]
        0x080015e6:    0600        ..      LSLS     r0,r0,#24
        0x080015e8:    d502        ..      BPL      0x80015f0 ; _printf_int_common + 174
        0x080015ea:    2002        .       MOVS     r0,#2
        0x080015ec:    e8bd87f0    ....    POP      {r4-r10,pc}
        0x080015f0:    2001        .       MOVS     r0,#1
        0x080015f2:    e7fb        ..      B        0x80015ec ; _printf_int_common + 170
    .text
    _fp_digits
        0x080015f4:    e92d4fff    -..O    PUSH     {r0-r11,lr}
        0x080015f8:    460c        .F      MOV      r4,r1
        0x080015fa:    461e        .F      MOV      r6,r3
        0x080015fc:    f04f37ff    O..7    MOV      r7,#0xffffffff
        0x08001600:    b08b        ..      SUB      sp,sp,#0x2c
        0x08001602:    e9d20100    ....    LDRD     r0,r1,[r2,#0]
        0x08001606:    f8dd8060    ..`.    LDR      r8,[sp,#0x60]
        0x0800160a:    900a        ..      STR      r0,[sp,#0x28]
        0x0800160c:    468a        .F      MOV      r10,r1
        0x0800160e:    f3c1550a    ...U    UBFX     r5,r1,#20,#11
        0x08001612:    b905        ..      CBNZ     r5,0x8001616 ; _fp_digits + 34
        0x08001614:    463d        =F      MOV      r5,r7
        0x08001616:    2100        .!      MOVS     r1,#0
        0x08001618:    4608        .F      MOV      r0,r1
        0x0800161a:    f04f0000    O...    MOV      r0,#0
        0x0800161e:    f1ba0f00    ....    CMP      r10,#0
        0x08001622:    f4000040    ..@.    AND      r0,r0,#0xc00000
        0x08001626:    da05        ..      BGE      0x8001634 ; _fp_digits + 64
        0x08001628:    eb000080    ....    ADD      r0,r0,r0,LSL #2
        0x0800162c:    f44f0140    O.@.    MOV      r1,#0xc00000
        0x08001630:    ea010050    ..P.    AND      r0,r1,r0,LSR #1
        0x08001634:    ea4f5990    O..Y    LSR      r9,r0,#22
        0x08001638:    f1b90f01    ....    CMP      r9,#1
        0x0800163c:    dd00        ..      BLE      0x8001640 ; _fp_digits + 76
        0x0800163e:    46b9        .F      MOV      r9,r7
        0x08001640:    980a        ..      LDR      r0,[sp,#0x28]
        0x08001642:    ea50004a    P.J.    ORRS     r0,r0,r10,LSL #1
        0x08001646:    d00e        ..      BEQ      0x8001666 ; _fp_digits + 114
        0x08001648:    f6445010    D..P    MOV      r0,#0x4d10
        0x0800164c:    f2a535ff    ...5    SUB      r5,r5,#0x3ff
        0x08001650:    4345        EC      MULS     r5,r0,r5
        0x08001652:    142f        /.      ASRS     r7,r5,#16
        0x08001654:    f1b80f00    ....    CMP      r8,#0
        0x08001658:    d01e        ..      BEQ      0x8001698 ; _fp_digits + 164
        0x0800165a:    4275        uB      RSBS     r5,r6,#0
        0x0800165c:    1e29        ).      SUBS     r1,r5,#0
        0x0800165e:    dd1e        ..      BLE      0x800169e ; _fp_digits + 170
        0x08001660:    f1c90200    ....    RSB      r2,r9,#0
        0x08001664:    e01c        ..      B        0x80016a0 ; _fp_digits + 172
        0x08001666:    f1b80f01    ....    CMP      r8,#1
        0x0800166a:    f04f0000    O...    MOV      r0,#0
        0x0800166e:    d001        ..      BEQ      0x8001674 ; _fp_digits + 128
        0x08001670:    2130        0!      MOVS     r1,#0x30
        0x08001672:    e003        ..      B        0x800167c ; _fp_digits + 136
        0x08001674:    43f2        .C      MVNS     r2,r6
        0x08001676:    e005        ..      B        0x8001684 ; _fp_digits + 144
        0x08001678:    5421        !T      STRB     r1,[r4,r0]
        0x0800167a:    1c40        @.      ADDS     r0,r0,#1
        0x0800167c:    42b0        .B      CMP      r0,r6
        0x0800167e:    dbfb        ..      BLT      0x8001678 ; _fp_digits + 132
        0x08001680:    4630        0F      MOV      r0,r6
        0x08001682:    2200        ."      MOVS     r2,#0
        0x08001684:    2100        .!      MOVS     r1,#0
        0x08001686:    5421        !T      STRB     r1,[r4,r0]
        0x08001688:    990b        ..      LDR      r1,[sp,#0x2c]
        0x0800168a:    f8c18008    ....    STR      r8,[r1,#8]
        0x0800168e:    e9c12000    ...     STRD     r2,r0,[r1,#0]
        0x08001692:    b00f        ..      ADD      sp,sp,#0x3c
        0x08001694:    e8bd8ff0    ....    POP      {r4-r11,pc}
        0x08001698:    1bbd        ..      SUBS     r5,r7,r6
        0x0800169a:    1c6d        m.      ADDS     r5,r5,#1
        0x0800169c:    e7de        ..      B        0x800165c ; _fp_digits + 104
        0x0800169e:    464a        JF      MOV      r2,r9
        0x080016a0:    da00        ..      BGE      0x80016a4 ; _fp_digits + 176
        0x080016a2:    4269        iB      RSBS     r1,r5,#0
        0x080016a4:    a806        ..      ADD      r0,sp,#0x18
        0x080016a6:    f000fd8b    ....    BL       _btod_etento ; 0x80021c0
        0x080016aa:    ab06        ..      ADD      r3,sp,#0x18
        0x080016ac:    e8930007    ....    LDM      r3,{r0-r2}
        0x080016b0:    ab03        ..      ADD      r3,sp,#0xc
        0x080016b2:    e8830007    ....    STM      r3,{r0-r2}
        0x080016b6:    4650        PF      MOV      r0,r10
        0x080016b8:    990a        ..      LDR      r1,[sp,#0x28]
        0x080016ba:    f005f9bf    ....    BL       _btod_d2e ; 0x8006a3c
        0x080016be:    e88d0007    ....    STM      sp,{r0-r2}
        0x080016c2:    f5a05000    ...P    SUB      r0,r0,#0x2000
        0x080016c6:    381f        .8      SUBS     r0,r0,#0x1f
        0x080016c8:    9000        ..      STR      r0,[sp,#0]
        0x080016ca:    9803        ..      LDR      r0,[sp,#0xc]
        0x080016cc:    2d00        .-      CMP      r5,#0
        0x080016ce:    dd0a        ..      BLE      0x80016e6 ; _fp_digits + 242
        0x080016d0:    f242011f    B...    MOV      r1,#0x201f
        0x080016d4:    464a        JF      MOV      r2,r9
        0x080016d6:    4408        .D      ADD      r0,r0,r1
        0x080016d8:    2300        .#      MOVS     r3,#0
        0x080016da:    a903        ..      ADD      r1,sp,#0xc
        0x080016dc:    9003        ..      STR      r0,[sp,#0xc]
        0x080016de:    4668        hF      MOV      r0,sp
        0x080016e0:    f005fc28    ..(.    BL       _btod_ediv ; 0x8006f34
        0x080016e4:    e009        ..      B        0x80016fa ; _fp_digits + 262
        0x080016e6:    f5a05000    ...P    SUB      r0,r0,#0x2000
        0x080016ea:    464a        JF      MOV      r2,r9
        0x080016ec:    381f        .8      SUBS     r0,r0,#0x1f
        0x080016ee:    2300        .#      MOVS     r3,#0
        0x080016f0:    a903        ..      ADD      r1,sp,#0xc
        0x080016f2:    9003        ..      STR      r0,[sp,#0xc]
        0x080016f4:    4668        hF      MOV      r0,sp
        0x080016f6:    f005fc32    ..2.    BL       _btod_emul ; 0x8006f5e
        0x080016fa:    e88d0007    ....    STM      sp,{r0-r2}
        0x080016fe:    0400        ..      LSLS     r0,r0,#16
        0x08001700:    0c00        ..      LSRS     r0,r0,#16
        0x08001702:    d003        ..      BEQ      0x800170c ; _fp_digits + 280
        0x08001704:    f04f30ff    O..0    MOV      r0,#0xffffffff
        0x08001708:    0841        A.      LSRS     r1,r0,#1
        0x0800170a:    e000        ..      B        0x800170e ; _fp_digits + 282
        0x0800170c:    4610        .F      MOV      r0,r2
        0x0800170e:    f1b80f00    ....    CMP      r8,#0
        0x08001712:    d003        ..      BEQ      0x800171c ; _fp_digits + 296
        0x08001714:    2200        ."      MOVS     r2,#0
        0x08001716:    9200        ..      STR      r2,[sp,#0]
        0x08001718:    4615        .F      MOV      r5,r2
        0x0800171a:    e01e        ..      B        0x800175a ; _fp_digits + 358
        0x0800171c:    1e75        u.      SUBS     r5,r6,#1
        0x0800171e:    d405        ..      BMI      0x800172c ; _fp_digits + 312
        0x08001720:    f7fffeca    ....    BL       _ll_udiv10 ; 0x80014b8
        0x08001724:    3230        02      ADDS     r2,r2,#0x30
        0x08001726:    5562        bU      STRB     r2,[r4,r5]
        0x08001728:    1e6d        m.      SUBS     r5,r5,#1
        0x0800172a:    d5f9        ..      BPL      0x8001720 ; _fp_digits + 300
        0x0800172c:    46b3        .F      MOV      r11,r6
        0x0800172e:    2201        ."      MOVS     r2,#1
        0x08001730:    4308        .C      ORRS     r0,r0,r1
        0x08001732:    d002        ..      BEQ      0x800173a ; _fp_digits + 326
        0x08001734:    2200        ."      MOVS     r2,#0
        0x08001736:    1c7f        ..      ADDS     r7,r7,#1
        0x08001738:    e004        ..      B        0x8001744 ; _fp_digits + 336
        0x0800173a:    7820         x      LDRB     r0,[r4,#0]
        0x0800173c:    2830        0(      CMP      r0,#0x30
        0x0800173e:    d101        ..      BNE      0x8001744 ; _fp_digits + 336
        0x08001740:    2200        ."      MOVS     r2,#0
        0x08001742:    1e7f        ..      SUBS     r7,r7,#1
        0x08001744:    2a00        .*      CMP      r2,#0
        0x08001746:    9709        ..      STR      r7,[sp,#0x24]
        0x08001748:    d084        ..      BEQ      0x8001654 ; _fp_digits + 96
        0x0800174a:    e01d        ..      B        0x8001788 ; _fp_digits + 404
        0x0800174c:    2d11        .-      CMP      r5,#0x11
        0x0800174e:    da07        ..      BGE      0x8001760 ; _fp_digits + 364
        0x08001750:    f7fffeb2    ....    BL       _ll_udiv10 ; 0x80014b8
        0x08001754:    3230        02      ADDS     r2,r2,#0x30
        0x08001756:    5562        bU      STRB     r2,[r4,r5]
        0x08001758:    1c6d        m.      ADDS     r5,r5,#1
        0x0800175a:    ea500201    P...    ORRS     r2,r0,r1
        0x0800175e:    d1f5        ..      BNE      0x800174c ; _fp_digits + 344
        0x08001760:    4308        .C      ORRS     r0,r0,r1
        0x08001762:    d002        ..      BEQ      0x800176a ; _fp_digits + 374
        0x08001764:    9800        ..      LDR      r0,[sp,#0]
        0x08001766:    b1c8        ..      CBZ      r0,0x800179c ; _fp_digits + 424
        0x08001768:    e00e        ..      B        0x8001788 ; _fp_digits + 404
        0x0800176a:    2100        .!      MOVS     r1,#0
        0x0800176c:    1e68        h.      SUBS     r0,r5,#1
        0x0800176e:    e005        ..      B        0x800177c ; _fp_digits + 392
        0x08001770:    5c23        #\      LDRB     r3,[r4,r0]
        0x08001772:    5c62        b\      LDRB     r2,[r4,r1]
        0x08001774:    5463        cT      STRB     r3,[r4,r1]
        0x08001776:    5422        "T      STRB     r2,[r4,r0]
        0x08001778:    1e40        @.      SUBS     r0,r0,#1
        0x0800177a:    1c49        I.      ADDS     r1,r1,#1
        0x0800177c:    4281        .B      CMP      r1,r0
        0x0800177e:    dbf7        ..      BLT      0x8001770 ; _fp_digits + 380
        0x08001780:    46ab        .F      MOV      r11,r5
        0x08001782:    1ba8        ..      SUBS     r0,r5,r6
        0x08001784:    1e40        @.      SUBS     r0,r0,#1
        0x08001786:    9009        ..      STR      r0,[sp,#0x24]
        0x08001788:    2000        .       MOVS     r0,#0
        0x0800178a:    f804000b    ....    STRB     r0,[r4,r11]
        0x0800178e:    980b        ..      LDR      r0,[sp,#0x2c]
        0x08001790:    9a09        ..      LDR      r2,[sp,#0x24]
        0x08001792:    f8c08008    ....    STR      r8,[r0,#8]
        0x08001796:    e9c02b00    ...+    STRD     r2,r11,[r0,#0]
        0x0800179a:    e77a        z.      B        0x8001692 ; _fp_digits + 158
        0x0800179c:    2611        .&      MOVS     r6,#0x11
        0x0800179e:    f04f0800    O...    MOV      r8,#0
        0x080017a2:    e757        W.      B        0x8001654 ; _fp_digits + 96
    _printf_fp_dec_real
        0x080017a4:    e92d4ff0    -..O    PUSH     {r4-r11,lr}
        0x080017a8:    4688        .F      MOV      r8,r1
        0x080017aa:    4604        .F      MOV      r4,r0
        0x080017ac:    1dd2        ..      ADDS     r2,r2,#7
        0x080017ae:    f0220107    "...    BIC      r1,r2,#7
        0x080017b2:    b091        ..      SUB      sp,sp,#0x44
        0x080017b4:    e9d10100    ....    LDRD     r0,r1,[r1,#0]
        0x080017b8:    e9cd010a    ....    STRD     r0,r1,[sp,#0x28]
        0x080017bc:    f005fd0f    ....    BL       __ARM_fpclassify ; 0x80071de
        0x080017c0:    4602        .F      MOV      r2,r0
        0x080017c2:    980b        ..      LDR      r0,[sp,#0x2c]
        0x080017c4:    0fc0        ..      LSRS     r0,r0,#31
        0x080017c6:    d001        ..      BEQ      0x80017cc ; _printf_fp_dec_real + 40
        0x080017c8:    202d        -       MOVS     r0,#0x2d
        0x080017ca:    e007        ..      B        0x80017dc ; _printf_fp_dec_real + 56
        0x080017cc:    6820         h      LDR      r0,[r4,#0]
        0x080017ce:    0781        ..      LSLS     r1,r0,#30
        0x080017d0:    d501        ..      BPL      0x80017d6 ; _printf_fp_dec_real + 50
        0x080017d2:    202b        +       MOVS     r0,#0x2b
        0x080017d4:    e002        ..      B        0x80017dc ; _printf_fp_dec_real + 56
        0x080017d6:    2120         !      MOVS     r1,#0x20
        0x080017d8:    ea0100c0    ....    AND      r0,r1,r0,LSL #3
        0x080017dc:    2a03        .*      CMP      r2,#3
        0x080017de:    9009        ..      STR      r0,[sp,#0x24]
        0x080017e0:    d001        ..      BEQ      0x80017e6 ; _printf_fp_dec_real + 66
        0x080017e2:    2a07        .*      CMP      r2,#7
        0x080017e4:    db05        ..      BLT      0x80017f2 ; _printf_fp_dec_real + 78
        0x080017e6:    4603        .F      MOV      r3,r0
        0x080017e8:    4641        AF      MOV      r1,r8
        0x080017ea:    4620         F      MOV      r0,r4
        0x080017ec:    f000fca8    ....    BL       _printf_fp_infnan ; 0x8002140
        0x080017f0:    e10b        ..      B        0x8001a0a ; _printf_fp_dec_real + 614
        0x080017f2:    7820         x      LDRB     r0,[r4,#0]
        0x080017f4:    0680        ..      LSLS     r0,r0,#26
        0x080017f6:    d501        ..      BPL      0x80017fc ; _printf_fp_dec_real + 88
        0x080017f8:    69e0        .i      LDR      r0,[r4,#0x1c]
        0x080017fa:    e000        ..      B        0x80017fe ; _printf_fp_dec_real + 90
        0x080017fc:    2006        .       MOVS     r0,#6
        0x080017fe:    f1b80f65    ..e.    CMP      r8,#0x65
        0x08001802:    4681        .F      MOV      r9,r0
        0x08001804:    d006        ..      BEQ      0x8001814 ; _printf_fp_dec_real + 112
        0x08001806:    f1b80f66    ..f.    CMP      r8,#0x66
        0x0800180a:    d018        ..      BEQ      0x800183e ; _printf_fp_dec_real + 154
        0x0800180c:    f1b80f67    ..g.    CMP      r8,#0x67
        0x08001810:    d170        p.      BNE      0x80018f4 ; _printf_fp_dec_real + 336
        0x08001812:    e031        1.      B        0x8001878 ; _printf_fp_dec_real + 212
        0x08001814:    2000        .       MOVS     r0,#0
        0x08001816:    f1b90f11    ....    CMP      r9,#0x11
        0x0800181a:    9000        ..      STR      r0,[sp,#0]
        0x0800181c:    db01        ..      BLT      0x8001822 ; _printf_fp_dec_real + 126
        0x0800181e:    2311        .#      MOVS     r3,#0x11
        0x08001820:    e001        ..      B        0x8001826 ; _printf_fp_dec_real + 130
        0x08001822:    f1090301    ....    ADD      r3,r9,#1
        0x08001826:    aa0a        ..      ADD      r2,sp,#0x28
        0x08001828:    a901        ..      ADD      r1,sp,#4
        0x0800182a:    a80c        ..      ADD      r0,sp,#0x30
        0x0800182c:    f7fffee2    ....    BL       _fp_digits ; 0x80015f4
        0x08001830:    e9dd700c    ...p    LDRD     r7,r0,[sp,#0x30]
        0x08001834:    2600        .&      MOVS     r6,#0
        0x08001836:    f1090501    ....    ADD      r5,r9,#1
        0x0800183a:    4683        .F      MOV      r11,r0
        0x0800183c:    e047        G.      B        0x80018ce ; _printf_fp_dec_real + 298
        0x0800183e:    2001        .       MOVS     r0,#1
        0x08001840:    464b        KF      MOV      r3,r9
        0x08001842:    9000        ..      STR      r0,[sp,#0]
        0x08001844:    f04f4700    O..G    MOV      r7,#0x80000000
        0x08001848:    aa0a        ..      ADD      r2,sp,#0x28
        0x0800184a:    a901        ..      ADD      r1,sp,#4
        0x0800184c:    a80c        ..      ADD      r0,sp,#0x30
        0x0800184e:    f7fffed1    ....    BL       _fp_digits ; 0x80015f4
        0x08001852:    e9ddb00d    ....    LDRD     r11,r0,[sp,#0x34]
        0x08001856:    990c        ..      LDR      r1,[sp,#0x30]
        0x08001858:    465d        ]F      MOV      r5,r11
        0x0800185a:    2600        .&      MOVS     r6,#0
        0x0800185c:    b910        ..      CBNZ     r0,0x8001864 ; _printf_fp_dec_real + 192
        0x0800185e:    f1090001    ....    ADD      r0,r9,#1
        0x08001862:    180d        ..      ADDS     r5,r1,r0
        0x08001864:    ebb90005    ....    SUBS     r0,r9,r5
        0x08001868:    d403        ..      BMI      0x8001872 ; _printf_fp_dec_real + 206
        0x0800186a:    f1c036ff    ...6    RSB      r6,r0,#0xffffffff
        0x0800186e:    f1090501    ....    ADD      r5,r9,#1
        0x08001872:    eba50009    ....    SUB      r0,r5,r9
        0x08001876:    e02b        +.      B        0x80018d0 ; _printf_fp_dec_real + 300
        0x08001878:    f1b90f01    ....    CMP      r9,#1
        0x0800187c:    da01        ..      BGE      0x8001882 ; _printf_fp_dec_real + 222
        0x0800187e:    f04f0901    O...    MOV      r9,#1
        0x08001882:    2000        .       MOVS     r0,#0
        0x08001884:    f1b90f11    ....    CMP      r9,#0x11
        0x08001888:    9000        ..      STR      r0,[sp,#0]
        0x0800188a:    4648        HF      MOV      r0,r9
        0x0800188c:    dd01        ..      BLE      0x8001892 ; _printf_fp_dec_real + 238
        0x0800188e:    2311        .#      MOVS     r3,#0x11
        0x08001890:    e000        ..      B        0x8001894 ; _printf_fp_dec_real + 240
        0x08001892:    4603        .F      MOV      r3,r0
        0x08001894:    aa0a        ..      ADD      r2,sp,#0x28
        0x08001896:    a901        ..      ADD      r1,sp,#4
        0x08001898:    a80c        ..      ADD      r0,sp,#0x30
        0x0800189a:    f7fffeab    ....    BL       _fp_digits ; 0x80015f4
        0x0800189e:    e9dd700c    ...p    LDRD     r7,r0,[sp,#0x30]
        0x080018a2:    464d        MF      MOV      r5,r9
        0x080018a4:    2600        .&      MOVS     r6,#0
        0x080018a6:    4683        .F      MOV      r11,r0
        0x080018a8:    7820         x      LDRB     r0,[r4,#0]
        0x080018aa:    0700        ..      LSLS     r0,r0,#28
        0x080018ac:    d40a        ..      BMI      0x80018c4 ; _printf_fp_dec_real + 288
        0x080018ae:    45ab        .E      CMP      r11,r5
        0x080018b0:    da00        ..      BGE      0x80018b4 ; _printf_fp_dec_real + 272
        0x080018b2:    465d        ]F      MOV      r5,r11
        0x080018b4:    a801        ..      ADD      r0,sp,#4
        0x080018b6:    2d01        .-      CMP      r5,#1
        0x080018b8:    dd04        ..      BLE      0x80018c4 ; _printf_fp_dec_real + 288
        0x080018ba:    1941        A.      ADDS     r1,r0,r5
        0x080018bc:    f8111c01    ....    LDRB     r1,[r1,#-1]
        0x080018c0:    2930        0)      CMP      r1,#0x30
        0x080018c2:    d007        ..      BEQ      0x80018d4 ; _printf_fp_dec_real + 304
        0x080018c4:    454f        OE      CMP      r7,r9
        0x080018c6:    da02        ..      BGE      0x80018ce ; _printf_fp_dec_real + 298
        0x080018c8:    f1170f04    ....    CMN      r7,#4
        0x080018cc:    da04        ..      BGE      0x80018d8 ; _printf_fp_dec_real + 308
        0x080018ce:    2001        .       MOVS     r0,#1
        0x080018d0:    4682        .F      MOV      r10,r0
        0x080018d2:    e00f        ..      B        0x80018f4 ; _printf_fp_dec_real + 336
        0x080018d4:    1e6d        m.      SUBS     r5,r5,#1
        0x080018d6:    e7ee        ..      B        0x80018b6 ; _printf_fp_dec_real + 274
        0x080018d8:    2f00        ./      CMP      r7,#0
        0x080018da:    dc02        ..      BGT      0x80018e2 ; _printf_fp_dec_real + 318
        0x080018dc:    1bed        ..      SUBS     r5,r5,r7
        0x080018de:    443e        >D      ADD      r6,r6,r7
        0x080018e0:    e003        ..      B        0x80018ea ; _printf_fp_dec_real + 326
        0x080018e2:    1c78        x.      ADDS     r0,r7,#1
        0x080018e4:    42a8        .B      CMP      r0,r5
        0x080018e6:    dd00        ..      BLE      0x80018ea ; _printf_fp_dec_real + 326
        0x080018e8:    1c7d        }.      ADDS     r5,r7,#1
        0x080018ea:    1bb8        ..      SUBS     r0,r7,r6
        0x080018ec:    f1000a01    ....    ADD      r10,r0,#1
        0x080018f0:    f04f4700    O..G    MOV      r7,#0x80000000
        0x080018f4:    7820         x      LDRB     r0,[r4,#0]
        0x080018f6:    0700        ..      LSLS     r0,r0,#28
        0x080018f8:    d403        ..      BMI      0x8001902 ; _printf_fp_dec_real + 350
        0x080018fa:    45aa        .E      CMP      r10,r5
        0x080018fc:    db01        ..      BLT      0x8001902 ; _printf_fp_dec_real + 350
        0x080018fe:    f04f3aff    O..:    MOV      r10,#0xffffffff
        0x08001902:    2100        .!      MOVS     r1,#0
        0x08001904:    f1b74f00    ...O    CMP      r7,#0x80000000
        0x08001908:    f10d0843    ..C.    ADD      r8,sp,#0x43
        0x0800190c:    f88d1043    ..C.    STRB     r1,[sp,#0x43]
        0x08001910:    d024        $.      BEQ      0x800195c ; _printf_fp_dec_real + 440
        0x08001912:    2002        .       MOVS     r0,#2
        0x08001914:    232b        +#      MOVS     r3,#0x2b
        0x08001916:    2f00        ./      CMP      r7,#0
        0x08001918:    da01        ..      BGE      0x800191e ; _printf_fp_dec_real + 378
        0x0800191a:    427f        .B      RSBS     r7,r7,#0
        0x0800191c:    232d        -#      MOVS     r3,#0x2d
        0x0800191e:    210a        .!      MOVS     r1,#0xa
        0x08001920:    1e02        ..      SUBS     r2,r0,#0
        0x08001922:    f1a00001    ....    SUB      r0,r0,#1
        0x08001926:    dc00        ..      BGT      0x800192a ; _printf_fp_dec_real + 390
        0x08001928:    b15f        _.      CBZ      r7,0x8001942 ; _printf_fp_dec_real + 414
        0x0800192a:    fb97fcf1    ....    SDIV     r12,r7,r1
        0x0800192e:    fb97f2f1    ....    SDIV     r2,r7,r1
        0x08001932:    fb017c1c    ...|    MLS      r12,r1,r12,r7
        0x08001936:    4617        .F      MOV      r7,r2
        0x08001938:    f10c0c30    ..0.    ADD      r12,r12,#0x30
        0x0800193c:    f808cd01    ....    STRB     r12,[r8,#-1]!
        0x08001940:    e7ee        ..      B        0x8001920 ; _printf_fp_dec_real + 380
        0x08001942:    f1a80001    ....    SUB      r0,r8,#1
        0x08001946:    7003        .p      STRB     r3,[r0,#0]
        0x08001948:    8821        !.      LDRH     r1,[r4,#0]
        0x0800194a:    0509        ..      LSLS     r1,r1,#20
        0x0800194c:    d501        ..      BPL      0x8001952 ; _printf_fp_dec_real + 430
        0x0800194e:    2145        E!      MOVS     r1,#0x45
        0x08001950:    e000        ..      B        0x8001954 ; _printf_fp_dec_real + 432
        0x08001952:    2165        e!      MOVS     r1,#0x65
        0x08001954:    f1a00801    ....    SUB      r8,r0,#1
        0x08001958:    f8001c01    ....    STRB     r1,[r0,#-1]
        0x0800195c:    9809        ..      LDR      r0,[sp,#0x24]
        0x0800195e:    a90f        ..      ADD      r1,sp,#0x3c
        0x08001960:    eba10708    ....    SUB      r7,r1,r8
        0x08001964:    1dff        ..      ADDS     r7,r7,#7
        0x08001966:    b100        ..      CBZ      r0,0x800196a ; _printf_fp_dec_real + 454
        0x08001968:    2001        .       MOVS     r0,#1
        0x0800196a:    1941        A.      ADDS     r1,r0,r5
        0x0800196c:    eb0170ea    ...p    ADD      r0,r1,r10,ASR #31
        0x08001970:    69a1        .i      LDR      r1,[r4,#0x18]
        0x08001972:    4438        8D      ADD      r0,r0,r7
        0x08001974:    1a08        ..      SUBS     r0,r1,r0
        0x08001976:    1e40        @.      SUBS     r0,r0,#1
        0x08001978:    61a0        .a      STR      r0,[r4,#0x18]
        0x0800197a:    7820         x      LDRB     r0,[r4,#0]
        0x0800197c:    06c0        ..      LSLS     r0,r0,#27
        0x0800197e:    d402        ..      BMI      0x8001986 ; _printf_fp_dec_real + 482
        0x08001980:    4620         F      MOV      r0,r4
        0x08001982:    f7fff827    ..'.    BL       _printf_pre_padding ; 0x80009d4
        0x08001986:    9809        ..      LDR      r0,[sp,#0x24]
        0x08001988:    b128        (.      CBZ      r0,0x8001996 ; _printf_fp_dec_real + 498
        0x0800198a:    e9d42101    ...!    LDRD     r2,r1,[r4,#4]
        0x0800198e:    4790        .G      BLX      r2
        0x08001990:    6a20         j      LDR      r0,[r4,#0x20]
        0x08001992:    1c40        @.      ADDS     r0,r0,#1
        0x08001994:    6220         b      STR      r0,[r4,#0x20]
        0x08001996:    7820         x      LDRB     r0,[r4,#0]
        0x08001998:    06c0        ..      LSLS     r0,r0,#27
        0x0800199a:    d522        ".      BPL      0x80019e2 ; _printf_fp_dec_real + 574
        0x0800199c:    4620         F      MOV      r0,r4
        0x0800199e:    f7fff819    ....    BL       _printf_pre_padding ; 0x80009d4
        0x080019a2:    e01e        ..      B        0x80019e2 ; _printf_fp_dec_real + 574
        0x080019a4:    2e00        ..      CMP      r6,#0
        0x080019a6:    db04        ..      BLT      0x80019b2 ; _printf_fp_dec_real + 526
        0x080019a8:    45b3        .E      CMP      r11,r6
        0x080019aa:    dd02        ..      BLE      0x80019b2 ; _printf_fp_dec_real + 526
        0x080019ac:    a801        ..      ADD      r0,sp,#4
        0x080019ae:    5d80        .]      LDRB     r0,[r0,r6]
        0x080019b0:    e000        ..      B        0x80019b4 ; _printf_fp_dec_real + 528
        0x080019b2:    2030        0       MOVS     r0,#0x30
        0x080019b4:    e9d42101    ...!    LDRD     r2,r1,[r4,#4]
        0x080019b8:    4790        .G      BLX      r2
        0x080019ba:    6a20         j      LDR      r0,[r4,#0x20]
        0x080019bc:    1c40        @.      ADDS     r0,r0,#1
        0x080019be:    6220         b      STR      r0,[r4,#0x20]
        0x080019c0:    1c76        v.      ADDS     r6,r6,#1
        0x080019c2:    f1aa0001    ....    SUB      r0,r10,#1
        0x080019c6:    ea5f0a00    _...    MOVS     r10,r0
        0x080019ca:    d10a        ..      BNE      0x80019e2 ; _printf_fp_dec_real + 574
        0x080019cc:    f7feffdc    ....    BL       __rt_locale ; 0x8000988
        0x080019d0:    68c0        .h      LDR      r0,[r0,#0xc]
        0x080019d2:    6801        .h      LDR      r1,[r0,#0]
        0x080019d4:    5c40        @\      LDRB     r0,[r0,r1]
        0x080019d6:    e9d42101    ...!    LDRD     r2,r1,[r4,#4]
        0x080019da:    4790        .G      BLX      r2
        0x080019dc:    6a20         j      LDR      r0,[r4,#0x20]
        0x080019de:    1c40        @.      ADDS     r0,r0,#1
        0x080019e0:    6220         b      STR      r0,[r4,#0x20]
        0x080019e2:    1e28        (.      SUBS     r0,r5,#0
        0x080019e4:    f1a50501    ....    SUB      r5,r5,#1
        0x080019e8:    dcdc        ..      BGT      0x80019a4 ; _printf_fp_dec_real + 512
        0x080019ea:    e007        ..      B        0x80019fc ; _printf_fp_dec_real + 600
        0x080019ec:    e9d42101    ...!    LDRD     r2,r1,[r4,#4]
        0x080019f0:    f8180b01    ....    LDRB     r0,[r8],#1
        0x080019f4:    4790        .G      BLX      r2
        0x080019f6:    6a20         j      LDR      r0,[r4,#0x20]
        0x080019f8:    1c40        @.      ADDS     r0,r0,#1
        0x080019fa:    6220         b      STR      r0,[r4,#0x20]
        0x080019fc:    1e38        8.      SUBS     r0,r7,#0
        0x080019fe:    f1a70701    ....    SUB      r7,r7,#1
        0x08001a02:    dcf3        ..      BGT      0x80019ec ; _printf_fp_dec_real + 584
        0x08001a04:    4620         F      MOV      r0,r4
        0x08001a06:    f7fefffb    ....    BL       _printf_post_padding ; 0x8000a00
        0x08001a0a:    2003        .       MOVS     r0,#3
        0x08001a0c:    b011        ..      ADD      sp,sp,#0x44
        0x08001a0e:    e641        A.      B        0x8001694 ; _fp_digits + 160
    .text
    _printf_fp_hex_real
        0x08001a10:    e92d4ff0    -..O    PUSH     {r4-r11,lr}
        0x08001a14:    4604        .F      MOV      r4,r0
        0x08001a16:    460d        .F      MOV      r5,r1
        0x08001a18:    1dd2        ..      ADDS     r2,r2,#7
        0x08001a1a:    f0220007    "...    BIC      r0,r2,#7
        0x08001a1e:    b089        ..      SUB      sp,sp,#0x24
        0x08001a20:    e9d09700    ....    LDRD     r9,r7,[r0,#0]
        0x08001a24:    4648        HF      MOV      r0,r9
        0x08001a26:    4639        9F      MOV      r1,r7
        0x08001a28:    f005fbd9    ....    BL       __ARM_fpclassify ; 0x80071de
        0x08001a2c:    4602        .F      MOV      r2,r0
        0x08001a2e:    0ff8        ..      LSRS     r0,r7,#31
        0x08001a30:    d001        ..      BEQ      0x8001a36 ; _printf_fp_hex_real + 38
        0x08001a32:    232d        -#      MOVS     r3,#0x2d
        0x08001a34:    e007        ..      B        0x8001a46 ; _printf_fp_hex_real + 54
        0x08001a36:    6820         h      LDR      r0,[r4,#0]
        0x08001a38:    0781        ..      LSLS     r1,r0,#30
        0x08001a3a:    d501        ..      BPL      0x8001a40 ; _printf_fp_hex_real + 48
        0x08001a3c:    232b        +#      MOVS     r3,#0x2b
        0x08001a3e:    e002        ..      B        0x8001a46 ; _printf_fp_hex_real + 54
        0x08001a40:    2120         !      MOVS     r1,#0x20
        0x08001a42:    ea0103c0    ....    AND      r3,r1,r0,LSL #3
        0x08001a46:    f88d3020    .. 0    STRB     r3,[sp,#0x20]
        0x08001a4a:    b10b        ..      CBZ      r3,0x8001a50 ; _printf_fp_hex_real + 64
        0x08001a4c:    2001        .       MOVS     r0,#1
        0x08001a4e:    e000        ..      B        0x8001a52 ; _printf_fp_hex_real + 66
        0x08001a50:    2000        .       MOVS     r0,#0
        0x08001a52:    2a03        .*      CMP      r2,#3
        0x08001a54:    4682        .F      MOV      r10,r0
        0x08001a56:    d001        ..      BEQ      0x8001a5c ; _printf_fp_hex_real + 76
        0x08001a58:    2a07        .*      CMP      r2,#7
        0x08001a5a:    db04        ..      BLT      0x8001a66 ; _printf_fp_hex_real + 86
        0x08001a5c:    4629        )F      MOV      r1,r5
        0x08001a5e:    4620         F      MOV      r0,r4
        0x08001a60:    f000fb6e    ..n.    BL       _printf_fp_infnan ; 0x8002140
        0x08001a64:    e13f        ?.      B        0x8001ce6 ; _printf_fp_hex_real + 726
        0x08001a66:    7820         x      LDRB     r0,[r4,#0]
        0x08001a68:    0680        ..      LSLS     r0,r0,#26
        0x08001a6a:    d401        ..      BMI      0x8001a70 ; _printf_fp_hex_real + 96
        0x08001a6c:    250d        .%      MOVS     r5,#0xd
        0x08001a6e:    e000        ..      B        0x8001a72 ; _printf_fp_hex_real + 98
        0x08001a70:    69e5        .i      LDR      r5,[r4,#0x1c]
        0x08001a72:    f3c7560a    ...V    UBFX     r6,r7,#20,#11
        0x08001a76:    2d0d        .-      CMP      r5,#0xd
        0x08001a78:    da49        I.      BGE      0x8001b0e ; _printf_fp_hex_real + 254
        0x08001a7a:    2100        .!      MOVS     r1,#0
        0x08001a7c:    ea4f5b17    O..[    LSR      r11,r7,#20
        0x08001a80:    4608        .F      MOV      r0,r1
        0x08001a82:    f04f0000    O...    MOV      r0,#0
        0x08001a86:    2f00        ./      CMP      r7,#0
        0x08001a88:    f4000040    ..@.    AND      r0,r0,#0xc00000
        0x08001a8c:    da07        ..      BGE      0x8001a9e ; _printf_fp_hex_real + 142
        0x08001a8e:    eb000080    ....    ADD      r0,r0,r0,LSL #2
        0x08001a92:    f44f0140    O.@.    MOV      r1,#0xc00000
        0x08001a96:    eb0070d0    ...p    ADD      r0,r0,r0,LSR #31
        0x08001a9a:    ea010060    ..`.    AND      r0,r1,r0,ASR #1
        0x08001a9e:    1581        ..      ASRS     r1,r0,#22
        0x08001aa0:    2901        .)      CMP      r1,#1
        0x08001aa2:    dd01        ..      BLE      0x8001aa8 ; _printf_fp_hex_real + 152
        0x08001aa4:    f04f31ff    O..1    MOV      r1,#0xffffffff
        0x08001aa8:    2200        ."      MOVS     r2,#0
        0x08001aaa:    ea4f0c85    O...    LSL      r12,r5,#2
        0x08001aae:    f1bc0f18    ....    CMP      r12,#0x18
        0x08001ab2:    d306        ..      BCC      0x8001ac2 ; _printf_fp_hex_real + 178
        0x08001ab4:    4613        .F      MOV      r3,r2
        0x08001ab6:    f1ac0018    ....    SUB      r0,r12,#0x18
        0x08001aba:    f04f5280    O..R    MOV      r2,#0x10000000
        0x08001abe:    40c2        .@      LSRS     r2,r2,r0
        0x08001ac0:    e003        ..      B        0x8001aca ; _printf_fp_hex_real + 186
        0x08001ac2:    f44f1380    O...    MOV      r3,#0x100000
        0x08001ac6:    fa23f30c    #...    LSR      r3,r3,r12
        0x08001aca:    f10c0c0c    ....    ADD      r12,r12,#0xc
        0x08001ace:    f1bc0f20    .. .    CMP      r12,#0x20
        0x08001ad2:    d304        ..      BCC      0x8001ade ; _printf_fp_hex_real + 206
        0x08001ad4:    f1ac0c20    .. .    SUB      r12,r12,#0x20
        0x08001ad8:    fa09f00c    ....    LSL      r0,r9,r12
        0x08001adc:    e001        ..      B        0x8001ae2 ; _printf_fp_hex_real + 210
        0x08001ade:    fa07f00c    ....    LSL      r0,r7,r12
        0x08001ae2:    2900        .)      CMP      r1,#0
        0x08001ae4:    f04f4800    O..H    MOV      r8,#0x80000000
        0x08001ae8:    dd01        ..      BLE      0x8001aee ; _printf_fp_hex_real + 222
        0x08001aea:    b918        ..      CBNZ     r0,0x8001af4 ; _printf_fp_hex_real + 228
        0x08001aec:    e00f        ..      B        0x8001b0e ; _printf_fp_hex_real + 254
        0x08001aee:    d10e        ..      BNE      0x8001b0e ; _printf_fp_hex_real + 254
        0x08001af0:    4540        @E      CMP      r0,r8
        0x08001af2:    d30c        ..      BCC      0x8001b0e ; _printf_fp_hex_real + 254
        0x08001af4:    eb190902    ....    ADDS     r9,r9,r2
        0x08001af8:    415f        _A      ADCS     r7,r7,r3
        0x08001afa:    b921        !.      CBNZ     r1,0x8001b06 ; _printf_fp_hex_real + 246
        0x08001afc:    4540        @E      CMP      r0,r8
        0x08001afe:    d102        ..      BNE      0x8001b06 ; _printf_fp_hex_real + 246
        0x08001b00:    439f        .C      BICS     r7,r7,r3
        0x08001b02:    ea290902    )...    BIC      r9,r9,r2
        0x08001b06:    ebbb5f17    ..._    CMP      r11,r7,LSR #20
        0x08001b0a:    d000        ..      BEQ      0x8001b0e ; _printf_fp_hex_real + 254
        0x08001b0c:    1c76        v.      ADDS     r6,r6,#1
        0x08001b0e:    8820         .      LDRH     r0,[r4,#0]
        0x08001b10:    0500        ..      LSLS     r0,r0,#20
        0x08001b12:    d502        ..      BPL      0x8001b1a ; _printf_fp_hex_real + 266
        0x08001b14:    487b        {H      LDR      r0,[pc,#492] ; [0x8001d04] = 0x634a
        0x08001b16:    4478        xD      ADD      r0,r0,pc
        0x08001b18:    e002        ..      B        0x8001b20 ; _printf_fp_hex_real + 272
        0x08001b1a:    487a        zH      LDR      r0,[pc,#488] ; [0x8001d04] = 0x634a
        0x08001b1c:    4478        xD      ADD      r0,r0,pc
        0x08001b1e:    3819        .8      SUBS     r0,r0,#0x19
        0x08001b20:    aa08        ..      ADD      r2,sp,#0x20
        0x08001b22:    2330        0#      MOVS     r3,#0x30
        0x08001b24:    f802300a    ...0    STRB     r3,[r2,r10]
        0x08001b28:    7c03        .|      LDRB     r3,[r0,#0x10]
        0x08001b2a:    f10a0101    ....    ADD      r1,r10,#1
        0x08001b2e:    2e00        ..      CMP      r6,#0
        0x08001b30:    f10a0a02    ....    ADD      r10,r10,#2
        0x08001b34:    5453        ST      STRB     r3,[r2,r1]
        0x08001b36:    466a        jF      MOV      r2,sp
        0x08001b38:    dc02        ..      BGT      0x8001b40 ; _printf_fp_hex_real + 304
        0x08001b3a:    f04f0130    O.0.    MOV      r1,#0x30
        0x08001b3e:    e001        ..      B        0x8001b44 ; _printf_fp_hex_real + 308
        0x08001b40:    f04f0131    O.1.    MOV      r1,#0x31
        0x08001b44:    f04f0801    O...    MOV      r8,#1
        0x08001b48:    f88d1000    ....    STRB     r1,[sp,#0]
        0x08001b4c:    d002        ..      BEQ      0x8001b54 ; _printf_fp_hex_real + 324
        0x08001b4e:    f2a636ff    ...6    SUB      r6,r6,#0x3ff
        0x08001b52:    e003        ..      B        0x8001b5c ; _printf_fp_hex_real + 332
        0x08001b54:    ea590147    Y.G.    ORRS     r1,r9,r7,LSL #1
        0x08001b58:    d000        ..      BEQ      0x8001b5c ; _printf_fp_hex_real + 332
        0x08001b5a:    4e6b        kN      LDR      r6,[pc,#428] ; [0x8001d08] = 0xfffffc02
        0x08001b5c:    2d00        .-      CMP      r5,#0
        0x08001b5e:    dc02        ..      BGT      0x8001b66 ; _printf_fp_hex_real + 342
        0x08001b60:    7821        !x      LDRB     r1,[r4,#0]
        0x08001b62:    0709        ..      LSLS     r1,r1,#28
        0x08001b64:    d504        ..      BPL      0x8001b70 ; _printf_fp_hex_real + 352
        0x08001b66:    f04f0802    O...    MOV      r8,#2
        0x08001b6a:    212e        .!      MOVS     r1,#0x2e
        0x08001b6c:    f88d1001    ....    STRB     r1,[sp,#1]
        0x08001b70:    46c4        .F      MOV      r12,r8
        0x08001b72:    2100        .!      MOVS     r1,#0
        0x08001b74:    e00b        ..      B        0x8001b8e ; _printf_fp_hex_real + 382
        0x08001b76:    f3c74303    ...C    UBFX     r3,r7,#16,#4
        0x08001b7a:    013f        ?.      LSLS     r7,r7,#4
        0x08001b7c:    5cc3        .\      LDRB     r3,[r0,r3]
        0x08001b7e:    1c49        I.      ADDS     r1,r1,#1
        0x08001b80:    1e6d        m.      SUBS     r5,r5,#1
        0x08001b82:    f8023008    ...0    STRB     r3,[r2,r8]
        0x08001b86:    2905        .)      CMP      r1,#5
        0x08001b88:    f1080801    ....    ADD      r8,r8,#1
        0x08001b8c:    da01        ..      BGE      0x8001b92 ; _printf_fp_hex_real + 386
        0x08001b8e:    2d00        .-      CMP      r5,#0
        0x08001b90:    dcf1        ..      BGT      0x8001b76 ; _printf_fp_hex_real + 358
        0x08001b92:    2100        .!      MOVS     r1,#0
        0x08001b94:    e00c        ..      B        0x8001bb0 ; _printf_fp_hex_real + 416
        0x08001b96:    eb007319    ...s    ADD      r3,r0,r9,LSR #28
        0x08001b9a:    1c49        I.      ADDS     r1,r1,#1
        0x08001b9c:    781b        .x      LDRB     r3,[r3,#0]
        0x08001b9e:    1e6d        m.      SUBS     r5,r5,#1
        0x08001ba0:    2908        .)      CMP      r1,#8
        0x08001ba2:    f8023008    ...0    STRB     r3,[r2,r8]
        0x08001ba6:    ea4f1909    O...    LSL      r9,r9,#4
        0x08001baa:    f1080801    ....    ADD      r8,r8,#1
        0x08001bae:    da01        ..      BGE      0x8001bb4 ; _printf_fp_hex_real + 420
        0x08001bb0:    2d00        .-      CMP      r5,#0
        0x08001bb2:    dcf0        ..      BGT      0x8001b96 ; _printf_fp_hex_real + 390
        0x08001bb4:    6821        !h      LDR      r1,[r4,#0]
        0x08001bb6:    068b        ..      LSLS     r3,r1,#26
        0x08001bb8:    d502        ..      BPL      0x8001bc0 ; _printf_fp_hex_real + 432
        0x08001bba:    e016        ..      B        0x8001bea ; _printf_fp_hex_real + 474
        0x08001bbc:    f1a80801    ....    SUB      r8,r8,#1
        0x08001bc0:    45e0        .E      CMP      r8,r12
        0x08001bc2:    dd05        ..      BLE      0x8001bd0 ; _printf_fp_hex_real + 448
        0x08001bc4:    eb020308    ....    ADD      r3,r2,r8
        0x08001bc8:    f8133c01    ...<    LDRB     r3,[r3,#-1]
        0x08001bcc:    2b30        0+      CMP      r3,#0x30
        0x08001bce:    d0f5        ..      BEQ      0x8001bbc ; _printf_fp_hex_real + 428
        0x08001bd0:    f1b80f00    ....    CMP      r8,#0
        0x08001bd4:    dd09        ..      BLE      0x8001bea ; _printf_fp_hex_real + 474
        0x08001bd6:    eb020308    ....    ADD      r3,r2,r8
        0x08001bda:    f8133c01    ...<    LDRB     r3,[r3,#-1]
        0x08001bde:    2b2e        .+      CMP      r3,#0x2e
        0x08001be0:    d103        ..      BNE      0x8001bea ; _printf_fp_hex_real + 474
        0x08001be2:    0709        ..      LSLS     r1,r1,#28
        0x08001be4:    d401        ..      BMI      0x8001bea ; _printf_fp_hex_real + 474
        0x08001be6:    f1a80801    ....    SUB      r8,r8,#1
        0x08001bea:    2d00        .-      CMP      r5,#0
        0x08001bec:    dd05        ..      BLE      0x8001bfa ; _printf_fp_hex_real + 490
        0x08001bee:    213e        >!      MOVS     r1,#0x3e
        0x08001bf0:    f8021008    ....    STRB     r1,[r2,r8]
        0x08001bf4:    1e6d        m.      SUBS     r5,r5,#1
        0x08001bf6:    f1080801    ....    ADD      r8,r8,#1
        0x08001bfa:    7c40        @|      LDRB     r0,[r0,#0x11]
        0x08001bfc:    2e00        ..      CMP      r6,#0
        0x08001bfe:    f8020008    ....    STRB     r0,[r2,r8]
        0x08001c02:    f1080801    ....    ADD      r8,r8,#1
        0x08001c06:    da04        ..      BGE      0x8001c12 ; _printf_fp_hex_real + 514
        0x08001c08:    202d        -       MOVS     r0,#0x2d
        0x08001c0a:    4276        vB      RSBS     r6,r6,#0
        0x08001c0c:    f8020008    ....    STRB     r0,[r2,r8]
        0x08001c10:    e002        ..      B        0x8001c18 ; _printf_fp_hex_real + 520
        0x08001c12:    202b        +       MOVS     r0,#0x2b
        0x08001c14:    f8020008    ....    STRB     r0,[r2,r8]
        0x08001c18:    210a        .!      MOVS     r1,#0xa
        0x08001c1a:    f44f707a    O.zp    MOV      r0,#0x3e8
        0x08001c1e:    4286        .B      CMP      r6,r0
        0x08001c20:    f1080801    ....    ADD      r8,r8,#1
        0x08001c24:    db0b        ..      BLT      0x8001c3e ; _printf_fp_hex_real + 558
        0x08001c26:    fb96f3f0    ....    SDIV     r3,r6,r0
        0x08001c2a:    3330        03      ADDS     r3,r3,#0x30
        0x08001c2c:    f8023008    ...0    STRB     r3,[r2,r8]
        0x08001c30:    fb96f3f0    ....    SDIV     r3,r6,r0
        0x08001c34:    f1080801    ....    ADD      r8,r8,#1
        0x08001c38:    fb006613    ...f    MLS      r6,r0,r3,r6
        0x08001c3c:    e001        ..      B        0x8001c42 ; _printf_fp_hex_real + 562
        0x08001c3e:    2e64        d.      CMP      r6,#0x64
        0x08001c40:    db0c        ..      BLT      0x8001c5c ; _printf_fp_hex_real + 588
        0x08001c42:    2064        d       MOVS     r0,#0x64
        0x08001c44:    fb96f3f0    ....    SDIV     r3,r6,r0
        0x08001c48:    3330        03      ADDS     r3,r3,#0x30
        0x08001c4a:    f8023008    ...0    STRB     r3,[r2,r8]
        0x08001c4e:    fb96f3f0    ....    SDIV     r3,r6,r0
        0x08001c52:    f1080801    ....    ADD      r8,r8,#1
        0x08001c56:    fb006613    ...f    MLS      r6,r0,r3,r6
        0x08001c5a:    e001        ..      B        0x8001c60 ; _printf_fp_hex_real + 592
        0x08001c5c:    2e0a        ..      CMP      r6,#0xa
        0x08001c5e:    db06        ..      BLT      0x8001c6e ; _printf_fp_hex_real + 606
        0x08001c60:    fb96f0f1    ....    SDIV     r0,r6,r1
        0x08001c64:    3030        00      ADDS     r0,r0,#0x30
        0x08001c66:    f8020008    ....    STRB     r0,[r2,r8]
        0x08001c6a:    f1080801    ....    ADD      r8,r8,#1
        0x08001c6e:    fb96f0f1    ....    SDIV     r0,r6,r1
        0x08001c72:    fb016010    ...`    MLS      r0,r1,r0,r6
        0x08001c76:    3030        00      ADDS     r0,r0,#0x30
        0x08001c78:    f8020008    ....    STRB     r0,[r2,r8]
        0x08001c7c:    69a1        .i      LDR      r1,[r4,#0x18]
        0x08001c7e:    f1080801    ....    ADD      r8,r8,#1
        0x08001c82:    eb080205    ....    ADD      r2,r8,r5
        0x08001c86:    eb02000a    ....    ADD      r0,r2,r10
        0x08001c8a:    1a08        ..      SUBS     r0,r1,r0
        0x08001c8c:    61a0        .a      STR      r0,[r4,#0x18]
        0x08001c8e:    7820         x      LDRB     r0,[r4,#0]
        0x08001c90:    06c0        ..      LSLS     r0,r0,#27
        0x08001c92:    d402        ..      BMI      0x8001c9a ; _printf_fp_hex_real + 650
        0x08001c94:    4620         F      MOV      r0,r4
        0x08001c96:    f7fefe9d    ....    BL       _printf_pre_padding ; 0x80009d4
        0x08001c9a:    6a21        !j      LDR      r1,[r4,#0x20]
        0x08001c9c:    ae08        ..      ADD      r6,sp,#0x20
        0x08001c9e:    eb01000a    ....    ADD      r0,r1,r10
        0x08001ca2:    6220         b      STR      r0,[r4,#0x20]
        0x08001ca4:    e004        ..      B        0x8001cb0 ; _printf_fp_hex_real + 672
        0x08001ca6:    e9d42101    ...!    LDRD     r2,r1,[r4,#4]
        0x08001caa:    f8160b01    ....    LDRB     r0,[r6],#1
        0x08001cae:    4790        .G      BLX      r2
        0x08001cb0:    f1ba0a01    ....    SUBS     r10,r10,#1
        0x08001cb4:    d2f7        ..      BCS      0x8001ca6 ; _printf_fp_hex_real + 662
        0x08001cb6:    7820         x      LDRB     r0,[r4,#0]
        0x08001cb8:    06c0        ..      LSLS     r0,r0,#27
        0x08001cba:    d502        ..      BPL      0x8001cc2 ; _printf_fp_hex_real + 690
        0x08001cbc:    4620         F      MOV      r0,r4
        0x08001cbe:    f7fefe89    ....    BL       _printf_pre_padding ; 0x80009d4
        0x08001cc2:    466e        nF      MOV      r6,sp
        0x08001cc4:    e009        ..      B        0x8001cda ; _printf_fp_hex_real + 714
        0x08001cc6:    f8160b01    ....    LDRB     r0,[r6],#1
        0x08001cca:    283e        >(      CMP      r0,#0x3e
        0x08001ccc:    d00f        ..      BEQ      0x8001cee ; _printf_fp_hex_real + 734
        0x08001cce:    e9d42101    ...!    LDRD     r2,r1,[r4,#4]
        0x08001cd2:    4790        .G      BLX      r2
        0x08001cd4:    6a20         j      LDR      r0,[r4,#0x20]
        0x08001cd6:    1c40        @.      ADDS     r0,r0,#1
        0x08001cd8:    6220         b      STR      r0,[r4,#0x20]
        0x08001cda:    f1b80801    ....    SUBS     r8,r8,#1
        0x08001cde:    d2f2        ..      BCS      0x8001cc6 ; _printf_fp_hex_real + 694
        0x08001ce0:    4620         F      MOV      r0,r4
        0x08001ce2:    f7fefe8d    ....    BL       _printf_post_padding ; 0x8000a00
        0x08001ce6:    b009        ..      ADD      sp,sp,#0x24
        0x08001ce8:    2003        .       MOVS     r0,#3
        0x08001cea:    e8bd8ff0    ....    POP      {r4-r11,pc}
        0x08001cee:    6a20         j      LDR      r0,[r4,#0x20]
        0x08001cf0:    4428        (D      ADD      r0,r0,r5
        0x08001cf2:    6220         b      STR      r0,[r4,#0x20]
        0x08001cf4:    e003        ..      B        0x8001cfe ; _printf_fp_hex_real + 750
        0x08001cf6:    e9d42101    ...!    LDRD     r2,r1,[r4,#4]
        0x08001cfa:    2030        0       MOVS     r0,#0x30
        0x08001cfc:    4790        .G      BLX      r2
        0x08001cfe:    1e6d        m.      SUBS     r5,r5,#1
        0x08001d00:    d3eb        ..      BCC      0x8001cda ; _printf_fp_hex_real + 714
        0x08001d02:    e7f8        ..      B        0x8001cf6 ; _printf_fp_hex_real + 742
    $d
        0x08001d04:    0000634a    Jc..    DCD    25418
        0x08001d08:    fffffc02    ....    DCD    4294966274
    $t
    .text
    _printf_input_char
        0x08001d0c:    6901        .i      LDR      r1,[r0,#0x10]
        0x08001d0e:    1c4a        J.      ADDS     r2,r1,#1
        0x08001d10:    6102        .a      STR      r2,[r0,#0x10]
        0x08001d12:    7808        .x      LDRB     r0,[r1,#0]
        0x08001d14:    4770        pG      BX       lr
    _printf_char_common
        0x08001d16:    b500        ..      PUSH     {lr}
        0x08001d18:    b08f        ..      SUB      sp,sp,#0x3c
        0x08001d1a:    e9cd3101    ...1    STRD     r3,r1,[sp,#4]
        0x08001d1e:    2100        .!      MOVS     r1,#0
        0x08001d20:    9105        ..      STR      r1,[sp,#0x14]
        0x08001d22:    4905        .I      LDR      r1,[pc,#20] ; [0x8001d38] = 0xffffffe5
        0x08001d24:    4479        yD      ADD      r1,r1,pc
        0x08001d26:    e9cd1003    ....    STRD     r1,r0,[sp,#0xc]
        0x08001d2a:    4611        .F      MOV      r1,r2
        0x08001d2c:    4668        hF      MOV      r0,sp
        0x08001d2e:    f7fff833    ..3.    BL       __printf ; 0x8000d98
        0x08001d32:    b00f        ..      ADD      sp,sp,#0x3c
        0x08001d34:    bd00        ..      POP      {pc}
    $d
        0x08001d36:    0000        ..      DCW    0
        0x08001d38:    ffffffe5    ....    DCD    4294967269
    $t
    .text
    _sputc
        0x08001d3c:    680a        .h      LDR      r2,[r1,#0]
        0x08001d3e:    f8020b01    ....    STRB     r0,[r2],#1
        0x08001d42:    600a        .`      STR      r2,[r1,#0]
        0x08001d44:    4770        pG      BX       lr
    .text
    _printf_cs_common
        0x08001d46:    b510        ..      PUSH     {r4,lr}
        0x08001d48:    6943        Ci      LDR      r3,[r0,#0x14]
        0x08001d4a:    b113        ..      CBZ      r3,0x8001d52 ; _printf_cs_common + 12
        0x08001d4c:    f3af8000    ....    NOP.W    
        0x08001d50:    e001        ..      B        0x8001d56 ; _printf_cs_common + 16
        0x08001d52:    f7fefe78    ..x.    BL       _printf_str ; 0x8000a46
        0x08001d56:    2001        .       MOVS     r0,#1
        0x08001d58:    bd10        ..      POP      {r4,pc}
    _printf_char
        0x08001d5a:    7812        .x      LDRB     r2,[r2,#0]
        0x08001d5c:    f1000124    ..$.    ADD      r1,r0,#0x24
        0x08001d60:    700a        .p      STRB     r2,[r1,#0]
        0x08001d62:    2200        ."      MOVS     r2,#0
        0x08001d64:    704a        Jp      STRB     r2,[r1,#1]
        0x08001d66:    2201        ."      MOVS     r2,#1
        0x08001d68:    e7ed        ..      B        _printf_cs_common ; 0x8001d46
    _printf_string
        0x08001d6a:    6811        .h      LDR      r1,[r2,#0]
        0x08001d6c:    f04f32ff    O..2    MOV      r2,#0xffffffff
        0x08001d70:    e7e9        ..      B        _printf_cs_common ; 0x8001d46
    .text
    _printf_lcs_common
        0x08001d72:    b510        ..      PUSH     {r4,lr}
        0x08001d74:    6943        Ci      LDR      r3,[r0,#0x14]
        0x08001d76:    b113        ..      CBZ      r3,0x8001d7e ; _printf_lcs_common + 12
        0x08001d78:    f3af8000    ....    NOP.W    
        0x08001d7c:    e001        ..      B        0x8001d82 ; _printf_lcs_common + 16
        0x08001d7e:    f7fefeed    ....    BL       _printf_wctomb ; 0x8000b5c
        0x08001d82:    2001        .       MOVS     r0,#1
        0x08001d84:    bd10        ..      POP      {r4,pc}
    _printf_wchar
        0x08001d86:    8812        ..      LDRH     r2,[r2,#0]
        0x08001d88:    f1000124    ..$.    ADD      r1,r0,#0x24
        0x08001d8c:    8482        ..      STRH     r2,[r0,#0x24]
        0x08001d8e:    2200        ."      MOVS     r2,#0
        0x08001d90:    84c2        ..      STRH     r2,[r0,#0x26]
        0x08001d92:    2201        ."      MOVS     r2,#1
        0x08001d94:    e7ed        ..      B        _printf_lcs_common ; 0x8001d72
    _printf_wstring
        0x08001d96:    6811        .h      LDR      r1,[r2,#0]
        0x08001d98:    f04f32ff    O..2    MOV      r2,#0xffffffff
        0x08001d9c:    e7e9        ..      B        _printf_lcs_common ; 0x8001d72
    .text
    ferror
        0x08001d9e:    7b00        .{      LDRB     r0,[r0,#0xc]
        0x08001da0:    f0000080    ....    AND      r0,r0,#0x80
        0x08001da4:    4770        pG      BX       lr
    .text
    _ftell_internal
    ftell
        0x08001da6:    b510        ..      PUSH     {r4,lr}
        0x08001da8:    4601        .F      MOV      r1,r0
        0x08001daa:    68c2        .h      LDR      r2,[r0,#0xc]
        0x08001dac:    0790        ..      LSLS     r0,r2,#30
        0x08001dae:    d003        ..      BEQ      0x8001db8 ; _ftell_internal + 18
        0x08001db0:    0690        ..      LSLS     r0,r2,#26
        0x08001db2:    d507        ..      BPL      0x8001dc4 ; _ftell_internal + 30
        0x08001db4:    6a88        .j      LDR      r0,[r1,#0x28]
        0x08001db6:    e00a        ..      B        0x8001dce ; _ftell_internal + 40
        0x08001db8:    f7fffb24    ..$.    BL       __aeabi_errno_addr ; 0x8001404
        0x08001dbc:    2101        .!      MOVS     r1,#1
        0x08001dbe:    6001        .`      STR      r1,[r0,#0]
        0x08001dc0:    1e88        ..      SUBS     r0,r1,#2
        0x08001dc2:    bd10        ..      POP      {r4,pc}
        0x08001dc4:    698b        .i      LDR      r3,[r1,#0x18]
        0x08001dc6:    6848        Hh      LDR      r0,[r1,#4]
        0x08001dc8:    4418        .D      ADD      r0,r0,r3
        0x08001dca:    690b        .i      LDR      r3,[r1,#0x10]
        0x08001dcc:    1ac0        ..      SUBS     r0,r0,r3
        0x08001dce:    f8913048    ..H0    LDRB     r3,[r1,#0x48]
        0x08001dd2:    b11b        ..      CBZ      r3,0x8001ddc ; _ftell_internal + 54
        0x08001dd4:    f8911049    ..I.    LDRB     r1,[r1,#0x49]
        0x08001dd8:    1a40        @.      SUBS     r0,r0,r1
        0x08001dda:    bd10        ..      POP      {r4,pc}
        0x08001ddc:    0311        ..      LSLS     r1,r2,#12
        0x08001dde:    d5fc        ..      BPL      0x8001dda ; _ftell_internal + 52
        0x08001de0:    2800        .(      CMP      r0,#0
        0x08001de2:    ddfa        ..      BLE      0x8001dda ; _ftell_internal + 52
        0x08001de4:    1e40        @.      SUBS     r0,r0,#1
        0x08001de6:    bd10        ..      POP      {r4,pc}
    .text
    setvbuf
        0x08001de8:    b570        p.      PUSH     {r4-r6,lr}
        0x08001dea:    68c4        .h      LDR      r4,[r0,#0xc]
        0x08001dec:    07a5        ..      LSLS     r5,r4,#30
        0x08001dee:    d013        ..      BEQ      0x8001e18 ; setvbuf + 48
        0x08001df0:    0265        e.      LSLS     r5,r4,#9
        0x08001df2:    d411        ..      BMI      0x8001e18 ; setvbuf + 48
        0x08001df4:    f5b27f80    ....    CMP      r2,#0x100
        0x08001df8:    d009        ..      BEQ      0x8001e0e ; setvbuf + 38
        0x08001dfa:    f5b27f00    ....    CMP      r2,#0x200
        0x08001dfe:    d006        ..      BEQ      0x8001e0e ; setvbuf + 38
        0x08001e00:    f5b26f80    ...o    CMP      r2,#0x400
        0x08001e04:    d108        ..      BNE      0x8001e18 ; setvbuf + 48
        0x08001e06:    2301        .#      MOVS     r3,#1
        0x08001e08:    f1000124    ..$.    ADD      r1,r0,#0x24
        0x08001e0c:    e006        ..      B        0x8001e1c ; setvbuf + 52
        0x08001e0e:    1e5d        ].      SUBS     r5,r3,#1
        0x08001e10:    f06f467f    o..F    MVN      r6,#0xff000000
        0x08001e14:    42b5        .B      CMP      r5,r6
        0x08001e16:    d301        ..      BCC      0x8001e1c ; setvbuf + 52
        0x08001e18:    2001        .       MOVS     r0,#1
        0x08001e1a:    bd70        p.      POP      {r4-r6,pc}
        0x08001e1c:    6101        .a      STR      r1,[r0,#0x10]
        0x08001e1e:    61c3        .a      STR      r3,[r0,#0x1c]
        0x08001e20:    6041        A`      STR      r1,[r0,#4]
        0x08001e22:    f4246170    $.pa    BIC      r1,r4,#0xf00
        0x08001e26:    4311        .C      ORRS     r1,r1,r2
        0x08001e28:    60c1        .`      STR      r1,[r0,#0xc]
        0x08001e2a:    2000        .       MOVS     r0,#0
        0x08001e2c:    bd70        p.      POP      {r4-r6,pc}
        0x08001e2e:    0000        ..      MOVS     r0,r0
    .text
    _freopen_locked
    freopen
        0x08001e30:    e92d41f0    -..A    PUSH     {r4-r8,lr}
        0x08001e34:    460c        .F      MOV      r4,r1
        0x08001e36:    4616        .F      MOV      r6,r2
        0x08001e38:    0007        ..      MOVS     r7,r0
        0x08001e3a:    d047        G.      BEQ      0x8001ecc ; _freopen_locked + 156
        0x08001e3c:    4610        .F      MOV      r0,r2
        0x08001e3e:    f000f86f    ..o.    BL       _fclose_internal ; 0x8001f20
        0x08001e42:    7820         x      LDRB     r0,[r4,#0]
        0x08001e44:    1c61        a.      ADDS     r1,r4,#1
        0x08001e46:    2861        a(      CMP      r0,#0x61
        0x08001e48:    d00a        ..      BEQ      0x8001e60 ; _freopen_locked + 48
        0x08001e4a:    2872        r(      CMP      r0,#0x72
        0x08001e4c:    d002        ..      BEQ      0x8001e54 ; _freopen_locked + 36
        0x08001e4e:    2877        w(      CMP      r0,#0x77
        0x08001e50:    d13c        <.      BNE      0x8001ecc ; _freopen_locked + 156
        0x08001e52:    e002        ..      B        0x8001e5a ; _freopen_locked + 42
        0x08001e54:    2501        .%      MOVS     r5,#1
        0x08001e56:    2400        .$      MOVS     r4,#0
        0x08001e58:    e005        ..      B        0x8001e66 ; _freopen_locked + 54
        0x08001e5a:    2502        .%      MOVS     r5,#2
        0x08001e5c:    2404        .$      MOVS     r4,#4
        0x08001e5e:    e002        ..      B        0x8001e66 ; _freopen_locked + 54
        0x08001e60:    2408        .$      MOVS     r4,#8
        0x08001e62:    f2480502    H...    MOV      r5,#0x8002
        0x08001e66:    f8110b01    ....    LDRB     r0,[r1],#1
        0x08001e6a:    282b        +(      CMP      r0,#0x2b
        0x08001e6c:    d006        ..      BEQ      0x8001e7c ; _freopen_locked + 76
        0x08001e6e:    2862        b(      CMP      r0,#0x62
        0x08001e70:    d009        ..      BEQ      0x8001e86 ; _freopen_locked + 86
        0x08001e72:    f8110c01    ....    LDRB     r0,[r1,#-1]
        0x08001e76:    2874        t(      CMP      r0,#0x74
        0x08001e78:    d00a        ..      BEQ      0x8001e90 ; _freopen_locked + 96
        0x08001e7a:    e00b        ..      B        0x8001e94 ; _freopen_locked + 100
        0x08001e7c:    f0450503    E...    ORR      r5,r5,#3
        0x08001e80:    f0440402    D...    ORR      r4,r4,#2
        0x08001e84:    e7ef        ..      B        0x8001e66 ; _freopen_locked + 54
        0x08001e86:    f0450504    E...    ORR      r5,r5,#4
        0x08001e8a:    f0440401    D...    ORR      r4,r4,#1
        0x08001e8e:    e7ea        ..      B        0x8001e66 ; _freopen_locked + 54
        0x08001e90:    f0440410    D...    ORR      r4,r4,#0x10
        0x08001e94:    4638        8F      MOV      r0,r7
        0x08001e96:    4621        !F      MOV      r1,r4
        0x08001e98:    f7fffa78    ..x.    BL       _sys_open ; 0x800138c
        0x08001e9c:    1c41        A.      ADDS     r1,r0,#1
        0x08001e9e:    d015        ..      BEQ      0x8001ecc ; _freopen_locked + 156
        0x08001ea0:    2100        .!      MOVS     r1,#0
        0x08001ea2:    6131        1a      STR      r1,[r6,#0x10]
        0x08001ea4:    6071        q`      STR      r1,[r6,#4]
        0x08001ea6:    f44f7100    O..q    MOV      r1,#0x200
        0x08001eaa:    60f5        .`      STR      r5,[r6,#0xc]
        0x08001eac:    61f1        .a      STR      r1,[r6,#0x1c]
        0x08001eae:    6170        pa      STR      r0,[r6,#0x14]
        0x08001eb0:    0720         .      LSLS     r0,r4,#28
        0x08001eb2:    d504        ..      BPL      0x8001ebe ; _freopen_locked + 142
        0x08001eb4:    4630        0F      MOV      r0,r6
        0x08001eb6:    2202        ."      MOVS     r2,#2
        0x08001eb8:    2100        .!      MOVS     r1,#0
        0x08001eba:    f7fff831    ..1.    BL       _fseek ; 0x8000f20
        0x08001ebe:    6d30        0m      LDR      r0,[r6,#0x50]
        0x08001ec0:    f0400001    @...    ORR      r0,r0,#1
        0x08001ec4:    6530        0e      STR      r0,[r6,#0x50]
        0x08001ec6:    4630        0F      MOV      r0,r6
        0x08001ec8:    e8bd81f0    ....    POP      {r4-r8,pc}
        0x08001ecc:    2000        .       MOVS     r0,#0
        0x08001ece:    e7fb        ..      B        0x8001ec8 ; _freopen_locked + 152
    fopen
        0x08001ed0:    e92d41f0    -..A    PUSH     {r4-r8,lr}
        0x08001ed4:    460d        .F      MOV      r5,r1
        0x08001ed6:    4606        .F      MOV      r6,r0
        0x08001ed8:    4c10        .L      LDR      r4,[pc,#64] ; [0x8001f1c] = 0x20000168
        0x08001eda:    6d20         m      LDR      r0,[r4,#0x50]
        0x08001edc:    07c1        ..      LSLS     r1,r0,#31
        0x08001ede:    d004        ..      BEQ      0x8001eea ; fopen + 26
        0x08001ee0:    0841        A.      LSRS     r1,r0,#1
        0x08001ee2:    d004        ..      BEQ      0x8001eee ; fopen + 30
        0x08001ee4:    f0200401     ...    BIC      r4,r0,#1
        0x08001ee8:    e7f7        ..      B        0x8001eda ; fopen + 10
        0x08001eea:    4622        "F      MOV      r2,r4
        0x08001eec:    e00e        ..      B        0x8001f0c ; fopen + 60
        0x08001eee:    2054        T       MOVS     r0,#0x54
        0x08001ef0:    f7fffa8c    ....    BL       malloc ; 0x800140c
        0x08001ef4:    0007        ..      MOVS     r7,r0
        0x08001ef6:    d00e        ..      BEQ      0x8001f16 ; fopen + 70
        0x08001ef8:    6d20         m      LDR      r0,[r4,#0x50]
        0x08001efa:    f0470101    G...    ORR      r1,r7,#1
        0x08001efe:    4308        .C      ORRS     r0,r0,r1
        0x08001f00:    2154        T!      MOVS     r1,#0x54
        0x08001f02:    6520         e      STR      r0,[r4,#0x50]
        0x08001f04:    4638        8F      MOV      r0,r7
        0x08001f06:    f000f87d    ..}.    BL       __aeabi_memclr4 ; 0x8002004
        0x08001f0a:    463a        :F      MOV      r2,r7
        0x08001f0c:    4629        )F      MOV      r1,r5
        0x08001f0e:    4630        0F      MOV      r0,r6
        0x08001f10:    e8bd41f0    ...A    POP      {r4-r8,lr}
        0x08001f14:    e78c        ..      B        _freopen_locked ; 0x8001e30
        0x08001f16:    2000        .       MOVS     r0,#0
        0x08001f18:    e7d6        ..      B        0x8001ec8 ; _freopen_locked + 152
    $d
        0x08001f1a:    0000        ..      DCW    0
        0x08001f1c:    20000168    h..     DCD    536871272
    $t
    .text
    _fclose_internal
    fclose
        0x08001f20:    e92d47f0    -..G    PUSH     {r4-r10,lr}
        0x08001f24:    4604        .F      MOV      r4,r0
        0x08001f26:    f04f0900    O...    MOV      r9,#0
        0x08001f2a:    f04f37ff    O..7    MOV      r7,#0xffffffff
        0x08001f2e:    68c5        .h      LDR      r5,[r0,#0xc]
        0x08001f30:    e9d48604    ....    LDRD     r8,r6,[r4,#0x10]
        0x08001f34:    07a8        ..      LSLS     r0,r5,#30
        0x08001f36:    d007        ..      BEQ      0x8001f48 ; _fclose_internal + 40
        0x08001f38:    4620         F      MOV      r0,r4
        0x08001f3a:    f7fff8a1    ....    BL       _fflush ; 0x8001080
        0x08001f3e:    4630        0F      MOV      r0,r6
        0x08001f40:    f7fffa2e    ....    BL       _sys_close ; 0x80013a0
        0x08001f44:    2800        .(      CMP      r0,#0
        0x08001f46:    da02        ..      BGE      0x8001f4e ; _fclose_internal + 46
        0x08001f48:    4638        8F      MOV      r0,r7
        0x08001f4a:    e8bd87f0    ....    POP      {r4-r10,pc}
        0x08001f4e:    0528        (.      LSLS     r0,r5,#20
        0x08001f50:    d502        ..      BPL      0x8001f58 ; _fclose_internal + 56
        0x08001f52:    4640        @F      MOV      r0,r8
        0x08001f54:    f7fffa89    ....    BL       free ; 0x800146a
        0x08001f58:    214c        L!      MOVS     r1,#0x4c
        0x08001f5a:    4620         F      MOV      r0,r4
        0x08001f5c:    f000f852    ..R.    BL       __aeabi_memclr4 ; 0x8002004
        0x08001f60:    6d20         m      LDR      r0,[r4,#0x50]
        0x08001f62:    f0200001     ...    BIC      r0,r0,#1
        0x08001f66:    6520         e      STR      r0,[r4,#0x50]
        0x08001f68:    4648        HF      MOV      r0,r9
        0x08001f6a:    e7ee        ..      B        0x8001f4a ; _fclose_internal + 42
    .text
    _c16rtomb
    _wcrtomb
        0x08001f6c:    e92d41f0    -..A    PUSH     {r4-r8,lr}
        0x08001f70:    4616        .F      MOV      r6,r2
        0x08001f72:    460c        .F      MOV      r4,r1
        0x08001f74:    4605        .F      MOV      r5,r0
        0x08001f76:    f7fefa01    ....    BL       __rt_ctype_table ; 0x800037c
        0x08001f7a:    6803        .h      LDR      r3,[r0,#0]
        0x08001f7c:    f8930101    ....    LDRB     r0,[r3,#0x101]
        0x08001f80:    2801        .(      CMP      r0,#1
        0x08001f82:    d007        ..      BEQ      0x8001f94 ; _c16rtomb + 40
        0x08001f84:    2cff        .,      CMP      r4,#0xff
        0x08001f86:    d812        ..      BHI      0x8001fae ; _c16rtomb + 66
        0x08001f88:    5d18        .]      LDRB     r0,[r3,r4]
        0x08001f8a:    b180        ..      CBZ      r0,0x8001fae ; _c16rtomb + 66
        0x08001f8c:    2001        .       MOVS     r0,#1
        0x08001f8e:    702c        ,p      STRB     r4,[r5,#0]
        0x08001f90:    e8bd81f0    ....    POP      {r4-r8,pc}
        0x08001f94:    f8d30107    ....    LDR      r0,[r3,#0x107]
        0x08001f98:    4632        2F      MOV      r2,r6
        0x08001f9a:    4621        !F      MOV      r1,r4
        0x08001f9c:    f2031307    ....    ADD      r3,r3,#0x107
        0x08001fa0:    18c7        ..      ADDS     r7,r0,r3
        0x08001fa2:    4628        (F      MOV      r0,r5
        0x08001fa4:    46bc        .F      MOV      r12,r7
        0x08001fa6:    e8bd41f0    ...A    POP      {r4-r8,lr}
        0x08001faa:    2300        .#      MOVS     r3,#0
        0x08001fac:    4760        `G      BX       r12
        0x08001fae:    f04f30ff    O..0    MOV      r0,#0xffffffff
        0x08001fb2:    e7ed        ..      B        0x8001f90 ; _c16rtomb + 36
    .text
    __cxa_finalize
        0x08001fb4:    e92d41f0    -..A    PUSH     {r4-r8,lr}
        0x08001fb8:    4606        .F      MOV      r6,r0
        0x08001fba:    f7fffa1f    ....    BL       __rt_ddtor_pointer_addr ; 0x80013fc
        0x08001fbe:    4680        .F      MOV      r8,r0
        0x08001fc0:    4645        EF      MOV      r5,r8
        0x08001fc2:    e013        ..      B        0x8001fec ; __cxa_finalize + 56
        0x08001fc4:    b116        ..      CBZ      r6,0x8001fcc ; __cxa_finalize + 24
        0x08001fc6:    68e0        .h      LDR      r0,[r4,#0xc]
        0x08001fc8:    42b0        .B      CMP      r0,r6
        0x08001fca:    d10e        ..      BNE      0x8001fea ; __cxa_finalize + 54
        0x08001fcc:    6820         h      LDR      r0,[r4,#0]
        0x08001fce:    6028        (`      STR      r0,[r5,#0]
        0x08001fd0:    e9d40101    ....    LDRD     r0,r1,[r4,#4]
        0x08001fd4:    f8d87000    ...p    LDR      r7,[r8,#0]
        0x08001fd8:    4788        .G      BLX      r1
        0x08001fda:    4620         F      MOV      r0,r4
        0x08001fdc:    f7fffa45    ..E.    BL       free ; 0x800146a
        0x08001fe0:    f8d80000    ....    LDR      r0,[r8,#0]
        0x08001fe4:    42b8        .B      CMP      r0,r7
        0x08001fe6:    d1eb        ..      BNE      0x8001fc0 ; __cxa_finalize + 12
        0x08001fe8:    e000        ..      B        0x8001fec ; __cxa_finalize + 56
        0x08001fea:    4625        %F      MOV      r5,r4
        0x08001fec:    682c        ,h      LDR      r4,[r5,#0]
        0x08001fee:    2c00        .,      CMP      r4,#0
        0x08001ff0:    d1e8        ..      BNE      0x8001fc4 ; __cxa_finalize + 16
        0x08001ff2:    e8bd81f0    ....    POP      {r4-r8,pc}
    .text
    __rt_SIGRTRED
        0x08001ff6:    b510        ..      PUSH     {r4,lr}
        0x08001ff8:    f000f962    ..b.    BL       __rt_SIGRTRED_inner ; 0x80022c0
        0x08001ffc:    e8bd4010    ...@    POP      {r4,lr}
        0x08002000:    f000b959    ..Y.    B.W      __sig_exit ; 0x80022b6
    .text
    __aeabi_memclr4
    __aeabi_memclr8
    __rt_memclr_w
        0x08002004:    f04f0200    O...    MOV      r2,#0
    _memset_w
        0x08002008:    b500        ..      PUSH     {lr}
        0x0800200a:    4613        .F      MOV      r3,r2
        0x0800200c:    4694        .F      MOV      r12,r2
        0x0800200e:    4696        .F      MOV      lr,r2
        0x08002010:    3920         9      SUBS     r1,r1,#0x20
        0x08002012:    bf22        ".      ITTT     CS
        0x08002014:    e8a0500c    ...P    STMCS    r0!,{r2,r3,r12,lr}
        0x08002018:    e8a0500c    ...P    STMCS    r0!,{r2,r3,r12,lr}
        0x0800201c:    f1b10120    .. .    SUBSCS   r1,r1,#0x20
        0x08002020:    f4bfaff7    ....    BCS.W    0x8002012 ; _memset_w + 10
        0x08002024:    0709        ..      LSLS     r1,r1,#28
        0x08002026:    bf28        (.      IT       CS
        0x08002028:    e8a0500c    ...P    STMCS    r0!,{r2,r3,r12,lr}
        0x0800202c:    bf48        H.      IT       MI
        0x0800202e:    c00c        ..      STMMI    r0!,{r2,r3}
        0x08002030:    f85deb04    ]...    POP      {lr}
        0x08002034:    0089        ..      LSLS     r1,r1,#2
        0x08002036:    bf28        (.      IT       CS
        0x08002038:    f8402b04    @..+    STRCS    r2,[r0],#4
        0x0800203c:    bf08        ..      IT       EQ
        0x0800203e:    4770        pG      BXEQ     lr
        0x08002040:    bf48        H.      IT       MI
        0x08002042:    f8202b02     ..+    STRHMI   r2,[r0],#2
        0x08002046:    f0114f80    ...O    TST      r1,#0x40000000
        0x0800204a:    bf18        ..      IT       NE
        0x0800204c:    f8002b01    ...+    STRBNE   r2,[r0],#1
        0x08002050:    4770        pG      BX       lr
    .text
    __user_setup_stackheap
        0x08002052:    4675        uF      MOV      r5,lr
        0x08002054:    f7fff9ce    ....    BL       __user_libspace ; 0x80013f4
        0x08002058:    46ae        .F      MOV      lr,r5
        0x0800205a:    0005        ..      MOVS     r5,r0
        0x0800205c:    4669        iF      MOV      r1,sp
        0x0800205e:    4653        SF      MOV      r3,r10
        0x08002060:    f0200007     ...    BIC      r0,r0,#7
        0x08002064:    4685        .F      MOV      sp,r0
        0x08002066:    b018        ..      ADD      sp,sp,#0x60
        0x08002068:    b520         .      PUSH     {r5,lr}
        0x0800206a:    f7fef96b    ..k.    BL       __user_initial_stackheap ; 0x8000344
        0x0800206e:    e8bd4020    .. @    POP      {r5,lr}
        0x08002072:    f04f0600    O...    MOV      r6,#0
        0x08002076:    f04f0700    O...    MOV      r7,#0
        0x0800207a:    f04f0800    O...    MOV      r8,#0
        0x0800207e:    f04f0b00    O...    MOV      r11,#0
        0x08002082:    46ac        .F      MOV      r12,r5
        0x08002084:    e8ac09c0    ....    STM      r12!,{r6-r8,r11}
        0x08002088:    e8ac09c0    ....    STM      r12!,{r6-r8,r11}
        0x0800208c:    e8ac09c0    ....    STM      r12!,{r6-r8,r11}
        0x08002090:    e8ac09c0    ....    STM      r12!,{r6-r8,r11}
        0x08002094:    f0210107    !...    BIC      r1,r1,#7
        0x08002098:    468d        .F      MOV      sp,r1
        0x0800209a:    4770        pG      BX       lr
    .text
    __rt_heap_descriptor
        0x0800209c:    4800        .H      LDR      r0,[pc,#0] ; [0x80020a0] = 0x20000298
        0x0800209e:    4770        pG      BX       lr
    $d
        0x080020a0:    20000298    ...     DCD    536871576
    $t
    .text
    __use_no_heap
        0x080020a4:    4770        pG      BX       lr
    __heap$guard
        0x080020a6:    4770        pG      BX       lr
    .text
    _terminate_user_alloc
        0x080020a8:    4770        pG      BX       lr
    _init_user_alloc
        0x080020aa:    4770        pG      BX       lr
    __Heap_Full
        0x080020ac:    b538        8.      PUSH     {r3-r5,lr}
        0x080020ae:    4604        .F      MOV      r4,r0
        0x080020b0:    460a        .F      MOV      r2,r1
        0x080020b2:    2000        .       MOVS     r0,#0
        0x080020b4:    4669        iF      MOV      r1,sp
        0x080020b6:    f3af8000    ....    NOP.W    
        0x080020ba:    2800        .(      CMP      r0,#0
        0x080020bc:    bf08        ..      IT       EQ
        0x080020be:    bd38        8.      POPEQ    {r3-r5,pc}
        0x080020c0:    4602        .F      MOV      r2,r0
        0x080020c2:    9900        ..      LDR      r1,[sp,#0]
        0x080020c4:    4620         F      MOV      r0,r4
        0x080020c6:    f000f91b    ....    BL       __Heap_ProvideMemory ; 0x8002300
        0x080020ca:    2001        .       MOVS     r0,#1
        0x080020cc:    bd38        8.      POP      {r3-r5,pc}
    __Heap_Broken
        0x080020ce:    2001        .       MOVS     r0,#1
        0x080020d0:    f000b949    ..I.    B.W      __rt_SIGRTMEM ; 0x8002366
    _init_alloc
        0x080020d4:    b5f8        ..      PUSH     {r3-r7,lr}
        0x080020d6:    f3af8000    ....    NOP.W    
        0x080020da:    4605        .F      MOV      r5,r0
        0x080020dc:    2000        .       MOVS     r0,#0
        0x080020de:    460c        .F      MOV      r4,r1
        0x080020e0:    2010        .       MOVS     r0,#0x10
        0x080020e2:    bf00        ..      NOP      
        0x080020e4:    4606        .F      MOV      r6,r0
        0x080020e6:    19a8        ..      ADDS     r0,r5,r6
        0x080020e8:    42a0        .B      CMP      r0,r4
        0x080020ea:    d90d        ..      BLS      0x8002108 ; _init_alloc + 52
        0x080020ec:    4632        2F      MOV      r2,r6
        0x080020ee:    4669        iF      MOV      r1,sp
        0x080020f0:    2000        .       MOVS     r0,#0
        0x080020f2:    f3af8000    ....    NOP.W    
        0x080020f6:    0007        ..      MOVS     r7,r0
        0x080020f8:    bf08        ..      IT       EQ
        0x080020fa:    f000f934    ..4.    BLEQ     __rt_SIGRTMEM ; 0x8002366
        0x080020fe:    9800        ..      LDR      r0,[sp,#0]
        0x08002100:    42a0        .B      CMP      r0,r4
        0x08002102:    bf18        ..      IT       NE
        0x08002104:    4605        .F      MOVNE    r5,r0
        0x08002106:    19c4        ..      ADDS     r4,r0,r7
        0x08002108:    f7ffffc8    ....    BL       __rt_heap_descriptor ; 0x800209c
        0x0800210c:    6005        .`      STR      r5,[r0,#0]
        0x0800210e:    4607        .F      MOV      r7,r0
        0x08002110:    1df0        ..      ADDS     r0,r6,#7
        0x08002112:    f0200007     ...    BIC      r0,r0,#7
        0x08002116:    1946        F.      ADDS     r6,r0,r5
        0x08002118:    4628        (F      MOV      r0,r5
        0x0800211a:    f000f80a    ....    BL       __Heap_Initialize ; 0x8002132
        0x0800211e:    42b4        .B      CMP      r4,r6
        0x08002120:    bf08        ..      IT       EQ
        0x08002122:    bdf8        ..      POPEQ    {r3-r7,pc}
        0x08002124:    1ba2        ..      SUBS     r2,r4,r6
        0x08002126:    4631        1F      MOV      r1,r6
        0x08002128:    6838        8h      LDR      r0,[r7,#0]
        0x0800212a:    e8bd40f8    ...@    POP      {r3-r7,lr}
        0x0800212e:    f000b8e7    ....    B.W      __Heap_ProvideMemory ; 0x8002300
    .text
    __Heap_Initialize
        0x08002132:    2100        .!      MOVS     r1,#0
        0x08002134:    6001        .`      STR      r1,[r0,#0]
        0x08002136:    e9c01001    ....    STRD     r1,r0,[r0,#4]
        0x0800213a:    4770        pG      BX       lr
    __Heap_DescSize
        0x0800213c:    2010        .       MOVS     r0,#0x10
        0x0800213e:    4770        pG      BX       lr
    .text
    _printf_fp_infnan
        0x08002140:    e92d41f0    -..A    PUSH     {r4-r8,lr}
        0x08002144:    461f        .F      MOV      r7,r3
        0x08002146:    4604        .F      MOV      r4,r0
        0x08002148:    2603        .&      MOVS     r6,#3
        0x0800214a:    6801        .h      LDR      r1,[r0,#0]
        0x0800214c:    2a07        .*      CMP      r2,#7
        0x0800214e:    f4016000    ...`    AND      r0,r1,#0x800
        0x08002152:    db04        ..      BLT      0x800215e ; _printf_fp_infnan + 30
        0x08002154:    b108        ..      CBZ      r0,0x800215a ; _printf_fp_infnan + 26
        0x08002156:    a516        ..      ADR      r5,{pc}+0x5a ; 0x80021b0
        0x08002158:    e005        ..      B        0x8002166 ; _printf_fp_infnan + 38
        0x0800215a:    a516        ..      ADR      r5,{pc}+0x5a ; 0x80021b4
        0x0800215c:    e003        ..      B        0x8002166 ; _printf_fp_infnan + 38
        0x0800215e:    b108        ..      CBZ      r0,0x8002164 ; _printf_fp_infnan + 36
        0x08002160:    a515        ..      ADR      r5,{pc}+0x58 ; 0x80021b8
        0x08002162:    e000        ..      B        0x8002166 ; _printf_fp_infnan + 38
        0x08002164:    a515        ..      ADR      r5,{pc}+0x58 ; 0x80021bc
        0x08002166:    f0210010    !...    BIC      r0,r1,#0x10
        0x0800216a:    6020         `      STR      r0,[r4,#0]
        0x0800216c:    69a0        .i      LDR      r0,[r4,#0x18]
        0x0800216e:    1ec0        ..      SUBS     r0,r0,#3
        0x08002170:    61a0        .a      STR      r0,[r4,#0x18]
        0x08002172:    b10f        ..      CBZ      r7,0x8002178 ; _printf_fp_infnan + 56
        0x08002174:    1e40        @.      SUBS     r0,r0,#1
        0x08002176:    61a0        .a      STR      r0,[r4,#0x18]
        0x08002178:    4620         F      MOV      r0,r4
        0x0800217a:    f7fefc2b    ..+.    BL       _printf_pre_padding ; 0x80009d4
        0x0800217e:    b14f        O.      CBZ      r7,0x8002194 ; _printf_fp_infnan + 84
        0x08002180:    e9d42101    ...!    LDRD     r2,r1,[r4,#4]
        0x08002184:    4638        8F      MOV      r0,r7
        0x08002186:    4790        .G      BLX      r2
        0x08002188:    6a20         j      LDR      r0,[r4,#0x20]
        0x0800218a:    1c40        @.      ADDS     r0,r0,#1
        0x0800218c:    6220         b      STR      r0,[r4,#0x20]
        0x0800218e:    1cc0        ..      ADDS     r0,r0,#3
        0x08002190:    6220         b      STR      r0,[r4,#0x20]
        0x08002192:    e006        ..      B        0x80021a2 ; _printf_fp_infnan + 98
        0x08002194:    6a20         j      LDR      r0,[r4,#0x20]
        0x08002196:    e7fa        ..      B        0x800218e ; _printf_fp_infnan + 78
        0x08002198:    e9d42101    ...!    LDRD     r2,r1,[r4,#4]
        0x0800219c:    f8150b01    ....    LDRB     r0,[r5],#1
        0x080021a0:    4790        .G      BLX      r2
        0x080021a2:    1e76        v.      SUBS     r6,r6,#1
        0x080021a4:    d2f8        ..      BCS      0x8002198 ; _printf_fp_infnan + 88
        0x080021a6:    4620         F      MOV      r0,r4
        0x080021a8:    f7fefc2a    ..*.    BL       _printf_post_padding ; 0x8000a00
        0x080021ac:    e8bd81f0    ....    POP      {r4-r8,pc}
    $d
        0x080021b0:    004e414e    NAN.    DCD    5128526
        0x080021b4:    006e616e    nan.    DCD    7233902
        0x080021b8:    00464e49    INF.    DCD    4607561
        0x080021bc:    00666e69    inf.    DCD    6712937
    $t
    .text
    _btod_etento
        0x080021c0:    e92d47f0    -..G    PUSH     {r4-r10,lr}
        0x080021c4:    4681        .F      MOV      r9,r0
        0x080021c6:    4616        .F      MOV      r6,r2
        0x080021c8:    b08a        ..      SUB      sp,sp,#0x28
        0x080021ca:    4835        5H      LDR      r0,[pc,#212] ; [0x80022a0] = 0x5d30
        0x080021cc:    4478        xD      ADD      r0,r0,pc
        0x080021ce:    c80d        ..      LDM      r0,{r0,r2,r3}
        0x080021d0:    e88d000d    ....    STM      sp,{r0,r2,r3}
        0x080021d4:    4832        2H      LDR      r0,[pc,#200] ; [0x80022a0] = 0x5d30
        0x080021d6:    4478        xD      ADD      r0,r0,pc
        0x080021d8:    1c80        ..      ADDS     r0,r0,#2
        0x080021da:    ac03        ..      ADD      r4,sp,#0xc
        0x080021dc:    c80d        ..      LDM      r0,{r0,r2,r3}
        0x080021de:    e884000d    ....    STM      r4,{r0,r2,r3}
        0x080021e2:    f641309b    A..0    MOV      r0,#0x1b9b
        0x080021e6:    4408        .D      ADD      r0,r0,r1
        0x080021e8:    2137        7!      MOVS     r1,#0x37
        0x080021ea:    fb90f2f1    ....    SDIV     r2,r0,r1
        0x080021ee:    fb90f5f1    ....    SDIV     r5,r0,r1
        0x080021f2:    f1a50580    ....    SUB      r5,r5,#0x80
        0x080021f6:    fb010412    ....    MLS      r4,r1,r2,r0
        0x080021fa:    3c1b        .<      SUBS     r4,r4,#0x1b
        0x080021fc:    d502        ..      BPL      0x8002204 ; _btod_etento + 68
        0x080021fe:    4264        dB      RSBS     r4,r4,#0
        0x08002200:    2001        .       MOVS     r0,#1
        0x08002202:    e000        ..      B        0x8002206 ; _btod_etento + 70
        0x08002204:    2000        .       MOVS     r0,#0
        0x08002206:    f8dfa098    ....    LDR      r10,[pc,#152] ; [0x80022a0] = 0x5d30
        0x0800220a:    4680        .F      MOV      r8,r0
        0x0800220c:    2700        .'      MOVS     r7,#0
        0x0800220e:    44fa        .D      ADD      r10,r10,pc
        0x08002210:    f1aa0abe    ....    SUB      r10,r10,#0xbe
        0x08002214:    e00e        ..      B        0x8002234 ; _btod_etento + 116
        0x08002216:    07e0        ..      LSLS     r0,r4,#31
        0x08002218:    d00a        ..      BEQ      0x8002230 ; _btod_etento + 112
        0x0800221a:    4632        2F      MOV      r2,r6
        0x0800221c:    4668        hF      MOV      r0,sp
        0x0800221e:    eb070147    ..G.    ADD      r1,r7,r7,LSL #1
        0x08002222:    2301        .#      MOVS     r3,#1
        0x08002224:    eb0a0181    ....    ADD      r1,r10,r1,LSL #2
        0x08002228:    f004fe99    ....    BL       _btod_emul ; 0x8006f5e
        0x0800222c:    e88d0007    ....    STM      sp,{r0-r2}
        0x08002230:    1064        d.      ASRS     r4,r4,#1
        0x08002232:    1c7f        ..      ADDS     r7,r7,#1
        0x08002234:    2c00        .,      CMP      r4,#0
        0x08002236:    d1ee        ..      BNE      0x8002216 ; _btod_etento + 86
        0x08002238:    4f19        .O      LDR      r7,[pc,#100] ; [0x80022a0] = 0x5d30
        0x0800223a:    447f        .D      ADD      r7,r7,pc
        0x0800223c:    3fae        .?      SUBS     r7,r7,#0xae
        0x0800223e:    e019        ..      B        0x8002274 ; _btod_etento + 180
        0x08002240:    07e8        ..      LSLS     r0,r5,#31
        0x08002242:    d015        ..      BEQ      0x8002270 ; _btod_etento + 176
        0x08002244:    eb071004    ....    ADD      r0,r7,r4,LSL #4
        0x08002248:    f10d0a18    ....    ADD      r10,sp,#0x18
        0x0800224c:    e890000e    ....    LDM      r0,{r1-r3}
        0x08002250:    e88a000e    ....    STM      r10,{r1-r3}
        0x08002254:    68c0        .h      LDR      r0,[r0,#0xc]
        0x08002256:    42f0        .B      CMN      r0,r6
        0x08002258:    d101        ..      BNE      0x800225e ; _btod_etento + 158
        0x0800225a:    1998        ..      ADDS     r0,r3,r6
        0x0800225c:    9008        ..      STR      r0,[sp,#0x20]
        0x0800225e:    4632        2F      MOV      r2,r6
        0x08002260:    2301        .#      MOVS     r3,#1
        0x08002262:    a906        ..      ADD      r1,sp,#0x18
        0x08002264:    a803        ..      ADD      r0,sp,#0xc
        0x08002266:    f004fe7a    ..z.    BL       _btod_emul ; 0x8006f5e
        0x0800226a:    ab03        ..      ADD      r3,sp,#0xc
        0x0800226c:    e8830007    ....    STM      r3,{r0-r2}
        0x08002270:    106d        m.      ASRS     r5,r5,#1
        0x08002272:    1c64        d.      ADDS     r4,r4,#1
        0x08002274:    2d00        .-      CMP      r5,#0
        0x08002276:    d1e3        ..      BNE      0x8002240 ; _btod_etento + 128
        0x08002278:    f04f0301    O...    MOV      r3,#1
        0x0800227c:    4632        2F      MOV      r2,r6
        0x0800227e:    4669        iF      MOV      r1,sp
        0x08002280:    f1b80f00    ....    CMP      r8,#0
        0x08002284:    a803        ..      ADD      r0,sp,#0xc
        0x08002286:    d002        ..      BEQ      0x800228e ; _btod_etento + 206
        0x08002288:    f004fe54    ..T.    BL       _btod_ediv ; 0x8006f34
        0x0800228c:    e001        ..      B        0x8002292 ; _btod_etento + 210
        0x0800228e:    f004fe66    ..f.    BL       _btod_emul ; 0x8006f5e
        0x08002292:    e9c90100    ....    STRD     r0,r1,[r9,#0]
        0x08002296:    f8c92008    ...     STR      r2,[r9,#8]
        0x0800229a:    b00a        ..      ADD      sp,sp,#0x28
        0x0800229c:    e8bd87f0    ....    POP      {r4-r10,pc}
    $d
        0x080022a0:    00005d30    0]..    DCD    23856
    $t
    .text
    exit
        0x080022a4:    b510        ..      PUSH     {r4,lr}
        0x080022a6:    4604        .F      MOV      r4,r0
        0x080022a8:    f3af8000    ....    NOP.W    
        0x080022ac:    4620         F      MOV      r0,r4
        0x080022ae:    e8bd4010    ...@    POP      {r4,lr}
        0x080022b2:    f7feb832    ..2.    B        __rt_exit ; 0x800031a
    .text
    __sig_exit
        0x080022b6:    2800        .(      CMP      r0,#0
        0x080022b8:    d001        ..      BEQ      0x80022be ; __sig_exit + 8
        0x080022ba:    f000b81b    ....    B.W      _sys_exit ; 0x80022f4
        0x080022be:    4770        pG      BX       lr
    .text
    __rt_SIGRTRED_inner
        0x080022c0:    b510        ..      PUSH     {r4,lr}
        0x080022c2:    4601        .F      MOV      r1,r0
        0x080022c4:    a002        ..      ADR      r0,{pc}+0xc ; 0x80022d0
        0x080022c6:    f000f835    ..5.    BL       __default_signal_display ; 0x8002334
        0x080022ca:    2001        .       MOVS     r0,#1
        0x080022cc:    bd10        ..      POP      {r4,pc}
    $d
        0x080022ce:    0000        ..      DCW    0
        0x080022d0:    52474953    SIGR    DCD    1380403539
        0x080022d4:    44455254    TRED    DCD    1145393748
        0x080022d8:    6552203a    : Re    DCD    1699881018
        0x080022dc:    65726964    dire    DCD    1701996900
        0x080022e0:    203a7463    ct:     DCD    540701795
        0x080022e4:    276e6163    can'    DCD    661545315
        0x080022e8:    706f2074    t op    DCD    1886330996
        0x080022ec:    203a6e65    en:     DCD    540700261
        0x080022f0:    00000000    ....    DCD    0
    $t
    .text
    _sys_exit
        0x080022f4:    4901        .I      LDR      r1,[pc,#4] ; [0x80022fc] = 0x20026
        0x080022f6:    2018        .       MOVS     r0,#0x18
        0x080022f8:    beab        ..      BKPT     #0xab
        0x080022fa:    e7fe        ..      B        0x80022fa ; _sys_exit + 6
    $d
        0x080022fc:    00020026    &...    DCD    131110
    $t
    .text
    .text
    __Heap_ProvideMemory
    _maybe_terminate_alloc
        0x08002300:    4603        .F      MOV      r3,r0
        0x08002302:    6840        @h      LDR      r0,[r0,#4]
        0x08002304:    468c        .F      MOV      r12,r1
        0x08002306:    2800        .(      CMP      r0,#0
        0x08002308:    bf18        ..      IT       NE
        0x0800230a:    4288        .B      CMPNE    r0,r1
        0x0800230c:    bf3c        <.      ITT      CC
        0x0800230e:    4603        .F      MOVCC    r3,r0
        0x08002310:    6840        @h      LDRCC    r0,[r0,#4]
        0x08002312:    d3f8        ..      BCC      0x8002306 ; __Heap_ProvideMemory + 6
        0x08002314:    6818        .h      LDR      r0,[r3,#0]
        0x08002316:    4418        .D      ADD      r0,r0,r3
        0x08002318:    4288        .B      CMP      r0,r1
        0x0800231a:    d007        ..      BEQ      0x800232c ; __Heap_ProvideMemory + 44
        0x0800231c:    f10c0003    ....    ADD      r0,r12,#3
        0x08002320:    f0200007     ...    BIC      r0,r0,#7
        0x08002324:    1d00        ..      ADDS     r0,r0,#4
        0x08002326:    1a41        A.      SUBS     r1,r0,r1
        0x08002328:    1a52        R.      SUBS     r2,r2,r1
        0x0800232a:    4601        .F      MOV      r1,r0
        0x0800232c:    1d08        ..      ADDS     r0,r1,#4
        0x0800232e:    600a        .`      STR      r2,[r1,#0]
        0x08002330:    f7ffb89b    ....    B        free ; 0x800146a
    .text
    __default_signal_display
        0x08002334:    b570        p.      PUSH     {r4-r6,lr}
        0x08002336:    4605        .F      MOV      r5,r0
        0x08002338:    460c        .F      MOV      r4,r1
        0x0800233a:    200a        .       MOVS     r0,#0xa
        0x0800233c:    e000        ..      B        0x8002340 ; __default_signal_display + 12
        0x0800233e:    1c6d        m.      ADDS     r5,r5,#1
        0x08002340:    f000f818    ....    BL       _ttywrch ; 0x8002374
        0x08002344:    b135        5.      CBZ      r5,0x8002354 ; __default_signal_display + 32
        0x08002346:    7828        (x      LDRB     r0,[r5,#0]
        0x08002348:    2800        .(      CMP      r0,#0
        0x0800234a:    d1f8        ..      BNE      0x800233e ; __default_signal_display + 10
        0x0800234c:    e002        ..      B        0x8002354 ; __default_signal_display + 32
        0x0800234e:    1c64        d.      ADDS     r4,r4,#1
        0x08002350:    f000f810    ....    BL       _ttywrch ; 0x8002374
        0x08002354:    b114        ..      CBZ      r4,0x800235c ; __default_signal_display + 40
        0x08002356:    7820         x      LDRB     r0,[r4,#0]
        0x08002358:    2800        .(      CMP      r0,#0
        0x0800235a:    d1f8        ..      BNE      0x800234e ; __default_signal_display + 26
        0x0800235c:    e8bd4070    ..p@    POP      {r4-r6,lr}
        0x08002360:    200a        .       MOVS     r0,#0xa
        0x08002362:    f000b807    ....    B.W      _ttywrch ; 0x8002374
    .text
    __rt_SIGRTMEM
        0x08002366:    b510        ..      PUSH     {r4,lr}
        0x08002368:    f000f80c    ....    BL       __rt_SIGRTMEM_inner ; 0x8002384
        0x0800236c:    e8bd4010    ...@    POP      {r4,lr}
        0x08002370:    f7ffbfa1    ....    B.W      __sig_exit ; 0x80022b6
    .text
    _ttywrch
        0x08002374:    b508        ..      PUSH     {r3,lr}
        0x08002376:    4669        iF      MOV      r1,sp
        0x08002378:    f88d0000    ....    STRB     r0,[sp,#0]
        0x0800237c:    2003        .       MOVS     r0,#3
        0x0800237e:    beab        ..      BKPT     #0xab
        0x08002380:    bd08        ..      POP      {r3,pc}
        0x08002382:    0000        ..      MOVS     r0,r0
    .text
    __rt_SIGRTMEM_inner
        0x08002384:    b510        ..      PUSH     {r4,lr}
        0x08002386:    2801        .(      CMP      r0,#1
        0x08002388:    d005        ..      BEQ      0x8002396 ; __rt_SIGRTMEM_inner + 18
        0x0800238a:    2100        .!      MOVS     r1,#0
        0x0800238c:    a003        ..      ADR      r0,{pc}+0x10 ; 0x800239c
        0x0800238e:    f7ffffd1    ....    BL       __default_signal_display ; 0x8002334
        0x08002392:    2001        .       MOVS     r0,#1
        0x08002394:    bd10        ..      POP      {r4,pc}
        0x08002396:    a109        ..      ADR      r1,{pc}+0x26 ; 0x80023bc
        0x08002398:    e7f8        ..      B        0x800238c ; __rt_SIGRTMEM_inner + 8
    $d
        0x0800239a:    0000        ..      DCW    0
        0x0800239c:    52474953    SIGR    DCD    1380403539
        0x080023a0:    4d454d54    TMEM    DCD    1296387412
        0x080023a4:    754f203a    : Ou    DCD    1968119866
        0x080023a8:    666f2074    t of    DCD    1718558836
        0x080023ac:    61656820     hea    DCD    1634035744
        0x080023b0:    656d2070    p me    DCD    1701650544
        0x080023b4:    79726f6d    mory    DCD    2037542765
        0x080023b8:    00000000    ....    DCD    0
        0x080023bc:    6548203a    : He    DCD    1699225658
        0x080023c0:    6d207061    ap m    DCD    1830842465
        0x080023c4:    726f6d65    emor    DCD    1919905125
        0x080023c8:    6f632079    y co    DCD    1868767353
        0x080023cc:    70757272    rrup    DCD    1886745202
        0x080023d0:    00646574    ted.    DCD    6579572
    $t.2
    BusFault_Handler
        0x080023d4:    e7ff        ..      B        0x80023d6 ; BusFault_Handler + 2
        0x080023d6:    e7fe        ..      B        0x80023d6 ; BusFault_Handler + 2
    DebugMon_Handler
        0x080023d8:    4770        pG      BX       lr
        0x080023da:    0000        ..      MOVS     r0,r0
    EXTI9_5_IRQHandler
        0x080023dc:    b580        ..      PUSH     {r7,lr}
        0x080023de:    f44f7000    O..p    MOV      r0,#0x200
        0x080023e2:    f000f821    ..!.    BL       EXTI_GetITStatus ; 0x8002428
        0x080023e6:    b198        ..      CBZ      r0,0x8002410 ; EXTI9_5_IRQHandler + 52
        0x080023e8:    e7ff        ..      B        0x80023ea ; EXTI9_5_IRQHandler + 14
        0x080023ea:    f640010c    @...    MOV      r1,#0x80c
        0x080023ee:    f2c40101    ....    MOVT     r1,#0x4001
        0x080023f2:    6808        .h      LDR      r0,[r1,#0]
        0x080023f4:    f4807080    ...p    EOR      r0,r0,#0x100
        0x080023f8:    6008        .`      STR      r0,[r1,#0]
        0x080023fa:    f2403130    @.01    MOVW     r1,#0x330
        0x080023fe:    f2c20100    ....    MOVT     r1,#0x2000
        0x08002402:    2001        .       MOVS     r0,#1
        0x08002404:    7008        .p      STRB     r0,[r1,#0]
        0x08002406:    f44f7000    O..p    MOV      r0,#0x200
        0x0800240a:    f000f803    ....    BL       EXTI_ClrITPendBit ; 0x8002414
        0x0800240e:    e7ff        ..      B        0x8002410 ; EXTI9_5_IRQHandler + 52
        0x08002410:    bd80        ..      POP      {r7,pc}
        0x08002412:    0000        ..      MOVS     r0,r0
    EXTI_ClrITPendBit
        0x08002414:    b081        ..      SUB      sp,sp,#4
        0x08002416:    9000        ..      STR      r0,[sp,#0]
        0x08002418:    9800        ..      LDR      r0,[sp,#0]
        0x0800241a:    f2404114    @..A    MOV      r1,#0x414
        0x0800241e:    f2c40101    ....    MOVT     r1,#0x4001
        0x08002422:    6008        .`      STR      r0,[r1,#0]
        0x08002424:    b001        ..      ADD      sp,sp,#4
        0x08002426:    4770        pG      BX       lr
    EXTI_GetITStatus
        0x08002428:    b083        ..      SUB      sp,sp,#0xc
        0x0800242a:    9002        ..      STR      r0,[sp,#8]
        0x0800242c:    2000        .       MOVS     r0,#0
        0x0800242e:    f88d0007    ....    STRB     r0,[sp,#7]
        0x08002432:    9000        ..      STR      r0,[sp,#0]
        0x08002434:    f2404000    @..@    MOVW     r0,#0x400
        0x08002438:    f2c40001    ....    MOVT     r0,#0x4001
        0x0800243c:    6800        .h      LDR      r0,[r0,#0]
        0x0800243e:    9902        ..      LDR      r1,[sp,#8]
        0x08002440:    4008        .@      ANDS     r0,r0,r1
        0x08002442:    9000        ..      STR      r0,[sp,#0]
        0x08002444:    f2404014    @..@    MOV      r0,#0x414
        0x08002448:    f2c40001    ....    MOVT     r0,#0x4001
        0x0800244c:    6800        .h      LDR      r0,[r0,#0]
        0x0800244e:    9902        ..      LDR      r1,[sp,#8]
        0x08002450:    4208        .B      TST      r0,r1
        0x08002452:    d007        ..      BEQ      0x8002464 ; EXTI_GetITStatus + 60
        0x08002454:    e7ff        ..      B        0x8002456 ; EXTI_GetITStatus + 46
        0x08002456:    9800        ..      LDR      r0,[sp,#0]
        0x08002458:    b120         .      CBZ      r0,0x8002464 ; EXTI_GetITStatus + 60
        0x0800245a:    e7ff        ..      B        0x800245c ; EXTI_GetITStatus + 52
        0x0800245c:    2001        .       MOVS     r0,#1
        0x0800245e:    f88d0007    ....    STRB     r0,[sp,#7]
        0x08002462:    e003        ..      B        0x800246c ; EXTI_GetITStatus + 68
        0x08002464:    2000        .       MOVS     r0,#0
        0x08002466:    f88d0007    ....    STRB     r0,[sp,#7]
        0x0800246a:    e7ff        ..      B        0x800246c ; EXTI_GetITStatus + 68
        0x0800246c:    f89d0007    ....    LDRB     r0,[sp,#7]
        0x08002470:    b003        ..      ADD      sp,sp,#0xc
        0x08002472:    4770        pG      BX       lr
    EXTI_InitPeripheral
        0x08002474:    b082        ..      SUB      sp,sp,#8
        0x08002476:    9001        ..      STR      r0,[sp,#4]
        0x08002478:    2000        .       MOVS     r0,#0
        0x0800247a:    9000        ..      STR      r0,[sp,#0]
        0x0800247c:    f2404000    @..@    MOVW     r0,#0x400
        0x08002480:    f2c40001    ....    MOVT     r0,#0x4001
        0x08002484:    9000        ..      STR      r0,[sp,#0]
        0x08002486:    9801        ..      LDR      r0,[sp,#4]
        0x08002488:    7980        .y      LDRB     r0,[r0,#6]
        0x0800248a:    2800        .(      CMP      r0,#0
        0x0800248c:    d059        Y.      BEQ      0x8002542 ; EXTI_InitPeripheral + 206
        0x0800248e:    e7ff        ..      B        0x8002490 ; EXTI_InitPeripheral + 28
        0x08002490:    9801        ..      LDR      r0,[sp,#4]
        0x08002492:    6802        .h      LDR      r2,[r0,#0]
        0x08002494:    f2404100    @..A    MOVW     r1,#0x400
        0x08002498:    f2c40101    ....    MOVT     r1,#0x4001
        0x0800249c:    6808        .h      LDR      r0,[r1,#0]
        0x0800249e:    4390        .C      BICS     r0,r0,r2
        0x080024a0:    6008        .`      STR      r0,[r1,#0]
        0x080024a2:    9801        ..      LDR      r0,[sp,#4]
        0x080024a4:    6802        .h      LDR      r2,[r0,#0]
        0x080024a6:    f2404104    @..A    MOV      r1,#0x404
        0x080024aa:    f2c40101    ....    MOVT     r1,#0x4001
        0x080024ae:    6808        .h      LDR      r0,[r1,#0]
        0x080024b0:    4390        .C      BICS     r0,r0,r2
        0x080024b2:    6008        .`      STR      r0,[r1,#0]
        0x080024b4:    9801        ..      LDR      r0,[sp,#4]
        0x080024b6:    7901        .y      LDRB     r1,[r0,#4]
        0x080024b8:    9800        ..      LDR      r0,[sp,#0]
        0x080024ba:    4408        .D      ADD      r0,r0,r1
        0x080024bc:    9000        ..      STR      r0,[sp,#0]
        0x080024be:    9801        ..      LDR      r0,[sp,#4]
        0x080024c0:    6802        .h      LDR      r2,[r0,#0]
        0x080024c2:    9900        ..      LDR      r1,[sp,#0]
        0x080024c4:    6808        .h      LDR      r0,[r1,#0]
        0x080024c6:    4310        .C      ORRS     r0,r0,r2
        0x080024c8:    6008        .`      STR      r0,[r1,#0]
        0x080024ca:    9801        ..      LDR      r0,[sp,#4]
        0x080024cc:    6802        .h      LDR      r2,[r0,#0]
        0x080024ce:    f2404108    @..A    MOVW     r1,#0x408
        0x080024d2:    f2c40101    ....    MOVT     r1,#0x4001
        0x080024d6:    6808        .h      LDR      r0,[r1,#0]
        0x080024d8:    4390        .C      BICS     r0,r0,r2
        0x080024da:    6008        .`      STR      r0,[r1,#0]
        0x080024dc:    9801        ..      LDR      r0,[sp,#4]
        0x080024de:    6802        .h      LDR      r2,[r0,#0]
        0x080024e0:    f240410c    @..A    MOV      r1,#0x40c
        0x080024e4:    f2c40101    ....    MOVT     r1,#0x4001
        0x080024e8:    6808        .h      LDR      r0,[r1,#0]
        0x080024ea:    4390        .C      BICS     r0,r0,r2
        0x080024ec:    6008        .`      STR      r0,[r1,#0]
        0x080024ee:    9801        ..      LDR      r0,[sp,#4]
        0x080024f0:    7940        @y      LDRB     r0,[r0,#5]
        0x080024f2:    2810        .(      CMP      r0,#0x10
        0x080024f4:    d113        ..      BNE      0x800251e ; EXTI_InitPeripheral + 170
        0x080024f6:    e7ff        ..      B        0x80024f8 ; EXTI_InitPeripheral + 132
        0x080024f8:    9801        ..      LDR      r0,[sp,#4]
        0x080024fa:    6802        .h      LDR      r2,[r0,#0]
        0x080024fc:    f2404108    @..A    MOVW     r1,#0x408
        0x08002500:    f2c40101    ....    MOVT     r1,#0x4001
        0x08002504:    6808        .h      LDR      r0,[r1,#0]
        0x08002506:    4310        .C      ORRS     r0,r0,r2
        0x08002508:    6008        .`      STR      r0,[r1,#0]
        0x0800250a:    9801        ..      LDR      r0,[sp,#4]
        0x0800250c:    6802        .h      LDR      r2,[r0,#0]
        0x0800250e:    f240410c    @..A    MOV      r1,#0x40c
        0x08002512:    f2c40101    ....    MOVT     r1,#0x4001
        0x08002516:    6808        .h      LDR      r0,[r1,#0]
        0x08002518:    4310        .C      ORRS     r0,r0,r2
        0x0800251a:    6008        .`      STR      r0,[r1,#0]
        0x0800251c:    e010        ..      B        0x8002540 ; EXTI_InitPeripheral + 204
        0x0800251e:    f2404000    @..@    MOVW     r0,#0x400
        0x08002522:    f2c40001    ....    MOVT     r0,#0x4001
        0x08002526:    9000        ..      STR      r0,[sp,#0]
        0x08002528:    9801        ..      LDR      r0,[sp,#4]
        0x0800252a:    7941        Ay      LDRB     r1,[r0,#5]
        0x0800252c:    9800        ..      LDR      r0,[sp,#0]
        0x0800252e:    4408        .D      ADD      r0,r0,r1
        0x08002530:    9000        ..      STR      r0,[sp,#0]
        0x08002532:    9801        ..      LDR      r0,[sp,#4]
        0x08002534:    6802        .h      LDR      r2,[r0,#0]
        0x08002536:    9900        ..      LDR      r1,[sp,#0]
        0x08002538:    6808        .h      LDR      r0,[r1,#0]
        0x0800253a:    4310        .C      ORRS     r0,r0,r2
        0x0800253c:    6008        .`      STR      r0,[r1,#0]
        0x0800253e:    e7ff        ..      B        0x8002540 ; EXTI_InitPeripheral + 204
        0x08002540:    e00b        ..      B        0x800255a ; EXTI_InitPeripheral + 230
        0x08002542:    9801        ..      LDR      r0,[sp,#4]
        0x08002544:    7901        .y      LDRB     r1,[r0,#4]
        0x08002546:    9800        ..      LDR      r0,[sp,#0]
        0x08002548:    4408        .D      ADD      r0,r0,r1
        0x0800254a:    9000        ..      STR      r0,[sp,#0]
        0x0800254c:    9801        ..      LDR      r0,[sp,#4]
        0x0800254e:    6802        .h      LDR      r2,[r0,#0]
        0x08002550:    9900        ..      LDR      r1,[sp,#0]
        0x08002552:    6808        .h      LDR      r0,[r1,#0]
        0x08002554:    4390        .C      BICS     r0,r0,r2
        0x08002556:    6008        .`      STR      r0,[r1,#0]
        0x08002558:    e7ff        ..      B        0x800255a ; EXTI_InitPeripheral + 230
        0x0800255a:    b002        ..      ADD      sp,sp,#8
        0x0800255c:    4770        pG      BX       lr
        0x0800255e:    0000        ..      MOVS     r0,r0
    GPIO_ConfigEXTILine
        0x08002560:    b082        ..      SUB      sp,sp,#8
        0x08002562:    f88d0007    ....    STRB     r0,[sp,#7]
        0x08002566:    f88d1006    ....    STRB     r1,[sp,#6]
        0x0800256a:    2000        .       MOVS     r0,#0
        0x0800256c:    9000        ..      STR      r0,[sp,#0]
        0x0800256e:    f89d0006    ....    LDRB     r0,[sp,#6]
        0x08002572:    f0000003    ....    AND      r0,r0,#3
        0x08002576:    0081        ..      LSLS     r1,r0,#2
        0x08002578:    200f        .       MOVS     r0,#0xf
        0x0800257a:    4088        .@      LSLS     r0,r0,r1
        0x0800257c:    9000        ..      STR      r0,[sp,#0]
        0x0800257e:    9b00        ..      LDR      r3,[sp,#0]
        0x08002580:    f89d0006    ....    LDRB     r0,[sp,#6]
        0x08002584:    f00001fc    ....    AND      r1,r0,#0xfc
        0x08002588:    2208        ."      MOVS     r2,#8
        0x0800258a:    f2c40201    ....    MOVT     r2,#0x4001
        0x0800258e:    5888        .X      LDR      r0,[r1,r2]
        0x08002590:    4398        .C      BICS     r0,r0,r3
        0x08002592:    5088        .P      STR      r0,[r1,r2]
        0x08002594:    f89d1007    ....    LDRB     r1,[sp,#7]
        0x08002598:    f89d0006    ....    LDRB     r0,[sp,#6]
        0x0800259c:    f0000303    ....    AND      r3,r0,#3
        0x080025a0:    009b        ..      LSLS     r3,r3,#2
        0x080025a2:    fa01f303    ....    LSL      r3,r1,r3
        0x080025a6:    f00001fc    ....    AND      r1,r0,#0xfc
        0x080025aa:    5888        .X      LDR      r0,[r1,r2]
        0x080025ac:    4318        .C      ORRS     r0,r0,r3
        0x080025ae:    5088        .P      STR      r0,[r1,r2]
        0x080025b0:    b002        ..      ADD      sp,sp,#8
        0x080025b2:    4770        pG      BX       lr
    GPIO_InitPeripheral
        0x080025b4:    b088        ..      SUB      sp,sp,#0x20
        0x080025b6:    9007        ..      STR      r0,[sp,#0x1c]
        0x080025b8:    9106        ..      STR      r1,[sp,#0x18]
        0x080025ba:    2000        .       MOVS     r0,#0
        0x080025bc:    9005        ..      STR      r0,[sp,#0x14]
        0x080025be:    9004        ..      STR      r0,[sp,#0x10]
        0x080025c0:    9003        ..      STR      r0,[sp,#0xc]
        0x080025c2:    9002        ..      STR      r0,[sp,#8]
        0x080025c4:    9001        ..      STR      r0,[sp,#4]
        0x080025c6:    9000        ..      STR      r0,[sp,#0]
        0x080025c8:    9806        ..      LDR      r0,[sp,#0x18]
        0x080025ca:    78c0        .x      LDRB     r0,[r0,#3]
        0x080025cc:    f000000f    ....    AND      r0,r0,#0xf
        0x080025d0:    9005        ..      STR      r0,[sp,#0x14]
        0x080025d2:    9806        ..      LDR      r0,[sp,#0x18]
        0x080025d4:    78c0        .x      LDRB     r0,[r0,#3]
        0x080025d6:    06c0        ..      LSLS     r0,r0,#27
        0x080025d8:    2800        .(      CMP      r0,#0
        0x080025da:    d506        ..      BPL      0x80025ea ; GPIO_InitPeripheral + 54
        0x080025dc:    e7ff        ..      B        0x80025de ; GPIO_InitPeripheral + 42
        0x080025de:    9806        ..      LDR      r0,[sp,#0x18]
        0x080025e0:    7881        .x      LDRB     r1,[r0,#2]
        0x080025e2:    9805        ..      LDR      r0,[sp,#0x14]
        0x080025e4:    4308        .C      ORRS     r0,r0,r1
        0x080025e6:    9005        ..      STR      r0,[sp,#0x14]
        0x080025e8:    e7ff        ..      B        0x80025ea ; GPIO_InitPeripheral + 54
        0x080025ea:    9806        ..      LDR      r0,[sp,#0x18]
        0x080025ec:    7800        .x      LDRB     r0,[r0,#0]
        0x080025ee:    2800        .(      CMP      r0,#0
        0x080025f0:    d04b        K.      BEQ      0x800268a ; GPIO_InitPeripheral + 214
        0x080025f2:    e7ff        ..      B        0x80025f4 ; GPIO_InitPeripheral + 64
        0x080025f4:    9807        ..      LDR      r0,[sp,#0x1c]
        0x080025f6:    6800        .h      LDR      r0,[r0,#0]
        0x080025f8:    9001        ..      STR      r0,[sp,#4]
        0x080025fa:    2000        .       MOVS     r0,#0
        0x080025fc:    9003        ..      STR      r0,[sp,#0xc]
        0x080025fe:    e7ff        ..      B        0x8002600 ; GPIO_InitPeripheral + 76
        0x08002600:    9803        ..      LDR      r0,[sp,#0xc]
        0x08002602:    2807        .(      CMP      r0,#7
        0x08002604:    d83d        =.      BHI      0x8002682 ; GPIO_InitPeripheral + 206
        0x08002606:    e7ff        ..      B        0x8002608 ; GPIO_InitPeripheral + 84
        0x08002608:    9903        ..      LDR      r1,[sp,#0xc]
        0x0800260a:    2001        .       MOVS     r0,#1
        0x0800260c:    4088        .@      LSLS     r0,r0,r1
        0x0800260e:    9002        ..      STR      r0,[sp,#8]
        0x08002610:    9806        ..      LDR      r0,[sp,#0x18]
        0x08002612:    8800        ..      LDRH     r0,[r0,#0]
        0x08002614:    9902        ..      LDR      r1,[sp,#8]
        0x08002616:    4008        .@      ANDS     r0,r0,r1
        0x08002618:    9004        ..      STR      r0,[sp,#0x10]
        0x0800261a:    9804        ..      LDR      r0,[sp,#0x10]
        0x0800261c:    9902        ..      LDR      r1,[sp,#8]
        0x0800261e:    4288        .B      CMP      r0,r1
        0x08002620:    d12a        *.      BNE      0x8002678 ; GPIO_InitPeripheral + 196
        0x08002622:    e7ff        ..      B        0x8002624 ; GPIO_InitPeripheral + 112
        0x08002624:    9803        ..      LDR      r0,[sp,#0xc]
        0x08002626:    0080        ..      LSLS     r0,r0,#2
        0x08002628:    9002        ..      STR      r0,[sp,#8]
        0x0800262a:    9902        ..      LDR      r1,[sp,#8]
        0x0800262c:    200f        .       MOVS     r0,#0xf
        0x0800262e:    4088        .@      LSLS     r0,r0,r1
        0x08002630:    9000        ..      STR      r0,[sp,#0]
        0x08002632:    9900        ..      LDR      r1,[sp,#0]
        0x08002634:    9801        ..      LDR      r0,[sp,#4]
        0x08002636:    4388        .C      BICS     r0,r0,r1
        0x08002638:    9001        ..      STR      r0,[sp,#4]
        0x0800263a:    9805        ..      LDR      r0,[sp,#0x14]
        0x0800263c:    9902        ..      LDR      r1,[sp,#8]
        0x0800263e:    fa00f101    ....    LSL      r1,r0,r1
        0x08002642:    9801        ..      LDR      r0,[sp,#4]
        0x08002644:    4308        .C      ORRS     r0,r0,r1
        0x08002646:    9001        ..      STR      r0,[sp,#4]
        0x08002648:    9806        ..      LDR      r0,[sp,#0x18]
        0x0800264a:    78c0        .x      LDRB     r0,[r0,#3]
        0x0800264c:    2828        ((      CMP      r0,#0x28
        0x0800264e:    d106        ..      BNE      0x800265e ; GPIO_InitPeripheral + 170
        0x08002650:    e7ff        ..      B        0x8002652 ; GPIO_InitPeripheral + 158
        0x08002652:    9903        ..      LDR      r1,[sp,#0xc]
        0x08002654:    2001        .       MOVS     r0,#1
        0x08002656:    4088        .@      LSLS     r0,r0,r1
        0x08002658:    9907        ..      LDR      r1,[sp,#0x1c]
        0x0800265a:    6148        Ha      STR      r0,[r1,#0x14]
        0x0800265c:    e00b        ..      B        0x8002676 ; GPIO_InitPeripheral + 194
        0x0800265e:    9806        ..      LDR      r0,[sp,#0x18]
        0x08002660:    78c0        .x      LDRB     r0,[r0,#3]
        0x08002662:    2848        H(      CMP      r0,#0x48
        0x08002664:    d106        ..      BNE      0x8002674 ; GPIO_InitPeripheral + 192
        0x08002666:    e7ff        ..      B        0x8002668 ; GPIO_InitPeripheral + 180
        0x08002668:    9903        ..      LDR      r1,[sp,#0xc]
        0x0800266a:    2001        .       MOVS     r0,#1
        0x0800266c:    4088        .@      LSLS     r0,r0,r1
        0x0800266e:    9907        ..      LDR      r1,[sp,#0x1c]
        0x08002670:    6108        .a      STR      r0,[r1,#0x10]
        0x08002672:    e7ff        ..      B        0x8002674 ; GPIO_InitPeripheral + 192
        0x08002674:    e7ff        ..      B        0x8002676 ; GPIO_InitPeripheral + 194
        0x08002676:    e7ff        ..      B        0x8002678 ; GPIO_InitPeripheral + 196
        0x08002678:    e7ff        ..      B        0x800267a ; GPIO_InitPeripheral + 198
        0x0800267a:    9803        ..      LDR      r0,[sp,#0xc]
        0x0800267c:    3001        .0      ADDS     r0,#1
        0x0800267e:    9003        ..      STR      r0,[sp,#0xc]
        0x08002680:    e7be        ..      B        0x8002600 ; GPIO_InitPeripheral + 76
        0x08002682:    9801        ..      LDR      r0,[sp,#4]
        0x08002684:    9907        ..      LDR      r1,[sp,#0x1c]
        0x08002686:    6008        .`      STR      r0,[r1,#0]
        0x08002688:    e7ff        ..      B        0x800268a ; GPIO_InitPeripheral + 214
        0x0800268a:    9806        ..      LDR      r0,[sp,#0x18]
        0x0800268c:    8800        ..      LDRH     r0,[r0,#0]
        0x0800268e:    f5b07f80    ....    CMP      r0,#0x100
        0x08002692:    db50        P.      BLT      0x8002736 ; GPIO_InitPeripheral + 386
        0x08002694:    e7ff        ..      B        0x8002696 ; GPIO_InitPeripheral + 226
        0x08002696:    9807        ..      LDR      r0,[sp,#0x1c]
        0x08002698:    6840        @h      LDR      r0,[r0,#4]
        0x0800269a:    9001        ..      STR      r0,[sp,#4]
        0x0800269c:    2000        .       MOVS     r0,#0
        0x0800269e:    9003        ..      STR      r0,[sp,#0xc]
        0x080026a0:    e7ff        ..      B        0x80026a2 ; GPIO_InitPeripheral + 238
        0x080026a2:    9803        ..      LDR      r0,[sp,#0xc]
        0x080026a4:    2807        .(      CMP      r0,#7
        0x080026a6:    d842        B.      BHI      0x800272e ; GPIO_InitPeripheral + 378
        0x080026a8:    e7ff        ..      B        0x80026aa ; GPIO_InitPeripheral + 246
        0x080026aa:    9803        ..      LDR      r0,[sp,#0xc]
        0x080026ac:    f1000108    ....    ADD      r1,r0,#8
        0x080026b0:    2001        .       MOVS     r0,#1
        0x080026b2:    4088        .@      LSLS     r0,r0,r1
        0x080026b4:    9002        ..      STR      r0,[sp,#8]
        0x080026b6:    9806        ..      LDR      r0,[sp,#0x18]
        0x080026b8:    8800        ..      LDRH     r0,[r0,#0]
        0x080026ba:    9902        ..      LDR      r1,[sp,#8]
        0x080026bc:    4008        .@      ANDS     r0,r0,r1
        0x080026be:    9004        ..      STR      r0,[sp,#0x10]
        0x080026c0:    9804        ..      LDR      r0,[sp,#0x10]
        0x080026c2:    9902        ..      LDR      r1,[sp,#8]
        0x080026c4:    4288        .B      CMP      r0,r1
        0x080026c6:    d12d        -.      BNE      0x8002724 ; GPIO_InitPeripheral + 368
        0x080026c8:    e7ff        ..      B        0x80026ca ; GPIO_InitPeripheral + 278
        0x080026ca:    9803        ..      LDR      r0,[sp,#0xc]
        0x080026cc:    0080        ..      LSLS     r0,r0,#2
        0x080026ce:    9002        ..      STR      r0,[sp,#8]
        0x080026d0:    9902        ..      LDR      r1,[sp,#8]
        0x080026d2:    200f        .       MOVS     r0,#0xf
        0x080026d4:    4088        .@      LSLS     r0,r0,r1
        0x080026d6:    9000        ..      STR      r0,[sp,#0]
        0x080026d8:    9900        ..      LDR      r1,[sp,#0]
        0x080026da:    9801        ..      LDR      r0,[sp,#4]
        0x080026dc:    4388        .C      BICS     r0,r0,r1
        0x080026de:    9001        ..      STR      r0,[sp,#4]
        0x080026e0:    9805        ..      LDR      r0,[sp,#0x14]
        0x080026e2:    9902        ..      LDR      r1,[sp,#8]
        0x080026e4:    fa00f101    ....    LSL      r1,r0,r1
        0x080026e8:    9801        ..      LDR      r0,[sp,#4]
        0x080026ea:    4308        .C      ORRS     r0,r0,r1
        0x080026ec:    9001        ..      STR      r0,[sp,#4]
        0x080026ee:    9806        ..      LDR      r0,[sp,#0x18]
        0x080026f0:    78c0        .x      LDRB     r0,[r0,#3]
        0x080026f2:    2828        ((      CMP      r0,#0x28
        0x080026f4:    d108        ..      BNE      0x8002708 ; GPIO_InitPeripheral + 340
        0x080026f6:    e7ff        ..      B        0x80026f8 ; GPIO_InitPeripheral + 324
        0x080026f8:    9803        ..      LDR      r0,[sp,#0xc]
        0x080026fa:    f1000108    ....    ADD      r1,r0,#8
        0x080026fe:    2001        .       MOVS     r0,#1
        0x08002700:    4088        .@      LSLS     r0,r0,r1
        0x08002702:    9907        ..      LDR      r1,[sp,#0x1c]
        0x08002704:    6148        Ha      STR      r0,[r1,#0x14]
        0x08002706:    e7ff        ..      B        0x8002708 ; GPIO_InitPeripheral + 340
        0x08002708:    9806        ..      LDR      r0,[sp,#0x18]
        0x0800270a:    78c0        .x      LDRB     r0,[r0,#3]
        0x0800270c:    2848        H(      CMP      r0,#0x48
        0x0800270e:    d108        ..      BNE      0x8002722 ; GPIO_InitPeripheral + 366
        0x08002710:    e7ff        ..      B        0x8002712 ; GPIO_InitPeripheral + 350
        0x08002712:    9803        ..      LDR      r0,[sp,#0xc]
        0x08002714:    f1000108    ....    ADD      r1,r0,#8
        0x08002718:    2001        .       MOVS     r0,#1
        0x0800271a:    4088        .@      LSLS     r0,r0,r1
        0x0800271c:    9907        ..      LDR      r1,[sp,#0x1c]
        0x0800271e:    6108        .a      STR      r0,[r1,#0x10]
        0x08002720:    e7ff        ..      B        0x8002722 ; GPIO_InitPeripheral + 366
        0x08002722:    e7ff        ..      B        0x8002724 ; GPIO_InitPeripheral + 368
        0x08002724:    e7ff        ..      B        0x8002726 ; GPIO_InitPeripheral + 370
        0x08002726:    9803        ..      LDR      r0,[sp,#0xc]
        0x08002728:    3001        .0      ADDS     r0,#1
        0x0800272a:    9003        ..      STR      r0,[sp,#0xc]
        0x0800272c:    e7b9        ..      B        0x80026a2 ; GPIO_InitPeripheral + 238
        0x0800272e:    9801        ..      LDR      r0,[sp,#4]
        0x08002730:    9907        ..      LDR      r1,[sp,#0x1c]
        0x08002732:    6048        H`      STR      r0,[r1,#4]
        0x08002734:    e7ff        ..      B        0x8002736 ; GPIO_InitPeripheral + 386
        0x08002736:    b008        ..      ADD      sp,sp,#0x20
        0x08002738:    4770        pG      BX       lr
        0x0800273a:    0000        ..      MOVS     r0,r0
    HardFaultHandler
        0x0800273c:    b083        ..      SUB      sp,sp,#0xc
        0x0800273e:    9002        ..      STR      r0,[sp,#8]
        0x08002740:    f64e502c    N.,P    MOV      r0,#0xed2c
        0x08002744:    f2ce0000    ....    MOVT     r0,#0xe000
        0x08002748:    6800        .h      LDR      r0,[r0,#0]
        0x0800274a:    0fc0        ..      LSRS     r0,r0,#31
        0x0800274c:    b168        h.      CBZ      r0,0x800276a ; HardFaultHandler + 46
        0x0800274e:    e7ff        ..      B        0x8002750 ; HardFaultHandler + 20
        0x08002750:    f64e512c    N.,Q    MOV      r1,#0xed2c
        0x08002754:    f2ce0100    ....    MOVT     r1,#0xe000
        0x08002758:    6808        .h      LDR      r0,[r1,#0]
        0x0800275a:    f0404000    @..@    ORR      r0,r0,#0x80000000
        0x0800275e:    6008        .`      STR      r0,[r1,#0]
        0x08002760:    9902        ..      LDR      r1,[sp,#8]
        0x08002762:    6988        .i      LDR      r0,[r1,#0x18]
        0x08002764:    3002        .0      ADDS     r0,#2
        0x08002766:    6188        .a      STR      r0,[r1,#0x18]
        0x08002768:    e070        p.      B        0x800284c ; HardFaultHandler + 272
        0x0800276a:    f64e5024    N.$P    MOV      r0,#0xed24
        0x0800276e:    f2ce0000    ....    MOVT     r0,#0xe000
        0x08002772:    6800        .h      LDR      r0,[r0,#0]
        0x08002774:    f24021f0    @..!    MOVW     r1,#0x2f0
        0x08002778:    f2c20100    ....    MOVT     r1,#0x2000
        0x0800277c:    9101        ..      STR      r1,[sp,#4]
        0x0800277e:    6208        .b      STR      r0,[r1,#0x20]
        0x08002780:    f64e5028    N.(P    MOV      r0,#0xed28
        0x08002784:    f2ce0000    ....    MOVT     r0,#0xe000
        0x08002788:    7800        .x      LDRB     r0,[r0,#0]
        0x0800278a:    f8810024    ..$.    STRB     r0,[r1,#0x24]
        0x0800278e:    f64e5029    N.)P    MOV      r0,#0xed29
        0x08002792:    f2ce0000    ....    MOVT     r0,#0xe000
        0x08002796:    7800        .x      LDRB     r0,[r0,#0]
        0x08002798:    6288        .b      STR      r0,[r1,#0x28]
        0x0800279a:    f64e5038    N.8P    MOV      r0,#0xed38
        0x0800279e:    f2ce0000    ....    MOVT     r0,#0xe000
        0x080027a2:    6800        .h      LDR      r0,[r0,#0]
        0x080027a4:    62c8        .b      STR      r0,[r1,#0x2c]
        0x080027a6:    f64e502a    N.*P    MOV      r0,#0xed2a
        0x080027aa:    f2ce0000    ....    MOVT     r0,#0xe000
        0x080027ae:    8800        ..      LDRH     r0,[r0,#0]
        0x080027b0:    8608        ..      STRH     r0,[r1,#0x30]
        0x080027b2:    f64e502c    N.,P    MOV      r0,#0xed2c
        0x080027b6:    f2ce0000    ....    MOVT     r0,#0xe000
        0x080027ba:    6800        .h      LDR      r0,[r0,#0]
        0x080027bc:    6348        Hc      STR      r0,[r1,#0x34]
        0x080027be:    f64e5030    N.0P    MOV      r0,#0xed30
        0x080027c2:    f2ce0000    ....    MOVT     r0,#0xe000
        0x080027c6:    6800        .h      LDR      r0,[r0,#0]
        0x080027c8:    6388        .c      STR      r0,[r1,#0x38]
        0x080027ca:    f64e503c    N.<P    MOV      r0,#0xed3c
        0x080027ce:    f2ce0000    ....    MOVT     r0,#0xe000
        0x080027d2:    6800        .h      LDR      r0,[r0,#0]
        0x080027d4:    63c8        .c      STR      r0,[r1,#0x3c]
        0x080027d6:    f24041c8    @..A    MOVW     r1,#0x4c8
        0x080027da:    f2c20100    ....    MOVT     r1,#0x2000
        0x080027de:    2000        .       MOVS     r0,#0
        0x080027e0:    6008        .`      STR      r0,[r1,#0]
        0x080027e2:    e7ff        ..      B        0x80027e4 ; HardFaultHandler + 168
        0x080027e4:    f24040c8    @..@    MOVW     r0,#0x4c8
        0x080027e8:    f2c20000    ....    MOVT     r0,#0x2000
        0x080027ec:    6800        .h      LDR      r0,[r0,#0]
        0x080027ee:    b908        ..      CBNZ     r0,0x80027f4 ; HardFaultHandler + 184
        0x080027f0:    e7ff        ..      B        0x80027f2 ; HardFaultHandler + 182
        0x080027f2:    e7f7        ..      B        0x80027e4 ; HardFaultHandler + 168
        0x080027f4:    9802        ..      LDR      r0,[sp,#8]
        0x080027f6:    6800        .h      LDR      r0,[r0,#0]
        0x080027f8:    f24021f0    @..!    MOVW     r1,#0x2f0
        0x080027fc:    f2c20100    ....    MOVT     r1,#0x2000
        0x08002800:    9100        ..      STR      r1,[sp,#0]
        0x08002802:    6008        .`      STR      r0,[r1,#0]
        0x08002804:    9802        ..      LDR      r0,[sp,#8]
        0x08002806:    6840        @h      LDR      r0,[r0,#4]
        0x08002808:    6048        H`      STR      r0,[r1,#4]
        0x0800280a:    9802        ..      LDR      r0,[sp,#8]
        0x0800280c:    6880        .h      LDR      r0,[r0,#8]
        0x0800280e:    6088        .`      STR      r0,[r1,#8]
        0x08002810:    9802        ..      LDR      r0,[sp,#8]
        0x08002812:    68c0        .h      LDR      r0,[r0,#0xc]
        0x08002814:    60c8        .`      STR      r0,[r1,#0xc]
        0x08002816:    9802        ..      LDR      r0,[sp,#8]
        0x08002818:    6900        .i      LDR      r0,[r0,#0x10]
        0x0800281a:    6108        .a      STR      r0,[r1,#0x10]
        0x0800281c:    9802        ..      LDR      r0,[sp,#8]
        0x0800281e:    6940        @i      LDR      r0,[r0,#0x14]
        0x08002820:    6148        Ha      STR      r0,[r1,#0x14]
        0x08002822:    9802        ..      LDR      r0,[sp,#8]
        0x08002824:    6980        .i      LDR      r0,[r0,#0x18]
        0x08002826:    6188        .a      STR      r0,[r1,#0x18]
        0x08002828:    9802        ..      LDR      r0,[sp,#8]
        0x0800282a:    69c0        .i      LDR      r0,[r0,#0x1c]
        0x0800282c:    61c8        .a      STR      r0,[r1,#0x1c]
        0x0800282e:    f24041c8    @..A    MOVW     r1,#0x4c8
        0x08002832:    f2c20100    ....    MOVT     r1,#0x2000
        0x08002836:    2000        .       MOVS     r0,#0
        0x08002838:    6008        .`      STR      r0,[r1,#0]
        0x0800283a:    e7ff        ..      B        0x800283c ; HardFaultHandler + 256
        0x0800283c:    f24040c8    @..@    MOVW     r0,#0x4c8
        0x08002840:    f2c20000    ....    MOVT     r0,#0x2000
        0x08002844:    6800        .h      LDR      r0,[r0,#0]
        0x08002846:    b908        ..      CBNZ     r0,0x800284c ; HardFaultHandler + 272
        0x08002848:    e7ff        ..      B        0x800284a ; HardFaultHandler + 270
        0x0800284a:    e7f7        ..      B        0x800283c ; HardFaultHandler + 256
        0x0800284c:    b003        ..      ADD      sp,sp,#0xc
        0x0800284e:    4770        pG      BX       lr
    MemManage_Handler
        0x08002850:    e7ff        ..      B        0x8002852 ; MemManage_Handler + 2
        0x08002852:    e7fe        ..      B        0x8002852 ; MemManage_Handler + 2
    NMI_Handler
        0x08002854:    4770        pG      BX       lr
        0x08002856:    0000        ..      MOVS     r0,r0
    NVIC_Init
        0x08002858:    b084        ..      SUB      sp,sp,#0x10
        0x0800285a:    9003        ..      STR      r0,[sp,#0xc]
        0x0800285c:    2000        .       MOVS     r0,#0
        0x0800285e:    9002        ..      STR      r0,[sp,#8]
        0x08002860:    9001        ..      STR      r0,[sp,#4]
        0x08002862:    200f        .       MOVS     r0,#0xf
        0x08002864:    9000        ..      STR      r0,[sp,#0]
        0x08002866:    9803        ..      LDR      r0,[sp,#0xc]
        0x08002868:    78c0        .x      LDRB     r0,[r0,#3]
        0x0800286a:    b3c0        ..      CBZ      r0,0x80028de ; NVIC_Init + 134
        0x0800286c:    e7ff        ..      B        0x800286e ; NVIC_Init + 22
        0x0800286e:    f64e500c    N..P    MOV      r0,#0xed0c
        0x08002872:    f2ce0000    ....    MOVT     r0,#0xe000
        0x08002876:    6800        .h      LDR      r0,[r0,#0]
        0x08002878:    43c0        .C      MVNS     r0,r0
        0x0800287a:    f3c02002    ...     UBFX     r0,r0,#8,#3
        0x0800287e:    9002        ..      STR      r0,[sp,#8]
        0x08002880:    9802        ..      LDR      r0,[sp,#8]
        0x08002882:    f1c00004    ....    RSB      r0,r0,#4
        0x08002886:    9001        ..      STR      r0,[sp,#4]
        0x08002888:    9800        ..      LDR      r0,[sp,#0]
        0x0800288a:    9902        ..      LDR      r1,[sp,#8]
        0x0800288c:    40c8        .@      LSRS     r0,r0,r1
        0x0800288e:    9000        ..      STR      r0,[sp,#0]
        0x08002890:    9803        ..      LDR      r0,[sp,#0xc]
        0x08002892:    7840        @x      LDRB     r0,[r0,#1]
        0x08002894:    9901        ..      LDR      r1,[sp,#4]
        0x08002896:    4088        .@      LSLS     r0,r0,r1
        0x08002898:    9002        ..      STR      r0,[sp,#8]
        0x0800289a:    9803        ..      LDR      r0,[sp,#0xc]
        0x0800289c:    7880        .x      LDRB     r0,[r0,#2]
        0x0800289e:    9900        ..      LDR      r1,[sp,#0]
        0x080028a0:    4001        .@      ANDS     r1,r1,r0
        0x080028a2:    9802        ..      LDR      r0,[sp,#8]
        0x080028a4:    4308        .C      ORRS     r0,r0,r1
        0x080028a6:    9002        ..      STR      r0,[sp,#8]
        0x080028a8:    9802        ..      LDR      r0,[sp,#8]
        0x080028aa:    0100        ..      LSLS     r0,r0,#4
        0x080028ac:    9002        ..      STR      r0,[sp,#8]
        0x080028ae:    9802        ..      LDR      r0,[sp,#8]
        0x080028b0:    9903        ..      LDR      r1,[sp,#0xc]
        0x080028b2:    7809        .x      LDRB     r1,[r1,#0]
        0x080028b4:    f24e4200    N..B    MOVW     r2,#0xe400
        0x080028b8:    f2ce0200    ....    MOVT     r2,#0xe000
        0x080028bc:    5488        .T      STRB     r0,[r1,r2]
        0x080028be:    9803        ..      LDR      r0,[sp,#0xc]
        0x080028c0:    7802        .x      LDRB     r2,[r0,#0]
        0x080028c2:    f002011f    ....    AND      r1,r2,#0x1f
        0x080028c6:    2001        .       MOVS     r0,#1
        0x080028c8:    4088        .@      LSLS     r0,r0,r1
        0x080028ca:    f24e1100    N...    MOVW     r1,#0xe100
        0x080028ce:    f2ce0100    ....    MOVT     r1,#0xe000
        0x080028d2:    ea4101d2    A...    ORR      r1,r1,r2,LSR #3
        0x080028d6:    f0210103    !...    BIC      r1,r1,#3
        0x080028da:    6008        .`      STR      r0,[r1,#0]
        0x080028dc:    e00f        ..      B        0x80028fe ; NVIC_Init + 166
        0x080028de:    9803        ..      LDR      r0,[sp,#0xc]
        0x080028e0:    7802        .x      LDRB     r2,[r0,#0]
        0x080028e2:    f002011f    ....    AND      r1,r2,#0x1f
        0x080028e6:    2001        .       MOVS     r0,#1
        0x080028e8:    4088        .@      LSLS     r0,r0,r1
        0x080028ea:    f24e1180    N...    MOV      r1,#0xe180
        0x080028ee:    f2ce0100    ....    MOVT     r1,#0xe000
        0x080028f2:    ea4101d2    A...    ORR      r1,r1,r2,LSR #3
        0x080028f6:    f0210103    !...    BIC      r1,r1,#3
        0x080028fa:    6008        .`      STR      r0,[r1,#0]
        0x080028fc:    e7ff        ..      B        0x80028fe ; NVIC_Init + 166
        0x080028fe:    b004        ..      ADD      sp,sp,#0x10
        0x08002900:    4770        pG      BX       lr
        0x08002902:    0000        ..      MOVS     r0,r0
    NVIC_PriorityGroupConfig
        0x08002904:    b081        ..      SUB      sp,sp,#4
        0x08002906:    9000        ..      STR      r0,[sp,#0]
        0x08002908:    9800        ..      LDR      r0,[sp,#0]
        0x0800290a:    2100        .!      MOVS     r1,#0
        0x0800290c:    f2c051fa    ...Q    MOVT     r1,#0x5fa
        0x08002910:    4308        .C      ORRS     r0,r0,r1
        0x08002912:    f64e510c    N..Q    MOV      r1,#0xed0c
        0x08002916:    f2ce0100    ....    MOVT     r1,#0xe000
        0x0800291a:    6008        .`      STR      r0,[r1,#0]
        0x0800291c:    b001        ..      ADD      sp,sp,#4
        0x0800291e:    4770        pG      BX       lr
    RCC_ConfigPclk1
        0x08002920:    b082        ..      SUB      sp,sp,#8
        0x08002922:    9001        ..      STR      r0,[sp,#4]
        0x08002924:    2000        .       MOVS     r0,#0
        0x08002926:    9000        ..      STR      r0,[sp,#0]
        0x08002928:    f2410104    A...    MOV      r1,#0x1004
        0x0800292c:    f2c40102    ....    MOVT     r1,#0x4002
        0x08002930:    6808        .h      LDR      r0,[r1,#0]
        0x08002932:    9000        ..      STR      r0,[sp,#0]
        0x08002934:    9800        ..      LDR      r0,[sp,#0]
        0x08002936:    f42060e0     ..`    BIC      r0,r0,#0x700
        0x0800293a:    9000        ..      STR      r0,[sp,#0]
        0x0800293c:    9a01        ..      LDR      r2,[sp,#4]
        0x0800293e:    9800        ..      LDR      r0,[sp,#0]
        0x08002940:    4310        .C      ORRS     r0,r0,r2
        0x08002942:    9000        ..      STR      r0,[sp,#0]
        0x08002944:    9800        ..      LDR      r0,[sp,#0]
        0x08002946:    6008        .`      STR      r0,[r1,#0]
        0x08002948:    b002        ..      ADD      sp,sp,#8
        0x0800294a:    4770        pG      BX       lr
    RCC_ConfigPclk2
        0x0800294c:    b082        ..      SUB      sp,sp,#8
        0x0800294e:    9001        ..      STR      r0,[sp,#4]
        0x08002950:    2000        .       MOVS     r0,#0
        0x08002952:    9000        ..      STR      r0,[sp,#0]
        0x08002954:    f2410104    A...    MOV      r1,#0x1004
        0x08002958:    f2c40102    ....    MOVT     r1,#0x4002
        0x0800295c:    6808        .h      LDR      r0,[r1,#0]
        0x0800295e:    9000        ..      STR      r0,[sp,#0]
        0x08002960:    9800        ..      LDR      r0,[sp,#0]
        0x08002962:    f4205060     .`P    BIC      r0,r0,#0x3800
        0x08002966:    9000        ..      STR      r0,[sp,#0]
        0x08002968:    9a01        ..      LDR      r2,[sp,#4]
        0x0800296a:    9800        ..      LDR      r0,[sp,#0]
        0x0800296c:    ea4000c2    @...    ORR      r0,r0,r2,LSL #3
        0x08002970:    9000        ..      STR      r0,[sp,#0]
        0x08002972:    9800        ..      LDR      r0,[sp,#0]
        0x08002974:    6008        .`      STR      r0,[r1,#0]
        0x08002976:    b002        ..      ADD      sp,sp,#8
        0x08002978:    4770        pG      BX       lr
        0x0800297a:    0000        ..      MOVS     r0,r0
    RCC_EnableAPB1PeriphClk
        0x0800297c:    b082        ..      SUB      sp,sp,#8
        0x0800297e:    9001        ..      STR      r0,[sp,#4]
        0x08002980:    f88d1003    ....    STRB     r1,[sp,#3]
        0x08002984:    f89d0003    ....    LDRB     r0,[sp,#3]
        0x08002988:    b148        H.      CBZ      r0,0x800299e ; RCC_EnableAPB1PeriphClk + 34
        0x0800298a:    e7ff        ..      B        0x800298c ; RCC_EnableAPB1PeriphClk + 16
        0x0800298c:    9a01        ..      LDR      r2,[sp,#4]
        0x0800298e:    f241011c    A...    MOV      r1,#0x101c
        0x08002992:    f2c40102    ....    MOVT     r1,#0x4002
        0x08002996:    6808        .h      LDR      r0,[r1,#0]
        0x08002998:    4310        .C      ORRS     r0,r0,r2
        0x0800299a:    6008        .`      STR      r0,[r1,#0]
        0x0800299c:    e008        ..      B        0x80029b0 ; RCC_EnableAPB1PeriphClk + 52
        0x0800299e:    9a01        ..      LDR      r2,[sp,#4]
        0x080029a0:    f241011c    A...    MOV      r1,#0x101c
        0x080029a4:    f2c40102    ....    MOVT     r1,#0x4002
        0x080029a8:    6808        .h      LDR      r0,[r1,#0]
        0x080029aa:    4390        .C      BICS     r0,r0,r2
        0x080029ac:    6008        .`      STR      r0,[r1,#0]
        0x080029ae:    e7ff        ..      B        0x80029b0 ; RCC_EnableAPB1PeriphClk + 52
        0x080029b0:    b002        ..      ADD      sp,sp,#8
        0x080029b2:    4770        pG      BX       lr
    RCC_EnableAPB2PeriphClk
        0x080029b4:    b082        ..      SUB      sp,sp,#8
        0x080029b6:    9001        ..      STR      r0,[sp,#4]
        0x080029b8:    f88d1003    ....    STRB     r1,[sp,#3]
        0x080029bc:    f89d0003    ....    LDRB     r0,[sp,#3]
        0x080029c0:    b148        H.      CBZ      r0,0x80029d6 ; RCC_EnableAPB2PeriphClk + 34
        0x080029c2:    e7ff        ..      B        0x80029c4 ; RCC_EnableAPB2PeriphClk + 16
        0x080029c4:    9a01        ..      LDR      r2,[sp,#4]
        0x080029c6:    f2410118    A...    MOV      r1,#0x1018
        0x080029ca:    f2c40102    ....    MOVT     r1,#0x4002
        0x080029ce:    6808        .h      LDR      r0,[r1,#0]
        0x080029d0:    4310        .C      ORRS     r0,r0,r2
        0x080029d2:    6008        .`      STR      r0,[r1,#0]
        0x080029d4:    e008        ..      B        0x80029e8 ; RCC_EnableAPB2PeriphClk + 52
        0x080029d6:    9a01        ..      LDR      r2,[sp,#4]
        0x080029d8:    f2410118    A...    MOV      r1,#0x1018
        0x080029dc:    f2c40102    ....    MOVT     r1,#0x4002
        0x080029e0:    6808        .h      LDR      r0,[r1,#0]
        0x080029e2:    4390        .C      BICS     r0,r0,r2
        0x080029e4:    6008        .`      STR      r0,[r1,#0]
        0x080029e6:    e7ff        ..      B        0x80029e8 ; RCC_EnableAPB2PeriphClk + 52
        0x080029e8:    b002        ..      ADD      sp,sp,#8
        0x080029ea:    4770        pG      BX       lr
    RCC_GetClocksFreqValue
        0x080029ec:    b087        ..      SUB      sp,sp,#0x1c
        0x080029ee:    9006        ..      STR      r0,[sp,#0x18]
        0x080029f0:    2000        .       MOVS     r0,#0
        0x080029f2:    9005        ..      STR      r0,[sp,#0x14]
        0x080029f4:    9004        ..      STR      r0,[sp,#0x10]
        0x080029f6:    9003        ..      STR      r0,[sp,#0xc]
        0x080029f8:    9002        ..      STR      r0,[sp,#8]
        0x080029fa:    9001        ..      STR      r0,[sp,#4]
        0x080029fc:    f2410004    A...    MOV      r0,#0x1004
        0x08002a00:    f2c40002    ....    MOVT     r0,#0x4002
        0x08002a04:    6801        .h      LDR      r1,[r0,#0]
        0x08002a06:    2200        ."      MOVS     r2,#0
        0x08002a08:    f6c0023c    ..<.    MOVT     r2,#0x83c
        0x08002a0c:    4011        .@      ANDS     r1,r1,r2
        0x08002a0e:    9103        ..      STR      r1,[sp,#0xc]
        0x08002a10:    6800        .h      LDR      r0,[r0,#0]
        0x08002a12:    f4003080    ...0    AND      r0,r0,#0x10000
        0x08002a16:    9002        ..      STR      r0,[sp,#8]
        0x08002a18:    f89d000f    ....    LDRB     r0,[sp,#0xf]
        0x08002a1c:    0700        ..      LSLS     r0,r0,#28
        0x08002a1e:    2800        .(      CMP      r0,#0
        0x08002a20:    d406        ..      BMI      0x8002a30 ; RCC_GetClocksFreqValue + 68
        0x08002a22:    e7ff        ..      B        0x8002a24 ; RCC_GetClocksFreqValue + 56
        0x08002a24:    9903        ..      LDR      r1,[sp,#0xc]
        0x08002a26:    2002        .       MOVS     r0,#2
        0x08002a28:    eb004091    ...@    ADD      r0,r0,r1,LSR #18
        0x08002a2c:    9003        ..      STR      r0,[sp,#0xc]
        0x08002a2e:    e006        ..      B        0x8002a3e ; RCC_GetClocksFreqValue + 82
        0x08002a30:    9903        ..      LDR      r1,[sp,#0xc]
        0x08002a32:    f46f70f7    o..p    MVN      r0,#0x1ee
        0x08002a36:    eb004091    ...@    ADD      r0,r0,r1,LSR #18
        0x08002a3a:    9003        ..      STR      r0,[sp,#0xc]
        0x08002a3c:    e7ff        ..      B        0x8002a3e ; RCC_GetClocksFreqValue + 82
        0x08002a3e:    9802        ..      LDR      r0,[sp,#8]
        0x08002a40:    b940        @.      CBNZ     r0,0x8002a54 ; RCC_GetClocksFreqValue + 104
        0x08002a42:    e7ff        ..      B        0x8002a44 ; RCC_GetClocksFreqValue + 88
        0x08002a44:    9803        ..      LDR      r0,[sp,#0xc]
        0x08002a46:    f6401100    @...    MOVW     r1,#0x900
        0x08002a4a:    f2c0013d    ..=.    MOVT     r1,#0x3d
        0x08002a4e:    4348        HC      MULS     r0,r1,r0
        0x08002a50:    9004        ..      STR      r0,[sp,#0x10]
        0x08002a52:    e019        ..      B        0x8002a88 ; RCC_GetClocksFreqValue + 156
        0x08002a54:    f2410004    A...    MOV      r0,#0x1004
        0x08002a58:    f2c40002    ....    MOVT     r0,#0x4002
        0x08002a5c:    6800        .h      LDR      r0,[r0,#0]
        0x08002a5e:    0380        ..      LSLS     r0,r0,#14
        0x08002a60:    2800        .(      CMP      r0,#0
        0x08002a62:    d508        ..      BPL      0x8002a76 ; RCC_GetClocksFreqValue + 138
        0x08002a64:    e7ff        ..      B        0x8002a66 ; RCC_GetClocksFreqValue + 122
        0x08002a66:    9803        ..      LDR      r0,[sp,#0xc]
        0x08002a68:    f6401100    @...    MOVW     r1,#0x900
        0x08002a6c:    f2c0013d    ..=.    MOVT     r1,#0x3d
        0x08002a70:    4348        HC      MULS     r0,r1,r0
        0x08002a72:    9004        ..      STR      r0,[sp,#0x10]
        0x08002a74:    e007        ..      B        0x8002a86 ; RCC_GetClocksFreqValue + 154
        0x08002a76:    9803        ..      LDR      r0,[sp,#0xc]
        0x08002a78:    f2412100    A..!    MOVW     r1,#0x1200
        0x08002a7c:    f2c0017a    ..z.    MOVT     r1,#0x7a
        0x08002a80:    4348        HC      MULS     r0,r1,r0
        0x08002a82:    9004        ..      STR      r0,[sp,#0x10]
        0x08002a84:    e7ff        ..      B        0x8002a86 ; RCC_GetClocksFreqValue + 154
        0x08002a86:    e7ff        ..      B        0x8002a88 ; RCC_GetClocksFreqValue + 156
        0x08002a88:    f2410004    A...    MOV      r0,#0x1004
        0x08002a8c:    f2c40002    ....    MOVT     r0,#0x4002
        0x08002a90:    6800        .h      LDR      r0,[r0,#0]
        0x08002a92:    f000000c    ....    AND      r0,r0,#0xc
        0x08002a96:    9005        ..      STR      r0,[sp,#0x14]
        0x08002a98:    9805        ..      LDR      r0,[sp,#0x14]
        0x08002a9a:    9000        ..      STR      r0,[sp,#0]
        0x08002a9c:    b140        @.      CBZ      r0,0x8002ab0 ; RCC_GetClocksFreqValue + 196
        0x08002a9e:    e7ff        ..      B        0x8002aa0 ; RCC_GetClocksFreqValue + 180
        0x08002aa0:    9800        ..      LDR      r0,[sp,#0]
        0x08002aa2:    2804        .(      CMP      r0,#4
        0x08002aa4:    d00b        ..      BEQ      0x8002abe ; RCC_GetClocksFreqValue + 210
        0x08002aa6:    e7ff        ..      B        0x8002aa8 ; RCC_GetClocksFreqValue + 188
        0x08002aa8:    9800        ..      LDR      r0,[sp,#0]
        0x08002aaa:    2808        .(      CMP      r0,#8
        0x08002aac:    d00e        ..      BEQ      0x8002acc ; RCC_GetClocksFreqValue + 224
        0x08002aae:    e011        ..      B        0x8002ad4 ; RCC_GetClocksFreqValue + 232
        0x08002ab0:    9906        ..      LDR      r1,[sp,#0x18]
        0x08002ab2:    f2412000    A..     MOVW     r0,#0x1200
        0x08002ab6:    f2c0007a    ..z.    MOVT     r0,#0x7a
        0x08002aba:    6008        .`      STR      r0,[r1,#0]
        0x08002abc:    e011        ..      B        0x8002ae2 ; RCC_GetClocksFreqValue + 246
        0x08002abe:    9906        ..      LDR      r1,[sp,#0x18]
        0x08002ac0:    f2412000    A..     MOVW     r0,#0x1200
        0x08002ac4:    f2c0007a    ..z.    MOVT     r0,#0x7a
        0x08002ac8:    6008        .`      STR      r0,[r1,#0]
        0x08002aca:    e00a        ..      B        0x8002ae2 ; RCC_GetClocksFreqValue + 246
        0x08002acc:    9804        ..      LDR      r0,[sp,#0x10]
        0x08002ace:    9906        ..      LDR      r1,[sp,#0x18]
        0x08002ad0:    6008        .`      STR      r0,[r1,#0]
        0x08002ad2:    e006        ..      B        0x8002ae2 ; RCC_GetClocksFreqValue + 246
        0x08002ad4:    9906        ..      LDR      r1,[sp,#0x18]
        0x08002ad6:    f2412000    A..     MOVW     r0,#0x1200
        0x08002ada:    f2c0007a    ..z.    MOVT     r0,#0x7a
        0x08002ade:    6008        .`      STR      r0,[r1,#0]
        0x08002ae0:    e7ff        ..      B        0x8002ae2 ; RCC_GetClocksFreqValue + 246
        0x08002ae2:    f2410104    A...    MOV      r1,#0x1004
        0x08002ae6:    f2c40102    ....    MOVT     r1,#0x4002
        0x08002aea:    6808        .h      LDR      r0,[r1,#0]
        0x08002aec:    f00000f0    ....    AND      r0,r0,#0xf0
        0x08002af0:    9005        ..      STR      r0,[sp,#0x14]
        0x08002af2:    9805        ..      LDR      r0,[sp,#0x14]
        0x08002af4:    0900        ..      LSRS     r0,r0,#4
        0x08002af6:    9005        ..      STR      r0,[sp,#0x14]
        0x08002af8:    9a05        ..      LDR      r2,[sp,#0x14]
        0x08002afa:    f2480000    H...    MOVW     r0,#0x8000
        0x08002afe:    f6c00000    ....    MOVT     r0,#0x800
        0x08002b02:    5c82        .\      LDRB     r2,[r0,r2]
        0x08002b04:    9201        ..      STR      r2,[sp,#4]
        0x08002b06:    9b06        ..      LDR      r3,[sp,#0x18]
        0x08002b08:    681a        .h      LDR      r2,[r3,#0]
        0x08002b0a:    f8ddc004    ....    LDR      r12,[sp,#4]
        0x08002b0e:    fa22f20c    "...    LSR      r2,r2,r12
        0x08002b12:    605a        Z`      STR      r2,[r3,#4]
        0x08002b14:    680a        .h      LDR      r2,[r1,#0]
        0x08002b16:    f40262e0    ...b    AND      r2,r2,#0x700
        0x08002b1a:    9205        ..      STR      r2,[sp,#0x14]
        0x08002b1c:    9a05        ..      LDR      r2,[sp,#0x14]
        0x08002b1e:    0a12        ..      LSRS     r2,r2,#8
        0x08002b20:    9205        ..      STR      r2,[sp,#0x14]
        0x08002b22:    9a05        ..      LDR      r2,[sp,#0x14]
        0x08002b24:    5c82        .\      LDRB     r2,[r0,r2]
        0x08002b26:    9201        ..      STR      r2,[sp,#4]
        0x08002b28:    9b06        ..      LDR      r3,[sp,#0x18]
        0x08002b2a:    685a        Zh      LDR      r2,[r3,#4]
        0x08002b2c:    f8ddc004    ....    LDR      r12,[sp,#4]
        0x08002b30:    fa22f20c    "...    LSR      r2,r2,r12
        0x08002b34:    609a        .`      STR      r2,[r3,#8]
        0x08002b36:    6809        .h      LDR      r1,[r1,#0]
        0x08002b38:    f4015160    ..`Q    AND      r1,r1,#0x3800
        0x08002b3c:    9105        ..      STR      r1,[sp,#0x14]
        0x08002b3e:    9905        ..      LDR      r1,[sp,#0x14]
        0x08002b40:    0ac9        ..      LSRS     r1,r1,#11
        0x08002b42:    9105        ..      STR      r1,[sp,#0x14]
        0x08002b44:    9905        ..      LDR      r1,[sp,#0x14]
        0x08002b46:    5c40        @\      LDRB     r0,[r0,r1]
        0x08002b48:    9001        ..      STR      r0,[sp,#4]
        0x08002b4a:    9906        ..      LDR      r1,[sp,#0x18]
        0x08002b4c:    6848        Hh      LDR      r0,[r1,#4]
        0x08002b4e:    9a01        ..      LDR      r2,[sp,#4]
        0x08002b50:    40d0        .@      LSRS     r0,r0,r2
        0x08002b52:    60c8        .`      STR      r0,[r1,#0xc]
        0x08002b54:    f241002c    A.,.    MOV      r0,#0x102c
        0x08002b58:    f2c40002    ....    MOVT     r0,#0x4002
        0x08002b5c:    6801        .h      LDR      r1,[r0,#0]
        0x08002b5e:    f001010f    ....    AND      r1,r1,#0xf
        0x08002b62:    9105        ..      STR      r1,[sp,#0x14]
        0x08002b64:    9a05        ..      LDR      r2,[sp,#0x14]
        0x08002b66:    f64771d0    G..q    MOV      r1,#0x7fd0
        0x08002b6a:    f6c00100    ....    MOVT     r1,#0x800
        0x08002b6e:    5c89        .\      LDRB     r1,[r1,r2]
        0x08002b70:    9101        ..      STR      r1,[sp,#4]
        0x08002b72:    9a06        ..      LDR      r2,[sp,#0x18]
        0x08002b74:    6851        Qh      LDR      r1,[r2,#4]
        0x08002b76:    9b01        ..      LDR      r3,[sp,#4]
        0x08002b78:    fbb1f1f3    ....    UDIV     r1,r1,r3
        0x08002b7c:    6151        Qa      STR      r1,[r2,#0x14]
        0x08002b7e:    6800        .h      LDR      r0,[r0,#0]
        0x08002b80:    f40070f8    ...p    AND      r0,r0,#0x1f0
        0x08002b84:    9005        ..      STR      r0,[sp,#0x14]
        0x08002b86:    9805        ..      LDR      r0,[sp,#0x14]
        0x08002b88:    0900        ..      LSRS     r0,r0,#4
        0x08002b8a:    9005        ..      STR      r0,[sp,#0x14]
        0x08002b8c:    9805        ..      LDR      r0,[sp,#0x14]
        0x08002b8e:    f000010f    ....    AND      r1,r0,#0xf
        0x08002b92:    f64770e0    G..p    MOV      r0,#0x7fe0
        0x08002b96:    f6c00000    ....    MOVT     r0,#0x800
        0x08002b9a:    f8300011    0...    LDRH     r0,[r0,r1,LSL #1]
        0x08002b9e:    9001        ..      STR      r0,[sp,#4]
        0x08002ba0:    9804        ..      LDR      r0,[sp,#0x10]
        0x08002ba2:    9901        ..      LDR      r1,[sp,#4]
        0x08002ba4:    fbb0f0f1    ....    UDIV     r0,r0,r1
        0x08002ba8:    9906        ..      LDR      r1,[sp,#0x18]
        0x08002baa:    6108        .a      STR      r0,[r1,#0x10]
        0x08002bac:    b007        ..      ADD      sp,sp,#0x1c
        0x08002bae:    4770        pG      BX       lr
    SEGGER_RTT_ConfigUpBuffer
        0x08002bb0:    b580        ..      PUSH     {r7,lr}
        0x08002bb2:    b08a        ..      SUB      sp,sp,#0x28
        0x08002bb4:    f8ddc030    ..0.    LDR      r12,[sp,#0x30]
        0x08002bb8:    9009        ..      STR      r0,[sp,#0x24]
        0x08002bba:    9108        ..      STR      r1,[sp,#0x20]
        0x08002bbc:    9207        ..      STR      r2,[sp,#0x1c]
        0x08002bbe:    9306        ..      STR      r3,[sp,#0x18]
        0x08002bc0:    f24040cc    @..@    MOV      r0,#0x4cc
        0x08002bc4:    f2c20000    ....    MOVT     r0,#0x2000
        0x08002bc8:    9002        ..      STR      r0,[sp,#8]
        0x08002bca:    e7ff        ..      B        0x8002bcc ; SEGGER_RTT_ConfigUpBuffer + 28
        0x08002bcc:    9802        ..      LDR      r0,[sp,#8]
        0x08002bce:    7800        .x      LDRB     r0,[r0,#0]
        0x08002bd0:    b918        ..      CBNZ     r0,0x8002bda ; SEGGER_RTT_ConfigUpBuffer + 42
        0x08002bd2:    e7ff        ..      B        0x8002bd4 ; SEGGER_RTT_ConfigUpBuffer + 36
        0x08002bd4:    f000fdfc    ....    BL       _DoInit ; 0x80037d0
        0x08002bd8:    e7ff        ..      B        0x8002bda ; SEGGER_RTT_ConfigUpBuffer + 42
        0x08002bda:    e7ff        ..      B        0x8002bdc ; SEGGER_RTT_ConfigUpBuffer + 44
        0x08002bdc:    f24040cc    @..@    MOV      r0,#0x4cc
        0x08002be0:    f2c20000    ....    MOVT     r0,#0x2000
        0x08002be4:    9004        ..      STR      r0,[sp,#0x10]
        0x08002be6:    9809        ..      LDR      r0,[sp,#0x24]
        0x08002be8:    2802        .(      CMP      r0,#2
        0x08002bea:    d82a        *.      BHI      0x8002c42 ; SEGGER_RTT_ConfigUpBuffer + 146
        0x08002bec:    e7ff        ..      B        0x8002bee ; SEGGER_RTT_ConfigUpBuffer + 62
        0x08002bee:    f3ef8011    ....    MRS      r0,BASEPRI
        0x08002bf2:    f04f0120    O. .    MOV      r1,#0x20
        0x08002bf6:    f3818811    ....    MSR      BASEPRI,r1
        0x08002bfa:    9001        ..      STR      r0,[sp,#4]
        0x08002bfc:    9804        ..      LDR      r0,[sp,#0x10]
        0x08002bfe:    9909        ..      LDR      r1,[sp,#0x24]
        0x08002c00:    eb010141    ..A.    ADD      r1,r1,r1,LSL #1
        0x08002c04:    eb0000c1    ....    ADD      r0,r0,r1,LSL #3
        0x08002c08:    3018        .0      ADDS     r0,r0,#0x18
        0x08002c0a:    9003        ..      STR      r0,[sp,#0xc]
        0x08002c0c:    9809        ..      LDR      r0,[sp,#0x24]
        0x08002c0e:    b178        x.      CBZ      r0,0x8002c30 ; SEGGER_RTT_ConfigUpBuffer + 128
        0x08002c10:    e7ff        ..      B        0x8002c12 ; SEGGER_RTT_ConfigUpBuffer + 98
        0x08002c12:    9808        ..      LDR      r0,[sp,#0x20]
        0x08002c14:    9903        ..      LDR      r1,[sp,#0xc]
        0x08002c16:    6008        .`      STR      r0,[r1,#0]
        0x08002c18:    9807        ..      LDR      r0,[sp,#0x1c]
        0x08002c1a:    9903        ..      LDR      r1,[sp,#0xc]
        0x08002c1c:    6048        H`      STR      r0,[r1,#4]
        0x08002c1e:    9806        ..      LDR      r0,[sp,#0x18]
        0x08002c20:    9903        ..      LDR      r1,[sp,#0xc]
        0x08002c22:    6088        .`      STR      r0,[r1,#8]
        0x08002c24:    9903        ..      LDR      r1,[sp,#0xc]
        0x08002c26:    2000        .       MOVS     r0,#0
        0x08002c28:    6108        .a      STR      r0,[r1,#0x10]
        0x08002c2a:    9903        ..      LDR      r1,[sp,#0xc]
        0x08002c2c:    60c8        .`      STR      r0,[r1,#0xc]
        0x08002c2e:    e7ff        ..      B        0x8002c30 ; SEGGER_RTT_ConfigUpBuffer + 128
        0x08002c30:    980c        ..      LDR      r0,[sp,#0x30]
        0x08002c32:    9903        ..      LDR      r1,[sp,#0xc]
        0x08002c34:    6148        Ha      STR      r0,[r1,#0x14]
        0x08002c36:    9801        ..      LDR      r0,[sp,#4]
        0x08002c38:    f3808811    ....    MSR      BASEPRI,r0
        0x08002c3c:    2000        .       MOVS     r0,#0
        0x08002c3e:    9005        ..      STR      r0,[sp,#0x14]
        0x08002c40:    e003        ..      B        0x8002c4a ; SEGGER_RTT_ConfigUpBuffer + 154
        0x08002c42:    f04f30ff    O..0    MOV      r0,#0xffffffff
        0x08002c46:    9005        ..      STR      r0,[sp,#0x14]
        0x08002c48:    e7ff        ..      B        0x8002c4a ; SEGGER_RTT_ConfigUpBuffer + 154
        0x08002c4a:    9805        ..      LDR      r0,[sp,#0x14]
        0x08002c4c:    b00a        ..      ADD      sp,sp,#0x28
        0x08002c4e:    bd80        ..      POP      {r7,pc}
    SEGGER_RTT_Init
        0x08002c50:    b580        ..      PUSH     {r7,lr}
        0x08002c52:    f000fdbd    ....    BL       _DoInit ; 0x80037d0
        0x08002c56:    bd80        ..      POP      {r7,pc}
    SEGGER_RTT_Write
        0x08002c58:    b580        ..      PUSH     {r7,lr}
        0x08002c5a:    b086        ..      SUB      sp,sp,#0x18
        0x08002c5c:    9005        ..      STR      r0,[sp,#0x14]
        0x08002c5e:    9104        ..      STR      r1,[sp,#0x10]
        0x08002c60:    9203        ..      STR      r2,[sp,#0xc]
        0x08002c62:    f24040cc    @..@    MOV      r0,#0x4cc
        0x08002c66:    f2c20000    ....    MOVT     r0,#0x2000
        0x08002c6a:    9001        ..      STR      r0,[sp,#4]
        0x08002c6c:    e7ff        ..      B        0x8002c6e ; SEGGER_RTT_Write + 22
        0x08002c6e:    9801        ..      LDR      r0,[sp,#4]
        0x08002c70:    7800        .x      LDRB     r0,[r0,#0]
        0x08002c72:    b918        ..      CBNZ     r0,0x8002c7c ; SEGGER_RTT_Write + 36
        0x08002c74:    e7ff        ..      B        0x8002c76 ; SEGGER_RTT_Write + 30
        0x08002c76:    f000fdab    ....    BL       _DoInit ; 0x80037d0
        0x08002c7a:    e7ff        ..      B        0x8002c7c ; SEGGER_RTT_Write + 36
        0x08002c7c:    e7ff        ..      B        0x8002c7e ; SEGGER_RTT_Write + 38
        0x08002c7e:    f3ef8011    ....    MRS      r0,BASEPRI
        0x08002c82:    f04f0120    O. .    MOV      r1,#0x20
        0x08002c86:    f3818811    ....    MSR      BASEPRI,r1
        0x08002c8a:    9000        ..      STR      r0,[sp,#0]
        0x08002c8c:    9805        ..      LDR      r0,[sp,#0x14]
        0x08002c8e:    9904        ..      LDR      r1,[sp,#0x10]
        0x08002c90:    9a03        ..      LDR      r2,[sp,#0xc]
        0x08002c92:    f000f807    ....    BL       SEGGER_RTT_WriteNoLock ; 0x8002ca4
        0x08002c96:    9002        ..      STR      r0,[sp,#8]
        0x08002c98:    9800        ..      LDR      r0,[sp,#0]
        0x08002c9a:    f3808811    ....    MSR      BASEPRI,r0
        0x08002c9e:    9802        ..      LDR      r0,[sp,#8]
        0x08002ca0:    b006        ..      ADD      sp,sp,#0x18
        0x08002ca2:    bd80        ..      POP      {r7,pc}
    SEGGER_RTT_WriteNoLock
        0x08002ca4:    b580        ..      PUSH     {r7,lr}
        0x08002ca6:    b08a        ..      SUB      sp,sp,#0x28
        0x08002ca8:    9009        ..      STR      r0,[sp,#0x24]
        0x08002caa:    9108        ..      STR      r1,[sp,#0x20]
        0x08002cac:    9207        ..      STR      r2,[sp,#0x1c]
        0x08002cae:    9808        ..      LDR      r0,[sp,#0x20]
        0x08002cb0:    9004        ..      STR      r0,[sp,#0x10]
        0x08002cb2:    9809        ..      LDR      r0,[sp,#0x24]
        0x08002cb4:    eb000140    ..@.    ADD      r1,r0,r0,LSL #1
        0x08002cb8:    f24040cc    @..@    MOV      r0,#0x4cc
        0x08002cbc:    f2c20000    ....    MOVT     r0,#0x2000
        0x08002cc0:    eb0000c1    ....    ADD      r0,r0,r1,LSL #3
        0x08002cc4:    3018        .0      ADDS     r0,r0,#0x18
        0x08002cc6:    9003        ..      STR      r0,[sp,#0xc]
        0x08002cc8:    9803        ..      LDR      r0,[sp,#0xc]
        0x08002cca:    6940        @i      LDR      r0,[r0,#0x14]
        0x08002ccc:    9002        ..      STR      r0,[sp,#8]
        0x08002cce:    b140        @.      CBZ      r0,0x8002ce2 ; SEGGER_RTT_WriteNoLock + 62
        0x08002cd0:    e7ff        ..      B        0x8002cd2 ; SEGGER_RTT_WriteNoLock + 46
        0x08002cd2:    9802        ..      LDR      r0,[sp,#8]
        0x08002cd4:    2801        .(      CMP      r0,#1
        0x08002cd6:    d019        ..      BEQ      0x8002d0c ; SEGGER_RTT_WriteNoLock + 104
        0x08002cd8:    e7ff        ..      B        0x8002cda ; SEGGER_RTT_WriteNoLock + 54
        0x08002cda:    9802        ..      LDR      r0,[sp,#8]
        0x08002cdc:    2802        .(      CMP      r0,#2
        0x08002cde:    d02c        ,.      BEQ      0x8002d3a ; SEGGER_RTT_WriteNoLock + 150
        0x08002ce0:    e032        2.      B        0x8002d48 ; SEGGER_RTT_WriteNoLock + 164
        0x08002ce2:    9803        ..      LDR      r0,[sp,#0xc]
        0x08002ce4:    f000fdd0    ....    BL       _GetAvailWriteSpace ; 0x8003888
        0x08002ce8:    9005        ..      STR      r0,[sp,#0x14]
        0x08002cea:    9805        ..      LDR      r0,[sp,#0x14]
        0x08002cec:    9907        ..      LDR      r1,[sp,#0x1c]
        0x08002cee:    4288        .B      CMP      r0,r1
        0x08002cf0:    d203        ..      BCS      0x8002cfa ; SEGGER_RTT_WriteNoLock + 86
        0x08002cf2:    e7ff        ..      B        0x8002cf4 ; SEGGER_RTT_WriteNoLock + 80
        0x08002cf4:    2000        .       MOVS     r0,#0
        0x08002cf6:    9006        ..      STR      r0,[sp,#0x18]
        0x08002cf8:    e007        ..      B        0x8002d0a ; SEGGER_RTT_WriteNoLock + 102
        0x08002cfa:    9807        ..      LDR      r0,[sp,#0x1c]
        0x08002cfc:    9006        ..      STR      r0,[sp,#0x18]
        0x08002cfe:    9803        ..      LDR      r0,[sp,#0xc]
        0x08002d00:    9904        ..      LDR      r1,[sp,#0x10]
        0x08002d02:    9a07        ..      LDR      r2,[sp,#0x1c]
        0x08002d04:    f001f84a    ..J.    BL       _WriteNoCheck ; 0x8003d9c
        0x08002d08:    e7ff        ..      B        0x8002d0a ; SEGGER_RTT_WriteNoLock + 102
        0x08002d0a:    e020         .      B        0x8002d4e ; SEGGER_RTT_WriteNoLock + 170
        0x08002d0c:    9803        ..      LDR      r0,[sp,#0xc]
        0x08002d0e:    f000fdbb    ....    BL       _GetAvailWriteSpace ; 0x8003888
        0x08002d12:    9005        ..      STR      r0,[sp,#0x14]
        0x08002d14:    9805        ..      LDR      r0,[sp,#0x14]
        0x08002d16:    9907        ..      LDR      r1,[sp,#0x1c]
        0x08002d18:    4288        .B      CMP      r0,r1
        0x08002d1a:    d203        ..      BCS      0x8002d24 ; SEGGER_RTT_WriteNoLock + 128
        0x08002d1c:    e7ff        ..      B        0x8002d1e ; SEGGER_RTT_WriteNoLock + 122
        0x08002d1e:    9805        ..      LDR      r0,[sp,#0x14]
        0x08002d20:    9001        ..      STR      r0,[sp,#4]
        0x08002d22:    e002        ..      B        0x8002d2a ; SEGGER_RTT_WriteNoLock + 134
        0x08002d24:    9807        ..      LDR      r0,[sp,#0x1c]
        0x08002d26:    9001        ..      STR      r0,[sp,#4]
        0x08002d28:    e7ff        ..      B        0x8002d2a ; SEGGER_RTT_WriteNoLock + 134
        0x08002d2a:    9801        ..      LDR      r0,[sp,#4]
        0x08002d2c:    9006        ..      STR      r0,[sp,#0x18]
        0x08002d2e:    9803        ..      LDR      r0,[sp,#0xc]
        0x08002d30:    9904        ..      LDR      r1,[sp,#0x10]
        0x08002d32:    9a06        ..      LDR      r2,[sp,#0x18]
        0x08002d34:    f001f832    ..2.    BL       _WriteNoCheck ; 0x8003d9c
        0x08002d38:    e009        ..      B        0x8002d4e ; SEGGER_RTT_WriteNoLock + 170
        0x08002d3a:    9803        ..      LDR      r0,[sp,#0xc]
        0x08002d3c:    9904        ..      LDR      r1,[sp,#0x10]
        0x08002d3e:    9a07        ..      LDR      r2,[sp,#0x1c]
        0x08002d40:    f000ffba    ....    BL       _WriteBlocking ; 0x8003cb8
        0x08002d44:    9006        ..      STR      r0,[sp,#0x18]
        0x08002d46:    e002        ..      B        0x8002d4e ; SEGGER_RTT_WriteNoLock + 170
        0x08002d48:    2000        .       MOVS     r0,#0
        0x08002d4a:    9006        ..      STR      r0,[sp,#0x18]
        0x08002d4c:    e7ff        ..      B        0x8002d4e ; SEGGER_RTT_WriteNoLock + 170
        0x08002d4e:    9806        ..      LDR      r0,[sp,#0x18]
        0x08002d50:    b00a        ..      ADD      sp,sp,#0x28
        0x08002d52:    bd80        ..      POP      {r7,pc}
    SEGGER_RTT_printf
        0x08002d54:    b082        ..      SUB      sp,sp,#8
        0x08002d56:    b580        ..      PUSH     {r7,lr}
        0x08002d58:    b084        ..      SUB      sp,sp,#0x10
        0x08002d5a:    9307        ..      STR      r3,[sp,#0x1c]
        0x08002d5c:    9206        ..      STR      r2,[sp,#0x18]
        0x08002d5e:    9003        ..      STR      r0,[sp,#0xc]
        0x08002d60:    9102        ..      STR      r1,[sp,#8]
        0x08002d62:    a806        ..      ADD      r0,sp,#0x18
        0x08002d64:    9000        ..      STR      r0,[sp,#0]
        0x08002d66:    9803        ..      LDR      r0,[sp,#0xc]
        0x08002d68:    9902        ..      LDR      r1,[sp,#8]
        0x08002d6a:    466a        jF      MOV      r2,sp
        0x08002d6c:    f000f808    ....    BL       SEGGER_RTT_vprintf ; 0x8002d80
        0x08002d70:    9001        ..      STR      r0,[sp,#4]
        0x08002d72:    9801        ..      LDR      r0,[sp,#4]
        0x08002d74:    b004        ..      ADD      sp,sp,#0x10
        0x08002d76:    e8bd4080    ...@    POP      {r7,lr}
        0x08002d7a:    b002        ..      ADD      sp,sp,#8
        0x08002d7c:    4770        pG      BX       lr
        0x08002d7e:    0000        ..      MOVS     r0,r0
    SEGGER_RTT_vprintf
        0x08002d80:    b580        ..      PUSH     {r7,lr}
        0x08002d82:    b0a4        ..      SUB      sp,sp,#0x90
        0x08002d84:    9023        #.      STR      r0,[sp,#0x8c]
        0x08002d86:    9122        ".      STR      r1,[sp,#0x88]
        0x08002d88:    9221        !.      STR      r2,[sp,#0x84]
        0x08002d8a:    a807        ..      ADD      r0,sp,#0x1c
        0x08002d8c:    901b        ..      STR      r0,[sp,#0x6c]
        0x08002d8e:    2040        @       MOVS     r0,#0x40
        0x08002d90:    901c        ..      STR      r0,[sp,#0x70]
        0x08002d92:    2000        .       MOVS     r0,#0
        0x08002d94:    901d        ..      STR      r0,[sp,#0x74]
        0x08002d96:    9923        #.      LDR      r1,[sp,#0x8c]
        0x08002d98:    911f        ..      STR      r1,[sp,#0x7c]
        0x08002d9a:    901e        ..      STR      r0,[sp,#0x78]
        0x08002d9c:    e7ff        ..      B        0x8002d9e ; SEGGER_RTT_vprintf + 30
        0x08002d9e:    9822        ".      LDR      r0,[sp,#0x88]
        0x08002da0:    7800        .x      LDRB     r0,[r0,#0]
        0x08002da2:    f88d0083    ....    STRB     r0,[sp,#0x83]
        0x08002da6:    9822        ".      LDR      r0,[sp,#0x88]
        0x08002da8:    3001        .0      ADDS     r0,#1
        0x08002daa:    9022        ".      STR      r0,[sp,#0x88]
        0x08002dac:    f89d0083    ....    LDRB     r0,[sp,#0x83]
        0x08002db0:    b908        ..      CBNZ     r0,0x8002db6 ; SEGGER_RTT_vprintf + 54
        0x08002db2:    e7ff        ..      B        0x8002db4 ; SEGGER_RTT_vprintf + 52
        0x08002db4:    e16d        m.      B        0x8003092 ; SEGGER_RTT_vprintf + 786
        0x08002db6:    f89d0083    ....    LDRB     r0,[sp,#0x83]
        0x08002dba:    2825        %(      CMP      r0,#0x25
        0x08002dbc:    f040815c    @.\.    BNE.W    0x8003078 ; SEGGER_RTT_vprintf + 760
        0x08002dc0:    e7ff        ..      B        0x8002dc2 ; SEGGER_RTT_vprintf + 66
        0x08002dc2:    2000        .       MOVS     r0,#0
        0x08002dc4:    9018        ..      STR      r0,[sp,#0x60]
        0x08002dc6:    2001        .       MOVS     r0,#1
        0x08002dc8:    901a        ..      STR      r0,[sp,#0x68]
        0x08002dca:    e7ff        ..      B        0x8002dcc ; SEGGER_RTT_vprintf + 76
        0x08002dcc:    9822        ".      LDR      r0,[sp,#0x88]
        0x08002dce:    7800        .x      LDRB     r0,[r0,#0]
        0x08002dd0:    f88d0083    ....    STRB     r0,[sp,#0x83]
        0x08002dd4:    f89d0083    ....    LDRB     r0,[sp,#0x83]
        0x08002dd8:    3823        #8      SUBS     r0,r0,#0x23
        0x08002dda:    4601        .F      MOV      r1,r0
        0x08002ddc:    9104        ..      STR      r1,[sp,#0x10]
        0x08002dde:    280d        .(      CMP      r0,#0xd
        0x08002de0:    d829        ).      BHI      0x8002e36 ; SEGGER_RTT_vprintf + 182
        0x08002de2:    9904        ..      LDR      r1,[sp,#0x10]
        0x08002de4:    e8dff001    ....    TBB      [pc,r1]
    $d.1
        0x08002de8:    2727271f    .'''    DCD    656877343
        0x08002dec:    27272727    ''''    DCD    656877351
        0x08002df0:    27072717    .'.'    DCD    654780183
        0x08002df4:    0f27        '.      DCW    3879
    $t.2
        0x08002df6:    9818        ..      LDR      r0,[sp,#0x60]
        0x08002df8:    f0400001    @...    ORR      r0,r0,#1
        0x08002dfc:    9018        ..      STR      r0,[sp,#0x60]
        0x08002dfe:    9822        ".      LDR      r0,[sp,#0x88]
        0x08002e00:    3001        .0      ADDS     r0,#1
        0x08002e02:    9022        ".      STR      r0,[sp,#0x88]
        0x08002e04:    e01a        ..      B        0x8002e3c ; SEGGER_RTT_vprintf + 188
        0x08002e06:    9818        ..      LDR      r0,[sp,#0x60]
        0x08002e08:    f0400002    @...    ORR      r0,r0,#2
        0x08002e0c:    9018        ..      STR      r0,[sp,#0x60]
        0x08002e0e:    9822        ".      LDR      r0,[sp,#0x88]
        0x08002e10:    3001        .0      ADDS     r0,#1
        0x08002e12:    9022        ".      STR      r0,[sp,#0x88]
        0x08002e14:    e012        ..      B        0x8002e3c ; SEGGER_RTT_vprintf + 188
        0x08002e16:    9818        ..      LDR      r0,[sp,#0x60]
        0x08002e18:    f0400004    @...    ORR      r0,r0,#4
        0x08002e1c:    9018        ..      STR      r0,[sp,#0x60]
        0x08002e1e:    9822        ".      LDR      r0,[sp,#0x88]
        0x08002e20:    3001        .0      ADDS     r0,#1
        0x08002e22:    9022        ".      STR      r0,[sp,#0x88]
        0x08002e24:    e00a        ..      B        0x8002e3c ; SEGGER_RTT_vprintf + 188
        0x08002e26:    9818        ..      LDR      r0,[sp,#0x60]
        0x08002e28:    f0400008    @...    ORR      r0,r0,#8
        0x08002e2c:    9018        ..      STR      r0,[sp,#0x60]
        0x08002e2e:    9822        ".      LDR      r0,[sp,#0x88]
        0x08002e30:    3001        .0      ADDS     r0,#1
        0x08002e32:    9022        ".      STR      r0,[sp,#0x88]
        0x08002e34:    e002        ..      B        0x8002e3c ; SEGGER_RTT_vprintf + 188
        0x08002e36:    2000        .       MOVS     r0,#0
        0x08002e38:    901a        ..      STR      r0,[sp,#0x68]
        0x08002e3a:    e7ff        ..      B        0x8002e3c ; SEGGER_RTT_vprintf + 188
        0x08002e3c:    e7ff        ..      B        0x8002e3e ; SEGGER_RTT_vprintf + 190
        0x08002e3e:    981a        ..      LDR      r0,[sp,#0x68]
        0x08002e40:    2800        .(      CMP      r0,#0
        0x08002e42:    d1c3        ..      BNE      0x8002dcc ; SEGGER_RTT_vprintf + 76
        0x08002e44:    e7ff        ..      B        0x8002e46 ; SEGGER_RTT_vprintf + 198
        0x08002e46:    2000        .       MOVS     r0,#0
        0x08002e48:    9017        ..      STR      r0,[sp,#0x5c]
        0x08002e4a:    e7ff        ..      B        0x8002e4c ; SEGGER_RTT_vprintf + 204
        0x08002e4c:    9822        ".      LDR      r0,[sp,#0x88]
        0x08002e4e:    7800        .x      LDRB     r0,[r0,#0]
        0x08002e50:    f88d0083    ....    STRB     r0,[sp,#0x83]
        0x08002e54:    f89d0083    ....    LDRB     r0,[sp,#0x83]
        0x08002e58:    2830        0(      CMP      r0,#0x30
        0x08002e5a:    db05        ..      BLT      0x8002e68 ; SEGGER_RTT_vprintf + 232
        0x08002e5c:    e7ff        ..      B        0x8002e5e ; SEGGER_RTT_vprintf + 222
        0x08002e5e:    f89d0083    ....    LDRB     r0,[sp,#0x83]
        0x08002e62:    283a        :(      CMP      r0,#0x3a
        0x08002e64:    db01        ..      BLT      0x8002e6a ; SEGGER_RTT_vprintf + 234
        0x08002e66:    e7ff        ..      B        0x8002e68 ; SEGGER_RTT_vprintf + 232
        0x08002e68:    e010        ..      B        0x8002e8c ; SEGGER_RTT_vprintf + 268
        0x08002e6a:    9822        ".      LDR      r0,[sp,#0x88]
        0x08002e6c:    3001        .0      ADDS     r0,#1
        0x08002e6e:    9022        ".      STR      r0,[sp,#0x88]
        0x08002e70:    9817        ..      LDR      r0,[sp,#0x5c]
        0x08002e72:    eb000180    ....    ADD      r1,r0,r0,LSL #2
        0x08002e76:    f89d0083    ....    LDRB     r0,[sp,#0x83]
        0x08002e7a:    eb000041    ..A.    ADD      r0,r0,r1,LSL #1
        0x08002e7e:    3830        08      SUBS     r0,r0,#0x30
        0x08002e80:    9017        ..      STR      r0,[sp,#0x5c]
        0x08002e82:    e7ff        ..      B        0x8002e84 ; SEGGER_RTT_vprintf + 260
        0x08002e84:    2001        .       MOVS     r0,#1
        0x08002e86:    2800        .(      CMP      r0,#0
        0x08002e88:    d1e0        ..      BNE      0x8002e4c ; SEGGER_RTT_vprintf + 204
        0x08002e8a:    e7ff        ..      B        0x8002e8c ; SEGGER_RTT_vprintf + 268
        0x08002e8c:    2000        .       MOVS     r0,#0
        0x08002e8e:    9019        ..      STR      r0,[sp,#0x64]
        0x08002e90:    9822        ".      LDR      r0,[sp,#0x88]
        0x08002e92:    7800        .x      LDRB     r0,[r0,#0]
        0x08002e94:    f88d0083    ....    STRB     r0,[sp,#0x83]
        0x08002e98:    f89d0083    ....    LDRB     r0,[sp,#0x83]
        0x08002e9c:    282e        .(      CMP      r0,#0x2e
        0x08002e9e:    d125        %.      BNE      0x8002eec ; SEGGER_RTT_vprintf + 364
        0x08002ea0:    e7ff        ..      B        0x8002ea2 ; SEGGER_RTT_vprintf + 290
        0x08002ea2:    9822        ".      LDR      r0,[sp,#0x88]
        0x08002ea4:    3001        .0      ADDS     r0,#1
        0x08002ea6:    9022        ".      STR      r0,[sp,#0x88]
        0x08002ea8:    e7ff        ..      B        0x8002eaa ; SEGGER_RTT_vprintf + 298
        0x08002eaa:    9822        ".      LDR      r0,[sp,#0x88]
        0x08002eac:    7800        .x      LDRB     r0,[r0,#0]
        0x08002eae:    f88d0083    ....    STRB     r0,[sp,#0x83]
        0x08002eb2:    f89d0083    ....    LDRB     r0,[sp,#0x83]
        0x08002eb6:    2830        0(      CMP      r0,#0x30
        0x08002eb8:    db05        ..      BLT      0x8002ec6 ; SEGGER_RTT_vprintf + 326
        0x08002eba:    e7ff        ..      B        0x8002ebc ; SEGGER_RTT_vprintf + 316
        0x08002ebc:    f89d0083    ....    LDRB     r0,[sp,#0x83]
        0x08002ec0:    283a        :(      CMP      r0,#0x3a
        0x08002ec2:    db01        ..      BLT      0x8002ec8 ; SEGGER_RTT_vprintf + 328
        0x08002ec4:    e7ff        ..      B        0x8002ec6 ; SEGGER_RTT_vprintf + 326
        0x08002ec6:    e010        ..      B        0x8002eea ; SEGGER_RTT_vprintf + 362
        0x08002ec8:    9822        ".      LDR      r0,[sp,#0x88]
        0x08002eca:    3001        .0      ADDS     r0,#1
        0x08002ecc:    9022        ".      STR      r0,[sp,#0x88]
        0x08002ece:    9819        ..      LDR      r0,[sp,#0x64]
        0x08002ed0:    eb000180    ....    ADD      r1,r0,r0,LSL #2
        0x08002ed4:    f89d0083    ....    LDRB     r0,[sp,#0x83]
        0x08002ed8:    eb000041    ..A.    ADD      r0,r0,r1,LSL #1
        0x08002edc:    3830        08      SUBS     r0,r0,#0x30
        0x08002ede:    9019        ..      STR      r0,[sp,#0x64]
        0x08002ee0:    e7ff        ..      B        0x8002ee2 ; SEGGER_RTT_vprintf + 354
        0x08002ee2:    2001        .       MOVS     r0,#1
        0x08002ee4:    2800        .(      CMP      r0,#0
        0x08002ee6:    d1e0        ..      BNE      0x8002eaa ; SEGGER_RTT_vprintf + 298
        0x08002ee8:    e7ff        ..      B        0x8002eea ; SEGGER_RTT_vprintf + 362
        0x08002eea:    e7ff        ..      B        0x8002eec ; SEGGER_RTT_vprintf + 364
        0x08002eec:    9822        ".      LDR      r0,[sp,#0x88]
        0x08002eee:    7800        .x      LDRB     r0,[r0,#0]
        0x08002ef0:    f88d0083    ....    STRB     r0,[sp,#0x83]
        0x08002ef4:    e7ff        ..      B        0x8002ef6 ; SEGGER_RTT_vprintf + 374
        0x08002ef6:    f89d0083    ....    LDRB     r0,[sp,#0x83]
        0x08002efa:    286c        l(      CMP      r0,#0x6c
        0x08002efc:    d005        ..      BEQ      0x8002f0a ; SEGGER_RTT_vprintf + 394
        0x08002efe:    e7ff        ..      B        0x8002f00 ; SEGGER_RTT_vprintf + 384
        0x08002f00:    f89d0083    ....    LDRB     r0,[sp,#0x83]
        0x08002f04:    2868        h(      CMP      r0,#0x68
        0x08002f06:    d108        ..      BNE      0x8002f1a ; SEGGER_RTT_vprintf + 410
        0x08002f08:    e7ff        ..      B        0x8002f0a ; SEGGER_RTT_vprintf + 394
        0x08002f0a:    9822        ".      LDR      r0,[sp,#0x88]
        0x08002f0c:    3001        .0      ADDS     r0,#1
        0x08002f0e:    9022        ".      STR      r0,[sp,#0x88]
        0x08002f10:    9822        ".      LDR      r0,[sp,#0x88]
        0x08002f12:    7800        .x      LDRB     r0,[r0,#0]
        0x08002f14:    f88d0083    ....    STRB     r0,[sp,#0x83]
        0x08002f18:    e000        ..      B        0x8002f1c ; SEGGER_RTT_vprintf + 412
        0x08002f1a:    e004        ..      B        0x8002f26 ; SEGGER_RTT_vprintf + 422
        0x08002f1c:    e7ff        ..      B        0x8002f1e ; SEGGER_RTT_vprintf + 414
        0x08002f1e:    2001        .       MOVS     r0,#1
        0x08002f20:    2800        .(      CMP      r0,#0
        0x08002f22:    d1e8        ..      BNE      0x8002ef6 ; SEGGER_RTT_vprintf + 374
        0x08002f24:    e7ff        ..      B        0x8002f26 ; SEGGER_RTT_vprintf + 422
        0x08002f26:    f89d0083    ....    LDRB     r0,[sp,#0x83]
        0x08002f2a:    4601        .F      MOV      r1,r0
        0x08002f2c:    9103        ..      STR      r1,[sp,#0xc]
        0x08002f2e:    2825        %(      CMP      r0,#0x25
        0x08002f30:    f0008098    ....    BEQ.W    0x8003064 ; SEGGER_RTT_vprintf + 740
        0x08002f34:    e7ff        ..      B        0x8002f36 ; SEGGER_RTT_vprintf + 438
        0x08002f36:    9803        ..      LDR      r0,[sp,#0xc]
        0x08002f38:    2858        X(      CMP      r0,#0x58
        0x08002f3a:    d04f        O.      BEQ      0x8002fdc ; SEGGER_RTT_vprintf + 604
        0x08002f3c:    e7ff        ..      B        0x8002f3e ; SEGGER_RTT_vprintf + 446
        0x08002f3e:    9803        ..      LDR      r0,[sp,#0xc]
        0x08002f40:    2863        c(      CMP      r0,#0x63
        0x08002f42:    d014        ..      BEQ      0x8002f6e ; SEGGER_RTT_vprintf + 494
        0x08002f44:    e7ff        ..      B        0x8002f46 ; SEGGER_RTT_vprintf + 454
        0x08002f46:    9803        ..      LDR      r0,[sp,#0xc]
        0x08002f48:    2864        d(      CMP      r0,#0x64
        0x08002f4a:    d01f        ..      BEQ      0x8002f8c ; SEGGER_RTT_vprintf + 524
        0x08002f4c:    e7ff        ..      B        0x8002f4e ; SEGGER_RTT_vprintf + 462
        0x08002f4e:    9803        ..      LDR      r0,[sp,#0xc]
        0x08002f50:    2870        p(      CMP      r0,#0x70
        0x08002f52:    d076        v.      BEQ      0x8003042 ; SEGGER_RTT_vprintf + 706
        0x08002f54:    e7ff        ..      B        0x8002f56 ; SEGGER_RTT_vprintf + 470
        0x08002f56:    9803        ..      LDR      r0,[sp,#0xc]
        0x08002f58:    2873        s(      CMP      r0,#0x73
        0x08002f5a:    d053        S.      BEQ      0x8003004 ; SEGGER_RTT_vprintf + 644
        0x08002f5c:    e7ff        ..      B        0x8002f5e ; SEGGER_RTT_vprintf + 478
        0x08002f5e:    9803        ..      LDR      r0,[sp,#0xc]
        0x08002f60:    2875        u(      CMP      r0,#0x75
        0x08002f62:    d027        '.      BEQ      0x8002fb4 ; SEGGER_RTT_vprintf + 564
        0x08002f64:    e7ff        ..      B        0x8002f66 ; SEGGER_RTT_vprintf + 486
        0x08002f66:    9803        ..      LDR      r0,[sp,#0xc]
        0x08002f68:    2878        x(      CMP      r0,#0x78
        0x08002f6a:    d037        7.      BEQ      0x8002fdc ; SEGGER_RTT_vprintf + 604
        0x08002f6c:    e07f        ..      B        0x800306e ; SEGGER_RTT_vprintf + 750
        0x08002f6e:    9a21        !.      LDR      r2,[sp,#0x84]
        0x08002f70:    6810        .h      LDR      r0,[r2,#0]
        0x08002f72:    1d01        ..      ADDS     r1,r0,#4
        0x08002f74:    6011        .`      STR      r1,[r2,#0]
        0x08002f76:    6800        .h      LDR      r0,[r0,#0]
        0x08002f78:    901a        ..      STR      r0,[sp,#0x68]
        0x08002f7a:    981a        ..      LDR      r0,[sp,#0x68]
        0x08002f7c:    f88d001b    ....    STRB     r0,[sp,#0x1b]
        0x08002f80:    f89d101b    ....    LDRB     r1,[sp,#0x1b]
        0x08002f84:    a81b        ..      ADD      r0,sp,#0x6c
        0x08002f86:    f000fe5b    ..[.    BL       _StoreChar ; 0x8003c40
        0x08002f8a:    e071        q.      B        0x8003070 ; SEGGER_RTT_vprintf + 752
        0x08002f8c:    9a21        !.      LDR      r2,[sp,#0x84]
        0x08002f8e:    6810        .h      LDR      r0,[r2,#0]
        0x08002f90:    1d01        ..      ADDS     r1,r0,#4
        0x08002f92:    6011        .`      STR      r1,[r2,#0]
        0x08002f94:    6800        .h      LDR      r0,[r0,#0]
        0x08002f96:    901a        ..      STR      r0,[sp,#0x68]
        0x08002f98:    991a        ..      LDR      r1,[sp,#0x68]
        0x08002f9a:    9b19        ..      LDR      r3,[sp,#0x64]
        0x08002f9c:    9817        ..      LDR      r0,[sp,#0x5c]
        0x08002f9e:    f8ddc060    ..`.    LDR      r12,[sp,#0x60]
        0x08002fa2:    466a        jF      MOV      r2,sp
        0x08002fa4:    f8c2c004    ....    STR      r12,[r2,#4]
        0x08002fa8:    6010        .`      STR      r0,[r2,#0]
        0x08002faa:    a81b        ..      ADD      r0,sp,#0x6c
        0x08002fac:    220a        ."      MOVS     r2,#0xa
        0x08002fae:    f000fc8b    ....    BL       _PrintInt ; 0x80038c8
        0x08002fb2:    e05d        ].      B        0x8003070 ; SEGGER_RTT_vprintf + 752
        0x08002fb4:    9a21        !.      LDR      r2,[sp,#0x84]
        0x08002fb6:    6810        .h      LDR      r0,[r2,#0]
        0x08002fb8:    1d01        ..      ADDS     r1,r0,#4
        0x08002fba:    6011        .`      STR      r1,[r2,#0]
        0x08002fbc:    6800        .h      LDR      r0,[r0,#0]
        0x08002fbe:    901a        ..      STR      r0,[sp,#0x68]
        0x08002fc0:    991a        ..      LDR      r1,[sp,#0x68]
        0x08002fc2:    9b19        ..      LDR      r3,[sp,#0x64]
        0x08002fc4:    9817        ..      LDR      r0,[sp,#0x5c]
        0x08002fc6:    f8ddc060    ..`.    LDR      r12,[sp,#0x60]
        0x08002fca:    466a        jF      MOV      r2,sp
        0x08002fcc:    f8c2c004    ....    STR      r12,[r2,#4]
        0x08002fd0:    6010        .`      STR      r0,[r2,#0]
        0x08002fd2:    a81b        ..      ADD      r0,sp,#0x6c
        0x08002fd4:    220a        ."      MOVS     r2,#0xa
        0x08002fd6:    f000fd5d    ..].    BL       _PrintUnsigned ; 0x8003a94
        0x08002fda:    e049        I.      B        0x8003070 ; SEGGER_RTT_vprintf + 752
        0x08002fdc:    9a21        !.      LDR      r2,[sp,#0x84]
        0x08002fde:    6810        .h      LDR      r0,[r2,#0]
        0x08002fe0:    1d01        ..      ADDS     r1,r0,#4
        0x08002fe2:    6011        .`      STR      r1,[r2,#0]
        0x08002fe4:    6800        .h      LDR      r0,[r0,#0]
        0x08002fe6:    901a        ..      STR      r0,[sp,#0x68]
        0x08002fe8:    991a        ..      LDR      r1,[sp,#0x68]
        0x08002fea:    9b19        ..      LDR      r3,[sp,#0x64]
        0x08002fec:    9817        ..      LDR      r0,[sp,#0x5c]
        0x08002fee:    f8ddc060    ..`.    LDR      r12,[sp,#0x60]
        0x08002ff2:    466a        jF      MOV      r2,sp
        0x08002ff4:    f8c2c004    ....    STR      r12,[r2,#4]
        0x08002ff8:    6010        .`      STR      r0,[r2,#0]
        0x08002ffa:    a81b        ..      ADD      r0,sp,#0x6c
        0x08002ffc:    2210        ."      MOVS     r2,#0x10
        0x08002ffe:    f000fd49    ..I.    BL       _PrintUnsigned ; 0x8003a94
        0x08003002:    e035        5.      B        0x8003070 ; SEGGER_RTT_vprintf + 752
        0x08003004:    9a21        !.      LDR      r2,[sp,#0x84]
        0x08003006:    6810        .h      LDR      r0,[r2,#0]
        0x08003008:    1d01        ..      ADDS     r1,r0,#4
        0x0800300a:    6011        .`      STR      r1,[r2,#0]
        0x0800300c:    6800        .h      LDR      r0,[r0,#0]
        0x0800300e:    9005        ..      STR      r0,[sp,#0x14]
        0x08003010:    e7ff        ..      B        0x8003012 ; SEGGER_RTT_vprintf + 658
        0x08003012:    9805        ..      LDR      r0,[sp,#0x14]
        0x08003014:    7800        .x      LDRB     r0,[r0,#0]
        0x08003016:    f88d0083    ....    STRB     r0,[sp,#0x83]
        0x0800301a:    9805        ..      LDR      r0,[sp,#0x14]
        0x0800301c:    3001        .0      ADDS     r0,#1
        0x0800301e:    9005        ..      STR      r0,[sp,#0x14]
        0x08003020:    f89d0083    ....    LDRB     r0,[sp,#0x83]
        0x08003024:    b908        ..      CBNZ     r0,0x800302a ; SEGGER_RTT_vprintf + 682
        0x08003026:    e7ff        ..      B        0x8003028 ; SEGGER_RTT_vprintf + 680
        0x08003028:    e00a        ..      B        0x8003040 ; SEGGER_RTT_vprintf + 704
        0x0800302a:    f89d1083    ....    LDRB     r1,[sp,#0x83]
        0x0800302e:    a81b        ..      ADD      r0,sp,#0x6c
        0x08003030:    f000fe06    ....    BL       _StoreChar ; 0x8003c40
        0x08003034:    e7ff        ..      B        0x8003036 ; SEGGER_RTT_vprintf + 694
        0x08003036:    981e        ..      LDR      r0,[sp,#0x78]
        0x08003038:    f1b03fff    ...?    CMP      r0,#0xffffffff
        0x0800303c:    dce9        ..      BGT      0x8003012 ; SEGGER_RTT_vprintf + 658
        0x0800303e:    e7ff        ..      B        0x8003040 ; SEGGER_RTT_vprintf + 704
        0x08003040:    e016        ..      B        0x8003070 ; SEGGER_RTT_vprintf + 752
        0x08003042:    9a21        !.      LDR      r2,[sp,#0x84]
        0x08003044:    6810        .h      LDR      r0,[r2,#0]
        0x08003046:    1d01        ..      ADDS     r1,r0,#4
        0x08003048:    6011        .`      STR      r1,[r2,#0]
        0x0800304a:    6800        .h      LDR      r0,[r0,#0]
        0x0800304c:    901a        ..      STR      r0,[sp,#0x68]
        0x0800304e:    991a        ..      LDR      r1,[sp,#0x68]
        0x08003050:    4668        hF      MOV      r0,sp
        0x08003052:    2200        ."      MOVS     r2,#0
        0x08003054:    6042        B`      STR      r2,[r0,#4]
        0x08003056:    2308        .#      MOVS     r3,#8
        0x08003058:    6003        .`      STR      r3,[r0,#0]
        0x0800305a:    a81b        ..      ADD      r0,sp,#0x6c
        0x0800305c:    2210        ."      MOVS     r2,#0x10
        0x0800305e:    f000fd19    ....    BL       _PrintUnsigned ; 0x8003a94
        0x08003062:    e005        ..      B        0x8003070 ; SEGGER_RTT_vprintf + 752
        0x08003064:    a81b        ..      ADD      r0,sp,#0x6c
        0x08003066:    2125        %!      MOVS     r1,#0x25
        0x08003068:    f000fdea    ....    BL       _StoreChar ; 0x8003c40
        0x0800306c:    e000        ..      B        0x8003070 ; SEGGER_RTT_vprintf + 752
        0x0800306e:    e7ff        ..      B        0x8003070 ; SEGGER_RTT_vprintf + 752
        0x08003070:    9822        ".      LDR      r0,[sp,#0x88]
        0x08003072:    3001        .0      ADDS     r0,#1
        0x08003074:    9022        ".      STR      r0,[sp,#0x88]
        0x08003076:    e005        ..      B        0x8003084 ; SEGGER_RTT_vprintf + 772
        0x08003078:    f89d1083    ....    LDRB     r1,[sp,#0x83]
        0x0800307c:    a81b        ..      ADD      r0,sp,#0x6c
        0x0800307e:    f000fddf    ....    BL       _StoreChar ; 0x8003c40
        0x08003082:    e7ff        ..      B        0x8003084 ; SEGGER_RTT_vprintf + 772
        0x08003084:    e7ff        ..      B        0x8003086 ; SEGGER_RTT_vprintf + 774
        0x08003086:    981e        ..      LDR      r0,[sp,#0x78]
        0x08003088:    f1b03fff    ...?    CMP      r0,#0xffffffff
        0x0800308c:    f73fae87    ?...    BGT      0x8002d9e ; SEGGER_RTT_vprintf + 30
        0x08003090:    e7ff        ..      B        0x8003092 ; SEGGER_RTT_vprintf + 786
        0x08003092:    981e        ..      LDR      r0,[sp,#0x78]
        0x08003094:    2801        .(      CMP      r0,#1
        0x08003096:    db0e        ..      BLT      0x80030b6 ; SEGGER_RTT_vprintf + 822
        0x08003098:    e7ff        ..      B        0x800309a ; SEGGER_RTT_vprintf + 794
        0x0800309a:    981d        ..      LDR      r0,[sp,#0x74]
        0x0800309c:    b130        0.      CBZ      r0,0x80030ac ; SEGGER_RTT_vprintf + 812
        0x0800309e:    e7ff        ..      B        0x80030a0 ; SEGGER_RTT_vprintf + 800
        0x080030a0:    9823        #.      LDR      r0,[sp,#0x8c]
        0x080030a2:    9a1d        ..      LDR      r2,[sp,#0x74]
        0x080030a4:    a907        ..      ADD      r1,sp,#0x1c
        0x080030a6:    f7fffdd7    ....    BL       SEGGER_RTT_Write ; 0x8002c58
        0x080030aa:    e7ff        ..      B        0x80030ac ; SEGGER_RTT_vprintf + 812
        0x080030ac:    991d        ..      LDR      r1,[sp,#0x74]
        0x080030ae:    981e        ..      LDR      r0,[sp,#0x78]
        0x080030b0:    4408        .D      ADD      r0,r0,r1
        0x080030b2:    901e        ..      STR      r0,[sp,#0x78]
        0x080030b4:    e7ff        ..      B        0x80030b6 ; SEGGER_RTT_vprintf + 822
        0x080030b6:    981e        ..      LDR      r0,[sp,#0x78]
        0x080030b8:    b024        $.      ADD      sp,sp,#0x90
        0x080030ba:    bd80        ..      POP      {r7,pc}
    SPI2_IRQHandler
        0x080030bc:    b580        ..      PUSH     {r7,lr}
        0x080030be:    f2430000    C...    MOVW     r0,#0x3000
        0x080030c2:    f2c40001    ....    MOVT     r0,#0x4001
        0x080030c6:    2160        `!      MOVS     r1,#0x60
        0x080030c8:    f000f832    ..2.    BL       SPI_I2S_GetIntStatus ; 0x8003130
        0x080030cc:    b138        8.      CBZ      r0,0x80030de ; SPI2_IRQHandler + 34
        0x080030ce:    e7ff        ..      B        0x80030d0 ; SPI2_IRQHandler + 20
        0x080030d0:    f2430000    C...    MOVW     r0,#0x3000
        0x080030d4:    f2c40001    ....    MOVT     r0,#0x4001
        0x080030d8:    f000f886    ....    BL       SPI_I2S_ReceiveData ; 0x80031e8
        0x080030dc:    e010        ..      B        0x8003100 ; SPI2_IRQHandler + 68
        0x080030de:    f2430000    C...    MOVW     r0,#0x3000
        0x080030e2:    f2c40001    ....    MOVT     r0,#0x4001
        0x080030e6:    2171        q!      MOVS     r1,#0x71
        0x080030e8:    f000f822    ..".    BL       SPI_I2S_GetIntStatus ; 0x8003130
        0x080030ec:    b938        8.      CBNZ     r0,0x80030fe ; SPI2_IRQHandler + 66
        0x080030ee:    e7ff        ..      B        0x80030f0 ; SPI2_IRQHandler + 52
        0x080030f0:    f24041c4    @..A    MOV      r1,#0x4c4
        0x080030f4:    f2c20100    ....    MOVT     r1,#0x2000
        0x080030f8:    2000        .       MOVS     r0,#0
        0x080030fa:    6008        .`      STR      r0,[r1,#0]
        0x080030fc:    e7ff        ..      B        0x80030fe ; SPI2_IRQHandler + 66
        0x080030fe:    e7ff        ..      B        0x8003100 ; SPI2_IRQHandler + 68
        0x08003100:    bd80        ..      POP      {r7,pc}
        0x08003102:    0000        ..      MOVS     r0,r0
    SPI_Enable
        0x08003104:    b082        ..      SUB      sp,sp,#8
        0x08003106:    9001        ..      STR      r0,[sp,#4]
        0x08003108:    f88d1003    ....    STRB     r1,[sp,#3]
        0x0800310c:    f89d0003    ....    LDRB     r0,[sp,#3]
        0x08003110:    b130        0.      CBZ      r0,0x8003120 ; SPI_Enable + 28
        0x08003112:    e7ff        ..      B        0x8003114 ; SPI_Enable + 16
        0x08003114:    9901        ..      LDR      r1,[sp,#4]
        0x08003116:    8808        ..      LDRH     r0,[r1,#0]
        0x08003118:    f0400040    @.@.    ORR      r0,r0,#0x40
        0x0800311c:    8008        ..      STRH     r0,[r1,#0]
        0x0800311e:    e005        ..      B        0x800312c ; SPI_Enable + 40
        0x08003120:    9901        ..      LDR      r1,[sp,#4]
        0x08003122:    8808        ..      LDRH     r0,[r1,#0]
        0x08003124:    f0200040     .@.    BIC      r0,r0,#0x40
        0x08003128:    8008        ..      STRH     r0,[r1,#0]
        0x0800312a:    e7ff        ..      B        0x800312c ; SPI_Enable + 40
        0x0800312c:    b002        ..      ADD      sp,sp,#8
        0x0800312e:    4770        pG      BX       lr
    SPI_I2S_GetIntStatus
        0x08003130:    b083        ..      SUB      sp,sp,#0xc
        0x08003132:    9002        ..      STR      r0,[sp,#8]
        0x08003134:    f88d1007    ....    STRB     r1,[sp,#7]
        0x08003138:    2000        .       MOVS     r0,#0
        0x0800313a:    f88d0006    ....    STRB     r0,[sp,#6]
        0x0800313e:    f8ad0004    ....    STRH     r0,[sp,#4]
        0x08003142:    f8ad0002    ....    STRH     r0,[sp,#2]
        0x08003146:    f8ad0000    ....    STRH     r0,[sp,#0]
        0x0800314a:    f89d0007    ....    LDRB     r0,[sp,#7]
        0x0800314e:    f000010f    ....    AND      r1,r0,#0xf
        0x08003152:    2001        .       MOVS     r0,#1
        0x08003154:    fa00f101    ....    LSL      r1,r0,r1
        0x08003158:    f8ad1004    ....    STRH     r1,[sp,#4]
        0x0800315c:    f89d1007    ....    LDRB     r1,[sp,#7]
        0x08003160:    0909        ..      LSRS     r1,r1,#4
        0x08003162:    f8ad1002    ....    STRH     r1,[sp,#2]
        0x08003166:    f8bd1002    ....    LDRH     r1,[sp,#2]
        0x0800316a:    4088        .@      LSLS     r0,r0,r1
        0x0800316c:    f8ad0002    ....    STRH     r0,[sp,#2]
        0x08003170:    9802        ..      LDR      r0,[sp,#8]
        0x08003172:    8880        ..      LDRH     r0,[r0,#4]
        0x08003174:    f8bd1002    ....    LDRH     r1,[sp,#2]
        0x08003178:    4008        .@      ANDS     r0,r0,r1
        0x0800317a:    f8ad0000    ....    STRH     r0,[sp,#0]
        0x0800317e:    9802        ..      LDR      r0,[sp,#8]
        0x08003180:    8900        ..      LDRH     r0,[r0,#8]
        0x08003182:    f8bd1004    ....    LDRH     r1,[sp,#4]
        0x08003186:    4008        .@      ANDS     r0,r0,r1
        0x08003188:    0400        ..      LSLS     r0,r0,#16
        0x0800318a:    b140        @.      CBZ      r0,0x800319e ; SPI_I2S_GetIntStatus + 110
        0x0800318c:    e7ff        ..      B        0x800318e ; SPI_I2S_GetIntStatus + 94
        0x0800318e:    f8bd0000    ....    LDRH     r0,[sp,#0]
        0x08003192:    b120         .      CBZ      r0,0x800319e ; SPI_I2S_GetIntStatus + 110
        0x08003194:    e7ff        ..      B        0x8003196 ; SPI_I2S_GetIntStatus + 102
        0x08003196:    2001        .       MOVS     r0,#1
        0x08003198:    f88d0006    ....    STRB     r0,[sp,#6]
        0x0800319c:    e003        ..      B        0x80031a6 ; SPI_I2S_GetIntStatus + 118
        0x0800319e:    2000        .       MOVS     r0,#0
        0x080031a0:    f88d0006    ....    STRB     r0,[sp,#6]
        0x080031a4:    e7ff        ..      B        0x80031a6 ; SPI_I2S_GetIntStatus + 118
        0x080031a6:    f89d0006    ....    LDRB     r0,[sp,#6]
        0x080031aa:    b003        ..      ADD      sp,sp,#0xc
        0x080031ac:    4770        pG      BX       lr
        0x080031ae:    0000        ..      MOVS     r0,r0
    SPI_I2S_GetStatus
        0x080031b0:    b082        ..      SUB      sp,sp,#8
        0x080031b2:    9001        ..      STR      r0,[sp,#4]
        0x080031b4:    f8ad1002    ....    STRH     r1,[sp,#2]
        0x080031b8:    2000        .       MOVS     r0,#0
        0x080031ba:    f88d0001    ....    STRB     r0,[sp,#1]
        0x080031be:    9801        ..      LDR      r0,[sp,#4]
        0x080031c0:    8900        ..      LDRH     r0,[r0,#8]
        0x080031c2:    f8bd1002    ....    LDRH     r1,[sp,#2]
        0x080031c6:    4008        .@      ANDS     r0,r0,r1
        0x080031c8:    0400        ..      LSLS     r0,r0,#16
        0x080031ca:    b120         .      CBZ      r0,0x80031d6 ; SPI_I2S_GetStatus + 38
        0x080031cc:    e7ff        ..      B        0x80031ce ; SPI_I2S_GetStatus + 30
        0x080031ce:    2001        .       MOVS     r0,#1
        0x080031d0:    f88d0001    ....    STRB     r0,[sp,#1]
        0x080031d4:    e003        ..      B        0x80031de ; SPI_I2S_GetStatus + 46
        0x080031d6:    2000        .       MOVS     r0,#0
        0x080031d8:    f88d0001    ....    STRB     r0,[sp,#1]
        0x080031dc:    e7ff        ..      B        0x80031de ; SPI_I2S_GetStatus + 46
        0x080031de:    f89d0001    ....    LDRB     r0,[sp,#1]
        0x080031e2:    b002        ..      ADD      sp,sp,#8
        0x080031e4:    4770        pG      BX       lr
        0x080031e6:    0000        ..      MOVS     r0,r0
    SPI_I2S_ReceiveData
        0x080031e8:    b081        ..      SUB      sp,sp,#4
        0x080031ea:    9000        ..      STR      r0,[sp,#0]
        0x080031ec:    9800        ..      LDR      r0,[sp,#0]
        0x080031ee:    8980        ..      LDRH     r0,[r0,#0xc]
        0x080031f0:    b001        ..      ADD      sp,sp,#4
        0x080031f2:    4770        pG      BX       lr
    SPI_I2S_TransmitData
        0x080031f4:    b082        ..      SUB      sp,sp,#8
        0x080031f6:    9001        ..      STR      r0,[sp,#4]
        0x080031f8:    f8ad1002    ....    STRH     r1,[sp,#2]
        0x080031fc:    f8bd0002    ....    LDRH     r0,[sp,#2]
        0x08003200:    9901        ..      LDR      r1,[sp,#4]
        0x08003202:    8188        ..      STRH     r0,[r1,#0xc]
        0x08003204:    b002        ..      ADD      sp,sp,#8
        0x08003206:    4770        pG      BX       lr
    SPI_Init
        0x08003208:    b083        ..      SUB      sp,sp,#0xc
        0x0800320a:    9002        ..      STR      r0,[sp,#8]
        0x0800320c:    9101        ..      STR      r1,[sp,#4]
        0x0800320e:    2000        .       MOVS     r0,#0
        0x08003210:    f8ad0002    ....    STRH     r0,[sp,#2]
        0x08003214:    9802        ..      LDR      r0,[sp,#8]
        0x08003216:    8800        ..      LDRH     r0,[r0,#0]
        0x08003218:    f8ad0002    ....    STRH     r0,[sp,#2]
        0x0800321c:    f8bd0002    ....    LDRH     r0,[sp,#2]
        0x08003220:    f4005041    ..AP    AND      r0,r0,#0x3040
        0x08003224:    f8ad0002    ....    STRH     r0,[sp,#2]
        0x08003228:    9901        ..      LDR      r1,[sp,#4]
        0x0800322a:    8808        ..      LDRH     r0,[r1,#0]
        0x0800322c:    884a        J.      LDRH     r2,[r1,#2]
        0x0800322e:    4310        .C      ORRS     r0,r0,r2
        0x08003230:    888a        ..      LDRH     r2,[r1,#4]
        0x08003232:    4310        .C      ORRS     r0,r0,r2
        0x08003234:    88ca        ..      LDRH     r2,[r1,#6]
        0x08003236:    4310        .C      ORRS     r0,r0,r2
        0x08003238:    890a        ..      LDRH     r2,[r1,#8]
        0x0800323a:    4310        .C      ORRS     r0,r0,r2
        0x0800323c:    894a        J.      LDRH     r2,[r1,#0xa]
        0x0800323e:    4310        .C      ORRS     r0,r0,r2
        0x08003240:    898a        ..      LDRH     r2,[r1,#0xc]
        0x08003242:    4310        .C      ORRS     r0,r0,r2
        0x08003244:    89c9        ..      LDRH     r1,[r1,#0xe]
        0x08003246:    4301        .C      ORRS     r1,r1,r0
        0x08003248:    f8bd0002    ....    LDRH     r0,[sp,#2]
        0x0800324c:    4308        .C      ORRS     r0,r0,r1
        0x0800324e:    f8ad0002    ....    STRH     r0,[sp,#2]
        0x08003252:    f8bd0002    ....    LDRH     r0,[sp,#2]
        0x08003256:    9902        ..      LDR      r1,[sp,#8]
        0x08003258:    8008        ..      STRH     r0,[r1,#0]
        0x0800325a:    9902        ..      LDR      r1,[sp,#8]
        0x0800325c:    8b88        ..      LDRH     r0,[r1,#0x1c]
        0x0800325e:    f4206000     ..`    BIC      r0,r0,#0x800
        0x08003262:    8388        ..      STRH     r0,[r1,#0x1c]
        0x08003264:    9801        ..      LDR      r0,[sp,#4]
        0x08003266:    8a00        ..      LDRH     r0,[r0,#0x10]
        0x08003268:    9902        ..      LDR      r1,[sp,#8]
        0x0800326a:    8208        ..      STRH     r0,[r1,#0x10]
        0x0800326c:    b003        ..      ADD      sp,sp,#0xc
        0x0800326e:    4770        pG      BX       lr
    SPI_SSOutputEnable
        0x08003270:    b082        ..      SUB      sp,sp,#8
        0x08003272:    9001        ..      STR      r0,[sp,#4]
        0x08003274:    f88d1003    ....    STRB     r1,[sp,#3]
        0x08003278:    f89d0003    ....    LDRB     r0,[sp,#3]
        0x0800327c:    b130        0.      CBZ      r0,0x800328c ; SPI_SSOutputEnable + 28
        0x0800327e:    e7ff        ..      B        0x8003280 ; SPI_SSOutputEnable + 16
        0x08003280:    9901        ..      LDR      r1,[sp,#4]
        0x08003282:    8888        ..      LDRH     r0,[r1,#4]
        0x08003284:    f0400004    @...    ORR      r0,r0,#4
        0x08003288:    8088        ..      STRH     r0,[r1,#4]
        0x0800328a:    e005        ..      B        0x8003298 ; SPI_SSOutputEnable + 40
        0x0800328c:    9901        ..      LDR      r1,[sp,#4]
        0x0800328e:    8888        ..      LDRH     r0,[r1,#4]
        0x08003290:    f0200004     ...    BIC      r0,r0,#4
        0x08003294:    8088        ..      STRH     r0,[r1,#4]
        0x08003296:    e7ff        ..      B        0x8003298 ; SPI_SSOutputEnable + 40
        0x08003298:    b002        ..      ADD      sp,sp,#8
        0x0800329a:    4770        pG      BX       lr
    SVC_Handler
        0x0800329c:    4770        pG      BX       lr
        0x0800329e:    0000        ..      MOVS     r0,r0
    SetSysClock
        0x080032a0:    b084        ..      SUB      sp,sp,#0x10
        0x080032a2:    2000        .       MOVS     r0,#0
        0x080032a4:    9003        ..      STR      r0,[sp,#0xc]
        0x080032a6:    f88d000b    ....    STRB     r0,[sp,#0xb]
        0x080032aa:    9001        ..      STR      r0,[sp,#4]
        0x080032ac:    f2420100    B...    MOVW     r1,#0x2000
        0x080032b0:    f2c40102    ....    MOVT     r1,#0x4002
        0x080032b4:    6808        .h      LDR      r0,[r1,#0]
        0x080032b6:    f0200003     ...    BIC      r0,r0,#3
        0x080032ba:    6008        .`      STR      r0,[r1,#0]
        0x080032bc:    6808        .h      LDR      r0,[r1,#0]
        0x080032be:    f0400003    @...    ORR      r0,r0,#3
        0x080032c2:    6008        .`      STR      r0,[r1,#0]
        0x080032c4:    f2410104    A...    MOV      r1,#0x1004
        0x080032c8:    f2c40102    ....    MOVT     r1,#0x4002
        0x080032cc:    9100        ..      STR      r1,[sp,#0]
        0x080032ce:    6808        .h      LDR      r0,[r1,#0]
        0x080032d0:    6008        .`      STR      r0,[r1,#0]
        0x080032d2:    6808        .h      LDR      r0,[r1,#0]
        0x080032d4:    f4405000    @..P    ORR      r0,r0,#0x2000
        0x080032d8:    6008        .`      STR      r0,[r1,#0]
        0x080032da:    6808        .h      LDR      r0,[r1,#0]
        0x080032dc:    f44060a0    @..`    ORR      r0,r0,#0x500
        0x080032e0:    6008        .`      STR      r0,[r1,#0]
        0x080032e2:    6808        .h      LDR      r0,[r1,#0]
        0x080032e4:    f64f72ff    O..r    MOV      r2,#0xffff
        0x080032e8:    f2cf72c0    ...r    MOVT     r2,#0xf7c0
        0x080032ec:    4010        .@      ANDS     r0,r0,r2
        0x080032ee:    6008        .`      STR      r0,[r1,#0]
        0x080032f0:    6808        .h      LDR      r0,[r1,#0]
        0x080032f2:    9003        ..      STR      r0,[sp,#0xc]
        0x080032f4:    9803        ..      LDR      r0,[sp,#0xc]
        0x080032f6:    2200        ."      MOVS     r2,#0
        0x080032f8:    f6c0023c    ..<.    MOVT     r2,#0x83c
        0x080032fc:    4310        .C      ORRS     r0,r0,r2
        0x080032fe:    9003        ..      STR      r0,[sp,#0xc]
        0x08003300:    9803        ..      LDR      r0,[sp,#0xc]
        0x08003302:    6008        .`      STR      r0,[r1,#0]
        0x08003304:    f2410100    A...    MOVW     r1,#0x1000
        0x08003308:    f2c40102    ....    MOVT     r1,#0x4002
        0x0800330c:    6808        .h      LDR      r0,[r1,#0]
        0x0800330e:    f0407080    @..p    ORR      r0,r0,#0x1000000
        0x08003312:    6008        .`      STR      r0,[r1,#0]
        0x08003314:    e7ff        ..      B        0x8003316 ; SetSysClock + 118
        0x08003316:    f2410000    A...    MOVW     r0,#0x1000
        0x0800331a:    f2c40002    ....    MOVT     r0,#0x4002
        0x0800331e:    6800        .h      LDR      r0,[r0,#0]
        0x08003320:    0180        ..      LSLS     r0,r0,#6
        0x08003322:    2800        .(      CMP      r0,#0
        0x08003324:    d401        ..      BMI      0x800332a ; SetSysClock + 138
        0x08003326:    e7ff        ..      B        0x8003328 ; SetSysClock + 136
        0x08003328:    e7f5        ..      B        0x8003316 ; SetSysClock + 118
        0x0800332a:    f2410104    A...    MOV      r1,#0x1004
        0x0800332e:    f2c40102    ....    MOVT     r1,#0x4002
        0x08003332:    6808        .h      LDR      r0,[r1,#0]
        0x08003334:    f0200003     ...    BIC      r0,r0,#3
        0x08003338:    6008        .`      STR      r0,[r1,#0]
        0x0800333a:    6808        .h      LDR      r0,[r1,#0]
        0x0800333c:    f0400002    @...    ORR      r0,r0,#2
        0x08003340:    6008        .`      STR      r0,[r1,#0]
        0x08003342:    e7ff        ..      B        0x8003344 ; SetSysClock + 164
        0x08003344:    f2410004    A...    MOV      r0,#0x1004
        0x08003348:    f2c40002    ....    MOVT     r0,#0x4002
        0x0800334c:    6800        .h      LDR      r0,[r0,#0]
        0x0800334e:    f000000c    ....    AND      r0,r0,#0xc
        0x08003352:    2808        .(      CMP      r0,#8
        0x08003354:    d001        ..      BEQ      0x800335a ; SetSysClock + 186
        0x08003356:    e7ff        ..      B        0x8003358 ; SetSysClock + 184
        0x08003358:    e7f4        ..      B        0x8003344 ; SetSysClock + 164
        0x0800335a:    b004        ..      ADD      sp,sp,#0x10
        0x0800335c:    4770        pG      BX       lr
        0x0800335e:    0000        ..      MOVS     r0,r0
    SysTick_Handler
        0x08003360:    f64010b0    @...    MOVW     r0,#0x9b0
        0x08003364:    f2c20000    ....    MOVT     r0,#0x2000
        0x08003368:    6800        .h      LDR      r0,[r0,#0]
        0x0800336a:    b140        @.      CBZ      r0,0x800337e ; SysTick_Handler + 30
        0x0800336c:    e7ff        ..      B        0x800336e ; SysTick_Handler + 14
        0x0800336e:    f64011b0    @...    MOVW     r1,#0x9b0
        0x08003372:    f2c20100    ....    MOVT     r1,#0x2000
        0x08003376:    6808        .h      LDR      r0,[r1,#0]
        0x08003378:    3801        .8      SUBS     r0,#1
        0x0800337a:    6008        .`      STR      r0,[r1,#0]
        0x0800337c:    e7ff        ..      B        0x800337e ; SysTick_Handler + 30
        0x0800337e:    4770        pG      BX       lr
    SystemInit
        0x08003380:    b580        ..      PUSH     {r7,lr}
        0x08003382:    f64e5188    N..Q    MOV      r1,#0xed88
        0x08003386:    f2ce0100    ....    MOVT     r1,#0xe000
        0x0800338a:    6808        .h      LDR      r0,[r1,#0]
        0x0800338c:    f4400070    @.p.    ORR      r0,r0,#0xf00000
        0x08003390:    6008        .`      STR      r0,[r1,#0]
        0x08003392:    f2410200    A...    MOVW     r2,#0x1000
        0x08003396:    f2c40202    ....    MOVT     r2,#0x4002
        0x0800339a:    6810        .h      LDR      r0,[r2,#0]
        0x0800339c:    f0400001    @...    ORR      r0,r0,#1
        0x080033a0:    6010        .`      STR      r0,[r2,#0]
        0x080033a2:    f2410104    A...    MOV      r1,#0x1004
        0x080033a6:    f2c40102    ....    MOVT     r1,#0x4002
        0x080033aa:    6808        .h      LDR      r0,[r1,#0]
        0x080033ac:    f24c0300    L...    MOVW     r3,#0xc000
        0x080033b0:    f6cf03ff    ....    MOVT     r3,#0xf8ff
        0x080033b4:    4018        .@      ANDS     r0,r0,r3
        0x080033b6:    6008        .`      STR      r0,[r1,#0]
        0x080033b8:    6810        .h      LDR      r0,[r2,#0]
        0x080033ba:    f64f73ff    O..s    MOV      r3,#0xffff
        0x080033be:    f6cf63f6    ...c    MOVT     r3,#0xfef6
        0x080033c2:    4018        .@      ANDS     r0,r0,r3
        0x080033c4:    6010        .`      STR      r0,[r2,#0]
        0x080033c6:    6810        .h      LDR      r0,[r2,#0]
        0x080033c8:    f4202080     ..     BIC      r0,r0,#0x40000
        0x080033cc:    6010        .`      STR      r0,[r2,#0]
        0x080033ce:    6808        .h      LDR      r0,[r1,#0]
        0x080033d0:    f64f72ff    O..r    MOV      r2,#0xffff
        0x080033d4:    f2cf7200    ...r    MOVT     r2,#0xf700
        0x080033d8:    4010        .@      ANDS     r0,r0,r2
        0x080033da:    6008        .`      STR      r0,[r1,#0]
        0x080033dc:    f241012c    A.,.    MOV      r1,#0x102c
        0x080033e0:    f2c40102    ....    MOVT     r1,#0x4002
        0x080033e4:    2000        .       MOVS     r0,#0
        0x080033e6:    6008        .`      STR      r0,[r1,#0]
        0x080033e8:    f2410130    A.0.    MOV      r1,#0x1030
        0x080033ec:    f2c40102    ....    MOVT     r1,#0x4002
        0x080033f0:    6008        .`      STR      r0,[r1,#0]
        0x080033f2:    f2410108    A...    MOV      r1,#0x1008
        0x080033f6:    f2c40102    ....    MOVT     r1,#0x4002
        0x080033fa:    f44f001f    O...    MOV      r0,#0x9f0000
        0x080033fe:    6008        .`      STR      r0,[r1,#0]
        0x08003400:    f241011c    A...    MOV      r1,#0x101c
        0x08003404:    f2c40102    ....    MOVT     r1,#0x4002
        0x08003408:    6808        .h      LDR      r0,[r1,#0]
        0x0800340a:    f0405080    @..P    ORR      r0,r0,#0x10000000
        0x0800340e:    6008        .`      STR      r0,[r1,#0]
        0x08003410:    f247020c    G...    MOV      r2,#0x700c
        0x08003414:    f2c40200    ....    MOVT     r2,#0x4000
        0x08003418:    6810        .h      LDR      r0,[r2,#0]
        0x0800341a:    f0400001    @...    ORR      r0,r0,#1
        0x0800341e:    6010        .`      STR      r0,[r2,#0]
        0x08003420:    6808        .h      LDR      r0,[r1,#0]
        0x08003422:    f0205080     ..P    BIC      r0,r0,#0x10000000
        0x08003426:    6008        .`      STR      r0,[r1,#0]
        0x08003428:    f2420100    B...    MOVW     r1,#0x2000
        0x0800342c:    f2c40102    ....    MOVT     r1,#0x4002
        0x08003430:    6808        .h      LDR      r0,[r1,#0]
        0x08003432:    f0400090    @...    ORR      r0,r0,#0x90
        0x08003436:    6008        .`      STR      r0,[r1,#0]
        0x08003438:    f7ffff32    ..2.    BL       SetSysClock ; 0x80032a0
        0x0800343c:    f64e5108    N..Q    MOV      r1,#0xed08
        0x08003440:    f2ce0100    ....    MOVT     r1,#0xe000
        0x08003444:    f04f6000    O..`    MOV      r0,#0x8000000
        0x08003448:    6008        .`      STR      r0,[r1,#0]
        0x0800344a:    bd80        ..      POP      {r7,pc}
    TIM1_CC_IRQHandler
        0x0800344c:    4770        pG      BX       lr
        0x0800344e:    0000        ..      MOVS     r0,r0
    USART3_IRQHandler
        0x08003450:    b580        ..      PUSH     {r7,lr}
        0x08003452:    b082        ..      SUB      sp,sp,#8
        0x08003454:    f6440000    D...    MOVW     r0,#0x4800
        0x08003458:    f2c40000    ....    MOVT     r0,#0x4000
        0x0800345c:    f2405125    @.%Q    MOV      r1,#0x525
        0x08003460:    f000f8b6    ....    BL       USART_GetIntStatus ; 0x80035d0
        0x08003464:    b380        ..      CBZ      r0,0x80034c8 ; USART3_IRQHandler + 120
        0x08003466:    e7ff        ..      B        0x8003468 ; USART3_IRQHandler + 24
        0x08003468:    f6440000    D...    MOVW     r0,#0x4800
        0x0800346c:    f2c40000    ....    MOVT     r0,#0x4000
        0x08003470:    f000f998    ....    BL       USART_ReceiveData ; 0x80037a4
        0x08003474:    f88d0007    ....    STRB     r0,[sp,#7]
        0x08003478:    e7ff        ..      B        0x800347a ; USART3_IRQHandler + 42
        0x0800347a:    f89d2007    ...     LDRB     r2,[sp,#7]
        0x0800347e:    f2485153    H.SQ    MOV      r1,#0x8553
        0x08003482:    f6c00100    ....    MOVT     r1,#0x800
        0x08003486:    2000        .       MOVS     r0,#0
        0x08003488:    f7fffc64    ..d.    BL       SEGGER_RTT_printf ; 0x8002d54
        0x0800348c:    e7ff        ..      B        0x800348e ; USART3_IRQHandler + 62
        0x0800348e:    f89d0007    ....    LDRB     r0,[sp,#7]
        0x08003492:    f64011bc    @...    MOV      r1,#0x9bc
        0x08003496:    f2c20100    ....    MOVT     r1,#0x2000
        0x0800349a:    f002f86f    ..o.    BL       ansi_get_char ; 0x800557c
        0x0800349e:    280d        .(      CMP      r0,#0xd
        0x080034a0:    d111        ..      BNE      0x80034c6 ; USART3_IRQHandler + 118
        0x080034a2:    e7ff        ..      B        0x80034a4 ; USART3_IRQHandler + 84
        0x080034a4:    f64010bc    @...    MOV      r0,#0x9bc
        0x080034a8:    f2c20000    ....    MOVT     r0,#0x2000
        0x080034ac:    9000        ..      STR      r0,[sp,#0]
        0x080034ae:    f1000108    ....    ADD      r1,r0,#8
        0x080034b2:    f2400028    @.(.    MOVW     r0,#0x28
        0x080034b6:    f2c20000    ....    MOVT     r0,#0x2000
        0x080034ba:    f003f989    ....    BL       shell_parser ; 0x80067d0
        0x080034be:    9800        ..      LDR      r0,[sp,#0]
        0x080034c0:    f002f84c    ..L.    BL       ansi_clear_current_line ; 0x800555c
        0x080034c4:    e7ff        ..      B        0x80034c6 ; USART3_IRQHandler + 118
        0x080034c6:    e7ff        ..      B        0x80034c8 ; USART3_IRQHandler + 120
        0x080034c8:    b002        ..      ADD      sp,sp,#8
        0x080034ca:    bd80        ..      POP      {r7,pc}
    USART_ConfigInt
        0x080034cc:    b086        ..      SUB      sp,sp,#0x18
        0x080034ce:    9005        ..      STR      r0,[sp,#0x14]
        0x080034d0:    f8ad1012    ....    STRH     r1,[sp,#0x12]
        0x080034d4:    f88d2011    ...     STRB     r2,[sp,#0x11]
        0x080034d8:    2000        .       MOVS     r0,#0
        0x080034da:    9003        ..      STR      r0,[sp,#0xc]
        0x080034dc:    9002        ..      STR      r0,[sp,#8]
        0x080034de:    9001        ..      STR      r0,[sp,#4]
        0x080034e0:    9000        ..      STR      r0,[sp,#0]
        0x080034e2:    f8bd0012    ....    LDRH     r0,[sp,#0x12]
        0x080034e6:    f640116a    @.j.    MOV      r1,#0x96a
        0x080034ea:    4288        .B      CMP      r0,r1
        0x080034ec:    d101        ..      BNE      0x80034f2 ; USART_ConfigInt + 38
        0x080034ee:    e7ff        ..      B        0x80034f0 ; USART_ConfigInt + 36
        0x080034f0:    e7ff        ..      B        0x80034f2 ; USART_ConfigInt + 38
        0x080034f2:    9805        ..      LDR      r0,[sp,#0x14]
        0x080034f4:    9000        ..      STR      r0,[sp,#0]
        0x080034f6:    f89d0012    ....    LDRB     r0,[sp,#0x12]
        0x080034fa:    0940        @.      LSRS     r0,r0,#5
        0x080034fc:    9003        ..      STR      r0,[sp,#0xc]
        0x080034fe:    f8bd0012    ....    LDRH     r0,[sp,#0x12]
        0x08003502:    f000001f    ....    AND      r0,r0,#0x1f
        0x08003506:    9002        ..      STR      r0,[sp,#8]
        0x08003508:    9902        ..      LDR      r1,[sp,#8]
        0x0800350a:    2001        .       MOVS     r0,#1
        0x0800350c:    4088        .@      LSLS     r0,r0,r1
        0x0800350e:    9001        ..      STR      r0,[sp,#4]
        0x08003510:    9803        ..      LDR      r0,[sp,#0xc]
        0x08003512:    2801        .(      CMP      r0,#1
        0x08003514:    d104        ..      BNE      0x8003520 ; USART_ConfigInt + 84
        0x08003516:    e7ff        ..      B        0x8003518 ; USART_ConfigInt + 76
        0x08003518:    9800        ..      LDR      r0,[sp,#0]
        0x0800351a:    300c        .0      ADDS     r0,r0,#0xc
        0x0800351c:    9000        ..      STR      r0,[sp,#0]
        0x0800351e:    e00c        ..      B        0x800353a ; USART_ConfigInt + 110
        0x08003520:    9803        ..      LDR      r0,[sp,#0xc]
        0x08003522:    2802        .(      CMP      r0,#2
        0x08003524:    d104        ..      BNE      0x8003530 ; USART_ConfigInt + 100
        0x08003526:    e7ff        ..      B        0x8003528 ; USART_ConfigInt + 92
        0x08003528:    9800        ..      LDR      r0,[sp,#0]
        0x0800352a:    3010        .0      ADDS     r0,r0,#0x10
        0x0800352c:    9000        ..      STR      r0,[sp,#0]
        0x0800352e:    e003        ..      B        0x8003538 ; USART_ConfigInt + 108
        0x08003530:    9800        ..      LDR      r0,[sp,#0]
        0x08003532:    3014        .0      ADDS     r0,r0,#0x14
        0x08003534:    9000        ..      STR      r0,[sp,#0]
        0x08003536:    e7ff        ..      B        0x8003538 ; USART_ConfigInt + 108
        0x08003538:    e7ff        ..      B        0x800353a ; USART_ConfigInt + 110
        0x0800353a:    f89d0011    ....    LDRB     r0,[sp,#0x11]
        0x0800353e:    b130        0.      CBZ      r0,0x800354e ; USART_ConfigInt + 130
        0x08003540:    e7ff        ..      B        0x8003542 ; USART_ConfigInt + 118
        0x08003542:    9a01        ..      LDR      r2,[sp,#4]
        0x08003544:    9900        ..      LDR      r1,[sp,#0]
        0x08003546:    6808        .h      LDR      r0,[r1,#0]
        0x08003548:    4310        .C      ORRS     r0,r0,r2
        0x0800354a:    6008        .`      STR      r0,[r1,#0]
        0x0800354c:    e005        ..      B        0x800355a ; USART_ConfigInt + 142
        0x0800354e:    9a01        ..      LDR      r2,[sp,#4]
        0x08003550:    9900        ..      LDR      r1,[sp,#0]
        0x08003552:    6808        .h      LDR      r0,[r1,#0]
        0x08003554:    4390        .C      BICS     r0,r0,r2
        0x08003556:    6008        .`      STR      r0,[r1,#0]
        0x08003558:    e7ff        ..      B        0x800355a ; USART_ConfigInt + 142
        0x0800355a:    b006        ..      ADD      sp,sp,#0x18
        0x0800355c:    4770        pG      BX       lr
        0x0800355e:    0000        ..      MOVS     r0,r0
    USART_Enable
        0x08003560:    b082        ..      SUB      sp,sp,#8
        0x08003562:    9001        ..      STR      r0,[sp,#4]
        0x08003564:    f88d1003    ....    STRB     r1,[sp,#3]
        0x08003568:    f89d0003    ....    LDRB     r0,[sp,#3]
        0x0800356c:    b130        0.      CBZ      r0,0x800357c ; USART_Enable + 28
        0x0800356e:    e7ff        ..      B        0x8003570 ; USART_Enable + 16
        0x08003570:    9901        ..      LDR      r1,[sp,#4]
        0x08003572:    8988        ..      LDRH     r0,[r1,#0xc]
        0x08003574:    f4405000    @..P    ORR      r0,r0,#0x2000
        0x08003578:    8188        ..      STRH     r0,[r1,#0xc]
        0x0800357a:    e005        ..      B        0x8003588 ; USART_Enable + 40
        0x0800357c:    9901        ..      LDR      r1,[sp,#4]
        0x0800357e:    8988        ..      LDRH     r0,[r1,#0xc]
        0x08003580:    f4205000     ..P    BIC      r0,r0,#0x2000
        0x08003584:    8188        ..      STRH     r0,[r1,#0xc]
        0x08003586:    e7ff        ..      B        0x8003588 ; USART_Enable + 40
        0x08003588:    b002        ..      ADD      sp,sp,#8
        0x0800358a:    4770        pG      BX       lr
    USART_GetFlagStatus
        0x0800358c:    b082        ..      SUB      sp,sp,#8
        0x0800358e:    9001        ..      STR      r0,[sp,#4]
        0x08003590:    f8ad1002    ....    STRH     r1,[sp,#2]
        0x08003594:    2000        .       MOVS     r0,#0
        0x08003596:    f88d0001    ....    STRB     r0,[sp,#1]
        0x0800359a:    f8bd0002    ....    LDRH     r0,[sp,#2]
        0x0800359e:    f5b07f00    ....    CMP      r0,#0x200
        0x080035a2:    d101        ..      BNE      0x80035a8 ; USART_GetFlagStatus + 28
        0x080035a4:    e7ff        ..      B        0x80035a6 ; USART_GetFlagStatus + 26
        0x080035a6:    e7ff        ..      B        0x80035a8 ; USART_GetFlagStatus + 28
        0x080035a8:    9801        ..      LDR      r0,[sp,#4]
        0x080035aa:    8800        ..      LDRH     r0,[r0,#0]
        0x080035ac:    f8bd1002    ....    LDRH     r1,[sp,#2]
        0x080035b0:    4008        .@      ANDS     r0,r0,r1
        0x080035b2:    0400        ..      LSLS     r0,r0,#16
        0x080035b4:    b120         .      CBZ      r0,0x80035c0 ; USART_GetFlagStatus + 52
        0x080035b6:    e7ff        ..      B        0x80035b8 ; USART_GetFlagStatus + 44
        0x080035b8:    2001        .       MOVS     r0,#1
        0x080035ba:    f88d0001    ....    STRB     r0,[sp,#1]
        0x080035be:    e003        ..      B        0x80035c8 ; USART_GetFlagStatus + 60
        0x080035c0:    2000        .       MOVS     r0,#0
        0x080035c2:    f88d0001    ....    STRB     r0,[sp,#1]
        0x080035c6:    e7ff        ..      B        0x80035c8 ; USART_GetFlagStatus + 60
        0x080035c8:    f89d0001    ....    LDRB     r0,[sp,#1]
        0x080035cc:    b002        ..      ADD      sp,sp,#8
        0x080035ce:    4770        pG      BX       lr
    USART_GetIntStatus
        0x080035d0:    b086        ..      SUB      sp,sp,#0x18
        0x080035d2:    9005        ..      STR      r0,[sp,#0x14]
        0x080035d4:    f8ad1012    ....    STRH     r1,[sp,#0x12]
        0x080035d8:    2000        .       MOVS     r0,#0
        0x080035da:    9003        ..      STR      r0,[sp,#0xc]
        0x080035dc:    9002        ..      STR      r0,[sp,#8]
        0x080035de:    9001        ..      STR      r0,[sp,#4]
        0x080035e0:    f88d0003    ....    STRB     r0,[sp,#3]
        0x080035e4:    f8bd0012    ....    LDRH     r0,[sp,#0x12]
        0x080035e8:    f640116a    @.j.    MOV      r1,#0x96a
        0x080035ec:    4288        .B      CMP      r0,r1
        0x080035ee:    d101        ..      BNE      0x80035f4 ; USART_GetIntStatus + 36
        0x080035f0:    e7ff        ..      B        0x80035f2 ; USART_GetIntStatus + 34
        0x080035f2:    e7ff        ..      B        0x80035f4 ; USART_GetIntStatus + 36
        0x080035f4:    f89d0012    ....    LDRB     r0,[sp,#0x12]
        0x080035f8:    0940        @.      LSRS     r0,r0,#5
        0x080035fa:    9001        ..      STR      r0,[sp,#4]
        0x080035fc:    f8bd0012    ....    LDRH     r0,[sp,#0x12]
        0x08003600:    f000001f    ....    AND      r0,r0,#0x1f
        0x08003604:    9002        ..      STR      r0,[sp,#8]
        0x08003606:    9902        ..      LDR      r1,[sp,#8]
        0x08003608:    2001        .       MOVS     r0,#1
        0x0800360a:    4088        .@      LSLS     r0,r0,r1
        0x0800360c:    9002        ..      STR      r0,[sp,#8]
        0x0800360e:    9801        ..      LDR      r0,[sp,#4]
        0x08003610:    2801        .(      CMP      r0,#1
        0x08003612:    d106        ..      BNE      0x8003622 ; USART_GetIntStatus + 82
        0x08003614:    e7ff        ..      B        0x8003616 ; USART_GetIntStatus + 70
        0x08003616:    9805        ..      LDR      r0,[sp,#0x14]
        0x08003618:    8981        ..      LDRH     r1,[r0,#0xc]
        0x0800361a:    9802        ..      LDR      r0,[sp,#8]
        0x0800361c:    4008        .@      ANDS     r0,r0,r1
        0x0800361e:    9002        ..      STR      r0,[sp,#8]
        0x08003620:    e010        ..      B        0x8003644 ; USART_GetIntStatus + 116
        0x08003622:    9801        ..      LDR      r0,[sp,#4]
        0x08003624:    2802        .(      CMP      r0,#2
        0x08003626:    d106        ..      BNE      0x8003636 ; USART_GetIntStatus + 102
        0x08003628:    e7ff        ..      B        0x800362a ; USART_GetIntStatus + 90
        0x0800362a:    9805        ..      LDR      r0,[sp,#0x14]
        0x0800362c:    8a01        ..      LDRH     r1,[r0,#0x10]
        0x0800362e:    9802        ..      LDR      r0,[sp,#8]
        0x08003630:    4008        .@      ANDS     r0,r0,r1
        0x08003632:    9002        ..      STR      r0,[sp,#8]
        0x08003634:    e005        ..      B        0x8003642 ; USART_GetIntStatus + 114
        0x08003636:    9805        ..      LDR      r0,[sp,#0x14]
        0x08003638:    8a81        ..      LDRH     r1,[r0,#0x14]
        0x0800363a:    9802        ..      LDR      r0,[sp,#8]
        0x0800363c:    4008        .@      ANDS     r0,r0,r1
        0x0800363e:    9002        ..      STR      r0,[sp,#8]
        0x08003640:    e7ff        ..      B        0x8003642 ; USART_GetIntStatus + 114
        0x08003642:    e7ff        ..      B        0x8003644 ; USART_GetIntStatus + 116
        0x08003644:    f89d0013    ....    LDRB     r0,[sp,#0x13]
        0x08003648:    9003        ..      STR      r0,[sp,#0xc]
        0x0800364a:    9903        ..      LDR      r1,[sp,#0xc]
        0x0800364c:    2001        .       MOVS     r0,#1
        0x0800364e:    4088        .@      LSLS     r0,r0,r1
        0x08003650:    9003        ..      STR      r0,[sp,#0xc]
        0x08003652:    9805        ..      LDR      r0,[sp,#0x14]
        0x08003654:    8801        ..      LDRH     r1,[r0,#0]
        0x08003656:    9803        ..      LDR      r0,[sp,#0xc]
        0x08003658:    4008        .@      ANDS     r0,r0,r1
        0x0800365a:    9003        ..      STR      r0,[sp,#0xc]
        0x0800365c:    9802        ..      LDR      r0,[sp,#8]
        0x0800365e:    b138        8.      CBZ      r0,0x8003670 ; USART_GetIntStatus + 160
        0x08003660:    e7ff        ..      B        0x8003662 ; USART_GetIntStatus + 146
        0x08003662:    9803        ..      LDR      r0,[sp,#0xc]
        0x08003664:    b120         .      CBZ      r0,0x8003670 ; USART_GetIntStatus + 160
        0x08003666:    e7ff        ..      B        0x8003668 ; USART_GetIntStatus + 152
        0x08003668:    2001        .       MOVS     r0,#1
        0x0800366a:    f88d0003    ....    STRB     r0,[sp,#3]
        0x0800366e:    e003        ..      B        0x8003678 ; USART_GetIntStatus + 168
        0x08003670:    2000        .       MOVS     r0,#0
        0x08003672:    f88d0003    ....    STRB     r0,[sp,#3]
        0x08003676:    e7ff        ..      B        0x8003678 ; USART_GetIntStatus + 168
        0x08003678:    f89d0003    ....    LDRB     r0,[sp,#3]
        0x0800367c:    b006        ..      ADD      sp,sp,#0x18
        0x0800367e:    4770        pG      BX       lr
    USART_Init
        0x08003680:    b580        ..      PUSH     {r7,lr}
        0x08003682:    b08e        ..      SUB      sp,sp,#0x38
        0x08003684:    900d        ..      STR      r0,[sp,#0x34]
        0x08003686:    910c        ..      STR      r1,[sp,#0x30]
        0x08003688:    2000        .       MOVS     r0,#0
        0x0800368a:    900b        ..      STR      r0,[sp,#0x2c]
        0x0800368c:    900a        ..      STR      r0,[sp,#0x28]
        0x0800368e:    9009        ..      STR      r0,[sp,#0x24]
        0x08003690:    9008        ..      STR      r0,[sp,#0x20]
        0x08003692:    9007        ..      STR      r0,[sp,#0x1c]
        0x08003694:    980c        ..      LDR      r0,[sp,#0x30]
        0x08003696:    8980        ..      LDRH     r0,[r0,#0xc]
        0x08003698:    b108        ..      CBZ      r0,0x800369e ; USART_Init + 30
        0x0800369a:    e7ff        ..      B        0x800369c ; USART_Init + 28
        0x0800369c:    e7ff        ..      B        0x800369e ; USART_Init + 30
        0x0800369e:    980d        ..      LDR      r0,[sp,#0x34]
        0x080036a0:    9007        ..      STR      r0,[sp,#0x1c]
        0x080036a2:    980d        ..      LDR      r0,[sp,#0x34]
        0x080036a4:    8a00        ..      LDRH     r0,[r0,#0x10]
        0x080036a6:    900b        ..      STR      r0,[sp,#0x2c]
        0x080036a8:    980b        ..      LDR      r0,[sp,#0x2c]
        0x080036aa:    f64c71ff    L..q    MOV      r1,#0xcfff
        0x080036ae:    4008        .@      ANDS     r0,r0,r1
        0x080036b0:    900b        ..      STR      r0,[sp,#0x2c]
        0x080036b2:    980c        ..      LDR      r0,[sp,#0x30]
        0x080036b4:    88c1        ..      LDRH     r1,[r0,#6]
        0x080036b6:    980b        ..      LDR      r0,[sp,#0x2c]
        0x080036b8:    4308        .C      ORRS     r0,r0,r1
        0x080036ba:    900b        ..      STR      r0,[sp,#0x2c]
        0x080036bc:    980b        ..      LDR      r0,[sp,#0x2c]
        0x080036be:    990d        ..      LDR      r1,[sp,#0x34]
        0x080036c0:    8208        ..      STRH     r0,[r1,#0x10]
        0x080036c2:    980d        ..      LDR      r0,[sp,#0x34]
        0x080036c4:    8980        ..      LDRH     r0,[r0,#0xc]
        0x080036c6:    900b        ..      STR      r0,[sp,#0x2c]
        0x080036c8:    980b        ..      LDR      r0,[sp,#0x2c]
        0x080036ca:    f64e11f3    N...    MOV      r1,#0xe9f3
        0x080036ce:    4008        .@      ANDS     r0,r0,r1
        0x080036d0:    900b        ..      STR      r0,[sp,#0x2c]
        0x080036d2:    990c        ..      LDR      r1,[sp,#0x30]
        0x080036d4:    8888        ..      LDRH     r0,[r1,#4]
        0x080036d6:    890a        ..      LDRH     r2,[r1,#8]
        0x080036d8:    4310        .C      ORRS     r0,r0,r2
        0x080036da:    8949        I.      LDRH     r1,[r1,#0xa]
        0x080036dc:    4301        .C      ORRS     r1,r1,r0
        0x080036de:    980b        ..      LDR      r0,[sp,#0x2c]
        0x080036e0:    4308        .C      ORRS     r0,r0,r1
        0x080036e2:    900b        ..      STR      r0,[sp,#0x2c]
        0x080036e4:    980b        ..      LDR      r0,[sp,#0x2c]
        0x080036e6:    990d        ..      LDR      r1,[sp,#0x34]
        0x080036e8:    8188        ..      STRH     r0,[r1,#0xc]
        0x080036ea:    980d        ..      LDR      r0,[sp,#0x34]
        0x080036ec:    8a80        ..      LDRH     r0,[r0,#0x14]
        0x080036ee:    900b        ..      STR      r0,[sp,#0x2c]
        0x080036f0:    980b        ..      LDR      r0,[sp,#0x2c]
        0x080036f2:    f64f41ff    O..A    MOV      r1,#0xfcff
        0x080036f6:    4008        .@      ANDS     r0,r0,r1
        0x080036f8:    900b        ..      STR      r0,[sp,#0x2c]
        0x080036fa:    980c        ..      LDR      r0,[sp,#0x30]
        0x080036fc:    8981        ..      LDRH     r1,[r0,#0xc]
        0x080036fe:    980b        ..      LDR      r0,[sp,#0x2c]
        0x08003700:    4308        .C      ORRS     r0,r0,r1
        0x08003702:    900b        ..      STR      r0,[sp,#0x2c]
        0x08003704:    980b        ..      LDR      r0,[sp,#0x2c]
        0x08003706:    990d        ..      LDR      r1,[sp,#0x34]
        0x08003708:    8288        ..      STRH     r0,[r1,#0x14]
        0x0800370a:    a801        ..      ADD      r0,sp,#4
        0x0800370c:    f7fff96e    ..n.    BL       RCC_GetClocksFreqValue ; 0x80029ec
        0x08003710:    9807        ..      LDR      r0,[sp,#0x1c]
        0x08003712:    f6430100    C...    MOVW     r1,#0x3800
        0x08003716:    f2c40101    ....    MOVT     r1,#0x4001
        0x0800371a:    4288        .B      CMP      r0,r1
        0x0800371c:    d010        ..      BEQ      0x8003740 ; USART_Init + 192
        0x0800371e:    e7ff        ..      B        0x8003720 ; USART_Init + 160
        0x08003720:    9807        ..      LDR      r0,[sp,#0x1c]
        0x08003722:    f2450100    E...    MOVW     r1,#0x5000
        0x08003726:    f2c40101    ....    MOVT     r1,#0x4001
        0x0800372a:    4288        .B      CMP      r0,r1
        0x0800372c:    d008        ..      BEQ      0x8003740 ; USART_Init + 192
        0x0800372e:    e7ff        ..      B        0x8003730 ; USART_Init + 176
        0x08003730:    9807        ..      LDR      r0,[sp,#0x1c]
        0x08003732:    f2454100    E..A    MOVW     r1,#0x5400
        0x08003736:    f2c40101    ....    MOVT     r1,#0x4001
        0x0800373a:    4288        .B      CMP      r0,r1
        0x0800373c:    d103        ..      BNE      0x8003746 ; USART_Init + 198
        0x0800373e:    e7ff        ..      B        0x8003740 ; USART_Init + 192
        0x08003740:    9804        ..      LDR      r0,[sp,#0x10]
        0x08003742:    900a        ..      STR      r0,[sp,#0x28]
        0x08003744:    e002        ..      B        0x800374c ; USART_Init + 204
        0x08003746:    9803        ..      LDR      r0,[sp,#0xc]
        0x08003748:    900a        ..      STR      r0,[sp,#0x28]
        0x0800374a:    e7ff        ..      B        0x800374c ; USART_Init + 204
        0x0800374c:    980a        ..      LDR      r0,[sp,#0x28]
        0x0800374e:    2119        .!      MOVS     r1,#0x19
        0x08003750:    4348        HC      MULS     r0,r1,r0
        0x08003752:    990c        ..      LDR      r1,[sp,#0x30]
        0x08003754:    6809        .h      LDR      r1,[r1,#0]
        0x08003756:    0089        ..      LSLS     r1,r1,#2
        0x08003758:    fbb0f0f1    ....    UDIV     r0,r0,r1
        0x0800375c:    9009        ..      STR      r0,[sp,#0x24]
        0x0800375e:    9809        ..      LDR      r0,[sp,#0x24]
        0x08003760:    f248511f    H..Q    MOV      r1,#0x851f
        0x08003764:    f2c511eb    ....    MOVT     r1,#0x51eb
        0x08003768:    fba00201    ....    UMULL    r0,r2,r0,r1
        0x0800376c:    f06f000f    o...    MVN      r0,#0xf
        0x08003770:    ea000052    ..R.    AND      r0,r0,r2,LSR #1
        0x08003774:    900b        ..      STR      r0,[sp,#0x2c]
        0x08003776:    9b09        ..      LDR      r3,[sp,#0x24]
        0x08003778:    980b        ..      LDR      r0,[sp,#0x2c]
        0x0800377a:    0900        ..      LSRS     r0,r0,#4
        0x0800377c:    2264        d"      MOVS     r2,#0x64
        0x0800377e:    fb003012    ...0    MLS      r0,r0,r2,r3
        0x08003782:    9008        ..      STR      r0,[sp,#0x20]
        0x08003784:    9a08        ..      LDR      r2,[sp,#0x20]
        0x08003786:    2032        2       MOVS     r0,#0x32
        0x08003788:    eb001002    ....    ADD      r0,r0,r2,LSL #4
        0x0800378c:    fba01001    ....    UMULL    r1,r0,r0,r1
        0x08003790:    f3c01143    ..C.    UBFX     r1,r0,#5,#4
        0x08003794:    980b        ..      LDR      r0,[sp,#0x2c]
        0x08003796:    4308        .C      ORRS     r0,r0,r1
        0x08003798:    900b        ..      STR      r0,[sp,#0x2c]
        0x0800379a:    980b        ..      LDR      r0,[sp,#0x2c]
        0x0800379c:    990d        ..      LDR      r1,[sp,#0x34]
        0x0800379e:    8108        ..      STRH     r0,[r1,#8]
        0x080037a0:    b00e        ..      ADD      sp,sp,#0x38
        0x080037a2:    bd80        ..      POP      {r7,pc}
    USART_ReceiveData
        0x080037a4:    b081        ..      SUB      sp,sp,#4
        0x080037a6:    9000        ..      STR      r0,[sp,#0]
        0x080037a8:    9800        ..      LDR      r0,[sp,#0]
        0x080037aa:    8880        ..      LDRH     r0,[r0,#4]
        0x080037ac:    f36f205f    o._     BFC      r0,#9,#23
        0x080037b0:    b001        ..      ADD      sp,sp,#4
        0x080037b2:    4770        pG      BX       lr
    USART_SendData
        0x080037b4:    b082        ..      SUB      sp,sp,#8
        0x080037b6:    9001        ..      STR      r0,[sp,#4]
        0x080037b8:    f8ad1002    ....    STRH     r1,[sp,#2]
        0x080037bc:    f8bd0002    ....    LDRH     r0,[sp,#2]
        0x080037c0:    f36f205f    o._     BFC      r0,#9,#23
        0x080037c4:    9901        ..      LDR      r1,[sp,#4]
        0x080037c6:    8088        ..      STRH     r0,[r1,#4]
        0x080037c8:    b002        ..      ADD      sp,sp,#8
        0x080037ca:    4770        pG      BX       lr
    UsageFault_Handler
        0x080037cc:    e7ff        ..      B        0x80037ce ; UsageFault_Handler + 2
        0x080037ce:    e7fe        ..      B        0x80037ce ; UsageFault_Handler + 2
    _DoInit
        0x080037d0:    b580        ..      PUSH     {r7,lr}
        0x080037d2:    b082        ..      SUB      sp,sp,#8
        0x080037d4:    f24040cc    @..@    MOV      r0,#0x4cc
        0x080037d8:    f2c20000    ....    MOVT     r0,#0x2000
        0x080037dc:    9001        ..      STR      r0,[sp,#4]
        0x080037de:    9901        ..      LDR      r1,[sp,#4]
        0x080037e0:    2003        .       MOVS     r0,#3
        0x080037e2:    6108        .a      STR      r0,[r1,#0x10]
        0x080037e4:    9901        ..      LDR      r1,[sp,#4]
        0x080037e6:    6148        Ha      STR      r0,[r1,#0x14]
        0x080037e8:    9801        ..      LDR      r0,[sp,#4]
        0x080037ea:    f2485171    H.qQ    MOV      r1,#0x8571
        0x080037ee:    f6c00100    ....    MOVT     r1,#0x800
        0x080037f2:    6181        .a      STR      r1,[r0,#0x18]
        0x080037f4:    9a01        ..      LDR      r2,[sp,#4]
        0x080037f6:    f2405084    @..P    MOV      r0,#0x584
        0x080037fa:    f2c20000    ....    MOVT     r0,#0x2000
        0x080037fe:    61d0        .a      STR      r0,[r2,#0x1c]
        0x08003800:    9a01        ..      LDR      r2,[sp,#4]
        0x08003802:    f44f6080    O..`    MOV      r0,#0x400
        0x08003806:    6210        .b      STR      r0,[r2,#0x20]
        0x08003808:    9a01        ..      LDR      r2,[sp,#4]
        0x0800380a:    2000        .       MOVS     r0,#0
        0x0800380c:    6290        .b      STR      r0,[r2,#0x28]
        0x0800380e:    9a01        ..      LDR      r2,[sp,#4]
        0x08003810:    6250        Pb      STR      r0,[r2,#0x24]
        0x08003812:    9a01        ..      LDR      r2,[sp,#4]
        0x08003814:    62d0        .b      STR      r0,[r2,#0x2c]
        0x08003816:    9a01        ..      LDR      r2,[sp,#4]
        0x08003818:    6611        .f      STR      r1,[r2,#0x60]
        0x0800381a:    9a01        ..      LDR      r2,[sp,#4]
        0x0800381c:    f2405174    @.tQ    MOV      r1,#0x574
        0x08003820:    f2c20100    ....    MOVT     r1,#0x2000
        0x08003824:    6651        Qf      STR      r1,[r2,#0x64]
        0x08003826:    9a01        ..      LDR      r2,[sp,#4]
        0x08003828:    2110        .!      MOVS     r1,#0x10
        0x0800382a:    6691        .f      STR      r1,[r2,#0x68]
        0x0800382c:    9901        ..      LDR      r1,[sp,#4]
        0x0800382e:    6708        .g      STR      r0,[r1,#0x70]
        0x08003830:    9901        ..      LDR      r1,[sp,#4]
        0x08003832:    66c8        .f      STR      r0,[r1,#0x6c]
        0x08003834:    9901        ..      LDR      r1,[sp,#4]
        0x08003836:    6748        Hg      STR      r0,[r1,#0x74]
        0x08003838:    9801        ..      LDR      r0,[sp,#4]
        0x0800383a:    3007        .0      ADDS     r0,#7
        0x0800383c:    f248516d    H.mQ    MOV      r1,#0x856d
        0x08003840:    f6c00100    ....    MOVT     r1,#0x800
        0x08003844:    f7fcfe09    ....    BL       strcpy ; 0x800045a
        0x08003848:    f3bf8f5f    .._.    DMB      
        0x0800384c:    9801        ..      LDR      r0,[sp,#4]
        0x0800384e:    f2485166    H.fQ    MOV      r1,#0x8566
        0x08003852:    f6c00100    ....    MOVT     r1,#0x800
        0x08003856:    f7fcfe00    ....    BL       strcpy ; 0x800045a
        0x0800385a:    f3bf8f5f    .._.    DMB      
        0x0800385e:    9901        ..      LDR      r1,[sp,#4]
        0x08003860:    2020                MOVS     r0,#0x20
        0x08003862:    7188        .q      STRB     r0,[r1,#6]
        0x08003864:    f3bf8f5f    .._.    DMB      
        0x08003868:    b002        ..      ADD      sp,sp,#8
        0x0800386a:    bd80        ..      POP      {r7,pc}
    _GLOBAL__sub_I_main.cpp
        0x0800386c:    b580        ..      PUSH     {r7,lr}
        0x0800386e:    f001fd85    ....    BL       __cxx_global_var_init ; 0x800537c
        0x08003872:    f001fd99    ....    BL       __cxx_global_var_init.1 ; 0x80053a8
        0x08003876:    f001fdad    ....    BL       __cxx_global_var_init.2 ; 0x80053d4
        0x0800387a:    f001fdc1    ....    BL       __cxx_global_var_init.3 ; 0x8005400
        0x0800387e:    f001fdd5    ....    BL       __cxx_global_var_init.4 ; 0x800542c
        0x08003882:    f001fde9    ....    BL       __cxx_global_var_init.5 ; 0x8005458
        0x08003886:    bd80        ..      POP      {r7,pc}
    _GetAvailWriteSpace
        0x08003888:    b084        ..      SUB      sp,sp,#0x10
        0x0800388a:    9003        ..      STR      r0,[sp,#0xc]
        0x0800388c:    9803        ..      LDR      r0,[sp,#0xc]
        0x0800388e:    6900        .i      LDR      r0,[r0,#0x10]
        0x08003890:    9002        ..      STR      r0,[sp,#8]
        0x08003892:    9803        ..      LDR      r0,[sp,#0xc]
        0x08003894:    68c0        .h      LDR      r0,[r0,#0xc]
        0x08003896:    9001        ..      STR      r0,[sp,#4]
        0x08003898:    9802        ..      LDR      r0,[sp,#8]
        0x0800389a:    9901        ..      LDR      r1,[sp,#4]
        0x0800389c:    4288        .B      CMP      r0,r1
        0x0800389e:    d809        ..      BHI      0x80038b4 ; _GetAvailWriteSpace + 44
        0x080038a0:    e7ff        ..      B        0x80038a2 ; _GetAvailWriteSpace + 26
        0x080038a2:    9803        ..      LDR      r0,[sp,#0xc]
        0x080038a4:    6880        .h      LDR      r0,[r0,#8]
        0x080038a6:    9901        ..      LDR      r1,[sp,#4]
        0x080038a8:    1a40        @.      SUBS     r0,r0,r1
        0x080038aa:    9902        ..      LDR      r1,[sp,#8]
        0x080038ac:    4408        .D      ADD      r0,r0,r1
        0x080038ae:    3801        .8      SUBS     r0,#1
        0x080038b0:    9000        ..      STR      r0,[sp,#0]
        0x080038b2:    e005        ..      B        0x80038c0 ; _GetAvailWriteSpace + 56
        0x080038b4:    9902        ..      LDR      r1,[sp,#8]
        0x080038b6:    9801        ..      LDR      r0,[sp,#4]
        0x080038b8:    43c0        .C      MVNS     r0,r0
        0x080038ba:    4408        .D      ADD      r0,r0,r1
        0x080038bc:    9000        ..      STR      r0,[sp,#0]
        0x080038be:    e7ff        ..      B        0x80038c0 ; _GetAvailWriteSpace + 56
        0x080038c0:    9800        ..      LDR      r0,[sp,#0]
        0x080038c2:    b004        ..      ADD      sp,sp,#0x10
        0x080038c4:    4770        pG      BX       lr
        0x080038c6:    0000        ..      MOVS     r0,r0
    _PrintInt
        0x080038c8:    b510        ..      PUSH     {r4,lr}
        0x080038ca:    b08c        ..      SUB      sp,sp,#0x30
        0x080038cc:    f8ddc03c    ..<.    LDR      r12,[sp,#0x3c]
        0x080038d0:    f8ddc038    ..8.    LDR      r12,[sp,#0x38]
        0x080038d4:    900b        ..      STR      r0,[sp,#0x2c]
        0x080038d6:    910a        ..      STR      r1,[sp,#0x28]
        0x080038d8:    9209        ..      STR      r2,[sp,#0x24]
        0x080038da:    9308        ..      STR      r3,[sp,#0x20]
        0x080038dc:    980a        ..      LDR      r0,[sp,#0x28]
        0x080038de:    f1b03fff    ...?    CMP      r0,#0xffffffff
        0x080038e2:    dc04        ..      BGT      0x80038ee ; _PrintInt + 38
        0x080038e4:    e7ff        ..      B        0x80038e6 ; _PrintInt + 30
        0x080038e6:    980a        ..      LDR      r0,[sp,#0x28]
        0x080038e8:    4240        @B      RSBS     r0,r0,#0
        0x080038ea:    9005        ..      STR      r0,[sp,#0x14]
        0x080038ec:    e002        ..      B        0x80038f4 ; _PrintInt + 44
        0x080038ee:    980a        ..      LDR      r0,[sp,#0x28]
        0x080038f0:    9005        ..      STR      r0,[sp,#0x14]
        0x080038f2:    e7ff        ..      B        0x80038f4 ; _PrintInt + 44
        0x080038f4:    9805        ..      LDR      r0,[sp,#0x14]
        0x080038f6:    9006        ..      STR      r0,[sp,#0x18]
        0x080038f8:    2001        .       MOVS     r0,#1
        0x080038fa:    9007        ..      STR      r0,[sp,#0x1c]
        0x080038fc:    e7ff        ..      B        0x80038fe ; _PrintInt + 54
        0x080038fe:    9806        ..      LDR      r0,[sp,#0x18]
        0x08003900:    9909        ..      LDR      r1,[sp,#0x24]
        0x08003902:    4288        .B      CMP      r0,r1
        0x08003904:    db09        ..      BLT      0x800391a ; _PrintInt + 82
        0x08003906:    e7ff        ..      B        0x8003908 ; _PrintInt + 64
        0x08003908:    9806        ..      LDR      r0,[sp,#0x18]
        0x0800390a:    9909        ..      LDR      r1,[sp,#0x24]
        0x0800390c:    fb90f0f1    ....    SDIV     r0,r0,r1
        0x08003910:    9006        ..      STR      r0,[sp,#0x18]
        0x08003912:    9807        ..      LDR      r0,[sp,#0x1c]
        0x08003914:    3001        .0      ADDS     r0,#1
        0x08003916:    9007        ..      STR      r0,[sp,#0x1c]
        0x08003918:    e7f1        ..      B        0x80038fe ; _PrintInt + 54
        0x0800391a:    9808        ..      LDR      r0,[sp,#0x20]
        0x0800391c:    9907        ..      LDR      r1,[sp,#0x1c]
        0x0800391e:    4288        .B      CMP      r0,r1
        0x08003920:    d903        ..      BLS      0x800392a ; _PrintInt + 98
        0x08003922:    e7ff        ..      B        0x8003924 ; _PrintInt + 92
        0x08003924:    9808        ..      LDR      r0,[sp,#0x20]
        0x08003926:    9007        ..      STR      r0,[sp,#0x1c]
        0x08003928:    e7ff        ..      B        0x800392a ; _PrintInt + 98
        0x0800392a:    980e        ..      LDR      r0,[sp,#0x38]
        0x0800392c:    b170        p.      CBZ      r0,0x800394c ; _PrintInt + 132
        0x0800392e:    e7ff        ..      B        0x8003930 ; _PrintInt + 104
        0x08003930:    980a        ..      LDR      r0,[sp,#0x28]
        0x08003932:    2800        .(      CMP      r0,#0
        0x08003934:    d406        ..      BMI      0x8003944 ; _PrintInt + 124
        0x08003936:    e7ff        ..      B        0x8003938 ; _PrintInt + 112
        0x08003938:    f89d003c    ..<.    LDRB     r0,[sp,#0x3c]
        0x0800393c:    0740        @.      LSLS     r0,r0,#29
        0x0800393e:    2800        .(      CMP      r0,#0
        0x08003940:    d504        ..      BPL      0x800394c ; _PrintInt + 132
        0x08003942:    e7ff        ..      B        0x8003944 ; _PrintInt + 124
        0x08003944:    980e        ..      LDR      r0,[sp,#0x38]
        0x08003946:    3801        .8      SUBS     r0,#1
        0x08003948:    900e        ..      STR      r0,[sp,#0x38]
        0x0800394a:    e7ff        ..      B        0x800394c ; _PrintInt + 132
        0x0800394c:    f89d003c    ..<.    LDRB     r0,[sp,#0x3c]
        0x08003950:    0780        ..      LSLS     r0,r0,#30
        0x08003952:    2800        .(      CMP      r0,#0
        0x08003954:    d503        ..      BPL      0x800395e ; _PrintInt + 150
        0x08003956:    e7ff        ..      B        0x8003958 ; _PrintInt + 144
        0x08003958:    9808        ..      LDR      r0,[sp,#0x20]
        0x0800395a:    b358        X.      CBZ      r0,0x80039b4 ; _PrintInt + 236
        0x0800395c:    e7ff        ..      B        0x800395e ; _PrintInt + 150
        0x0800395e:    f89d003c    ..<.    LDRB     r0,[sp,#0x3c]
        0x08003962:    07c0        ..      LSLS     r0,r0,#31
        0x08003964:    bb30        0.      CBNZ     r0,0x80039b4 ; _PrintInt + 236
        0x08003966:    e7ff        ..      B        0x8003968 ; _PrintInt + 160
        0x08003968:    980e        ..      LDR      r0,[sp,#0x38]
        0x0800396a:    b310        ..      CBZ      r0,0x80039b2 ; _PrintInt + 234
        0x0800396c:    e7ff        ..      B        0x800396e ; _PrintInt + 166
        0x0800396e:    e7ff        ..      B        0x8003970 ; _PrintInt + 168
        0x08003970:    990e        ..      LDR      r1,[sp,#0x38]
        0x08003972:    2000        .       MOVS     r0,#0
        0x08003974:    9004        ..      STR      r0,[sp,#0x10]
        0x08003976:    b141        A.      CBZ      r1,0x800398a ; _PrintInt + 194
        0x08003978:    e7ff        ..      B        0x800397a ; _PrintInt + 178
        0x0800397a:    9907        ..      LDR      r1,[sp,#0x1c]
        0x0800397c:    9a0e        ..      LDR      r2,[sp,#0x38]
        0x0800397e:    2000        .       MOVS     r0,#0
        0x08003980:    4291        .B      CMP      r1,r2
        0x08003982:    bf38        8.      IT       CC
        0x08003984:    2001        .       MOVCC    r0,#1
        0x08003986:    9004        ..      STR      r0,[sp,#0x10]
        0x08003988:    e7ff        ..      B        0x800398a ; _PrintInt + 194
        0x0800398a:    9804        ..      LDR      r0,[sp,#0x10]
        0x0800398c:    07c0        ..      LSLS     r0,r0,#31
        0x0800398e:    b178        x.      CBZ      r0,0x80039b0 ; _PrintInt + 232
        0x08003990:    e7ff        ..      B        0x8003992 ; _PrintInt + 202
        0x08003992:    980e        ..      LDR      r0,[sp,#0x38]
        0x08003994:    3801        .8      SUBS     r0,#1
        0x08003996:    900e        ..      STR      r0,[sp,#0x38]
        0x08003998:    980b        ..      LDR      r0,[sp,#0x2c]
        0x0800399a:    2120         !      MOVS     r1,#0x20
        0x0800399c:    f000f950    ..P.    BL       _StoreChar ; 0x8003c40
        0x080039a0:    980b        ..      LDR      r0,[sp,#0x2c]
        0x080039a2:    68c0        .h      LDR      r0,[r0,#0xc]
        0x080039a4:    f1b03fff    ...?    CMP      r0,#0xffffffff
        0x080039a8:    dc01        ..      BGT      0x80039ae ; _PrintInt + 230
        0x080039aa:    e7ff        ..      B        0x80039ac ; _PrintInt + 228
        0x080039ac:    e000        ..      B        0x80039b0 ; _PrintInt + 232
        0x080039ae:    e7df        ..      B        0x8003970 ; _PrintInt + 168
        0x080039b0:    e7ff        ..      B        0x80039b2 ; _PrintInt + 234
        0x080039b2:    e7ff        ..      B        0x80039b4 ; _PrintInt + 236
        0x080039b4:    980b        ..      LDR      r0,[sp,#0x2c]
        0x080039b6:    68c0        .h      LDR      r0,[r0,#0xc]
        0x080039b8:    2800        .(      CMP      r0,#0
        0x080039ba:    d469        i.      BMI      0x8003a90 ; _PrintInt + 456
        0x080039bc:    e7ff        ..      B        0x80039be ; _PrintInt + 246
        0x080039be:    980a        ..      LDR      r0,[sp,#0x28]
        0x080039c0:    f1b03fff    ...?    CMP      r0,#0xffffffff
        0x080039c4:    dc08        ..      BGT      0x80039d8 ; _PrintInt + 272
        0x080039c6:    e7ff        ..      B        0x80039c8 ; _PrintInt + 256
        0x080039c8:    980a        ..      LDR      r0,[sp,#0x28]
        0x080039ca:    4240        @B      RSBS     r0,r0,#0
        0x080039cc:    900a        ..      STR      r0,[sp,#0x28]
        0x080039ce:    980b        ..      LDR      r0,[sp,#0x2c]
        0x080039d0:    212d        -!      MOVS     r1,#0x2d
        0x080039d2:    f000f935    ..5.    BL       _StoreChar ; 0x8003c40
        0x080039d6:    e00c        ..      B        0x80039f2 ; _PrintInt + 298
        0x080039d8:    f89d003c    ..<.    LDRB     r0,[sp,#0x3c]
        0x080039dc:    0740        @.      LSLS     r0,r0,#29
        0x080039de:    2800        .(      CMP      r0,#0
        0x080039e0:    d505        ..      BPL      0x80039ee ; _PrintInt + 294
        0x080039e2:    e7ff        ..      B        0x80039e4 ; _PrintInt + 284
        0x080039e4:    980b        ..      LDR      r0,[sp,#0x2c]
        0x080039e6:    212b        +!      MOVS     r1,#0x2b
        0x080039e8:    f000f92a    ..*.    BL       _StoreChar ; 0x8003c40
        0x080039ec:    e000        ..      B        0x80039f0 ; _PrintInt + 296
        0x080039ee:    e7ff        ..      B        0x80039f0 ; _PrintInt + 296
        0x080039f0:    e7ff        ..      B        0x80039f2 ; _PrintInt + 298
        0x080039f2:    980b        ..      LDR      r0,[sp,#0x2c]
        0x080039f4:    68c0        .h      LDR      r0,[r0,#0xc]
        0x080039f6:    2800        .(      CMP      r0,#0
        0x080039f8:    d449        I.      BMI      0x8003a8e ; _PrintInt + 454
        0x080039fa:    e7ff        ..      B        0x80039fc ; _PrintInt + 308
        0x080039fc:    f89d003c    ..<.    LDRB     r0,[sp,#0x3c]
        0x08003a00:    0780        ..      LSLS     r0,r0,#30
        0x08003a02:    2800        .(      CMP      r0,#0
        0x08003a04:    d52e        ..      BPL      0x8003a64 ; _PrintInt + 412
        0x08003a06:    e7ff        ..      B        0x8003a08 ; _PrintInt + 320
        0x08003a08:    f89d003c    ..<.    LDRB     r0,[sp,#0x3c]
        0x08003a0c:    07c0        ..      LSLS     r0,r0,#31
        0x08003a0e:    bb48        H.      CBNZ     r0,0x8003a64 ; _PrintInt + 412
        0x08003a10:    e7ff        ..      B        0x8003a12 ; _PrintInt + 330
        0x08003a12:    9808        ..      LDR      r0,[sp,#0x20]
        0x08003a14:    bb30        0.      CBNZ     r0,0x8003a64 ; _PrintInt + 412
        0x08003a16:    e7ff        ..      B        0x8003a18 ; _PrintInt + 336
        0x08003a18:    980e        ..      LDR      r0,[sp,#0x38]
        0x08003a1a:    b310        ..      CBZ      r0,0x8003a62 ; _PrintInt + 410
        0x08003a1c:    e7ff        ..      B        0x8003a1e ; _PrintInt + 342
        0x08003a1e:    e7ff        ..      B        0x8003a20 ; _PrintInt + 344
        0x08003a20:    990e        ..      LDR      r1,[sp,#0x38]
        0x08003a22:    2000        .       MOVS     r0,#0
        0x08003a24:    9003        ..      STR      r0,[sp,#0xc]
        0x08003a26:    b141        A.      CBZ      r1,0x8003a3a ; _PrintInt + 370
        0x08003a28:    e7ff        ..      B        0x8003a2a ; _PrintInt + 354
        0x08003a2a:    9907        ..      LDR      r1,[sp,#0x1c]
        0x08003a2c:    9a0e        ..      LDR      r2,[sp,#0x38]
        0x08003a2e:    2000        .       MOVS     r0,#0
        0x08003a30:    4291        .B      CMP      r1,r2
        0x08003a32:    bf38        8.      IT       CC
        0x08003a34:    2001        .       MOVCC    r0,#1
        0x08003a36:    9003        ..      STR      r0,[sp,#0xc]
        0x08003a38:    e7ff        ..      B        0x8003a3a ; _PrintInt + 370
        0x08003a3a:    9803        ..      LDR      r0,[sp,#0xc]
        0x08003a3c:    07c0        ..      LSLS     r0,r0,#31
        0x08003a3e:    b178        x.      CBZ      r0,0x8003a60 ; _PrintInt + 408
        0x08003a40:    e7ff        ..      B        0x8003a42 ; _PrintInt + 378
        0x08003a42:    980e        ..      LDR      r0,[sp,#0x38]
        0x08003a44:    3801        .8      SUBS     r0,#1
        0x08003a46:    900e        ..      STR      r0,[sp,#0x38]
        0x08003a48:    980b        ..      LDR      r0,[sp,#0x2c]
        0x08003a4a:    2130        0!      MOVS     r1,#0x30
        0x08003a4c:    f000f8f8    ....    BL       _StoreChar ; 0x8003c40
        0x08003a50:    980b        ..      LDR      r0,[sp,#0x2c]
        0x08003a52:    68c0        .h      LDR      r0,[r0,#0xc]
        0x08003a54:    f1b03fff    ...?    CMP      r0,#0xffffffff
        0x08003a58:    dc01        ..      BGT      0x8003a5e ; _PrintInt + 406
        0x08003a5a:    e7ff        ..      B        0x8003a5c ; _PrintInt + 404
        0x08003a5c:    e000        ..      B        0x8003a60 ; _PrintInt + 408
        0x08003a5e:    e7df        ..      B        0x8003a20 ; _PrintInt + 344
        0x08003a60:    e7ff        ..      B        0x8003a62 ; _PrintInt + 410
        0x08003a62:    e7ff        ..      B        0x8003a64 ; _PrintInt + 412
        0x08003a64:    980b        ..      LDR      r0,[sp,#0x2c]
        0x08003a66:    68c0        .h      LDR      r0,[r0,#0xc]
        0x08003a68:    2800        .(      CMP      r0,#0
        0x08003a6a:    d40f        ..      BMI      0x8003a8c ; _PrintInt + 452
        0x08003a6c:    e7ff        ..      B        0x8003a6e ; _PrintInt + 422
        0x08003a6e:    980b        ..      LDR      r0,[sp,#0x2c]
        0x08003a70:    990a        ..      LDR      r1,[sp,#0x28]
        0x08003a72:    9a09        ..      LDR      r2,[sp,#0x24]
        0x08003a74:    9b08        ..      LDR      r3,[sp,#0x20]
        0x08003a76:    f8ddc038    ..8.    LDR      r12,[sp,#0x38]
        0x08003a7a:    9c0f        ..      LDR      r4,[sp,#0x3c]
        0x08003a7c:    46ee        .F      MOV      lr,sp
        0x08003a7e:    f8ce4004    ...@    STR      r4,[lr,#4]
        0x08003a82:    f8cec000    ....    STR      r12,[lr,#0]
        0x08003a86:    f000f805    ....    BL       _PrintUnsigned ; 0x8003a94
        0x08003a8a:    e7ff        ..      B        0x8003a8c ; _PrintInt + 452
        0x08003a8c:    e7ff        ..      B        0x8003a8e ; _PrintInt + 454
        0x08003a8e:    e7ff        ..      B        0x8003a90 ; _PrintInt + 456
        0x08003a90:    b00c        ..      ADD      sp,sp,#0x30
        0x08003a92:    bd10        ..      POP      {r4,pc}
    _PrintUnsigned
        0x08003a94:    b580        ..      PUSH     {r7,lr}
        0x08003a96:    b08c        ..      SUB      sp,sp,#0x30
        0x08003a98:    f8ddc03c    ..<.    LDR      r12,[sp,#0x3c]
        0x08003a9c:    f8ddc038    ..8.    LDR      r12,[sp,#0x38]
        0x08003aa0:    900b        ..      STR      r0,[sp,#0x2c]
        0x08003aa2:    910a        ..      STR      r1,[sp,#0x28]
        0x08003aa4:    9209        ..      STR      r2,[sp,#0x24]
        0x08003aa6:    9308        ..      STR      r3,[sp,#0x20]
        0x08003aa8:    980a        ..      LDR      r0,[sp,#0x28]
        0x08003aaa:    9005        ..      STR      r0,[sp,#0x14]
        0x08003aac:    2001        .       MOVS     r0,#1
        0x08003aae:    9006        ..      STR      r0,[sp,#0x18]
        0x08003ab0:    9004        ..      STR      r0,[sp,#0x10]
        0x08003ab2:    e7ff        ..      B        0x8003ab4 ; _PrintUnsigned + 32
        0x08003ab4:    9805        ..      LDR      r0,[sp,#0x14]
        0x08003ab6:    9909        ..      LDR      r1,[sp,#0x24]
        0x08003ab8:    4288        .B      CMP      r0,r1
        0x08003aba:    d309        ..      BCC      0x8003ad0 ; _PrintUnsigned + 60
        0x08003abc:    e7ff        ..      B        0x8003abe ; _PrintUnsigned + 42
        0x08003abe:    9805        ..      LDR      r0,[sp,#0x14]
        0x08003ac0:    9909        ..      LDR      r1,[sp,#0x24]
        0x08003ac2:    fbb0f0f1    ....    UDIV     r0,r0,r1
        0x08003ac6:    9005        ..      STR      r0,[sp,#0x14]
        0x08003ac8:    9804        ..      LDR      r0,[sp,#0x10]
        0x08003aca:    3001        .0      ADDS     r0,#1
        0x08003acc:    9004        ..      STR      r0,[sp,#0x10]
        0x08003ace:    e7f1        ..      B        0x8003ab4 ; _PrintUnsigned + 32
        0x08003ad0:    9808        ..      LDR      r0,[sp,#0x20]
        0x08003ad2:    9904        ..      LDR      r1,[sp,#0x10]
        0x08003ad4:    4288        .B      CMP      r0,r1
        0x08003ad6:    d903        ..      BLS      0x8003ae0 ; _PrintUnsigned + 76
        0x08003ad8:    e7ff        ..      B        0x8003ada ; _PrintUnsigned + 70
        0x08003ada:    9808        ..      LDR      r0,[sp,#0x20]
        0x08003adc:    9004        ..      STR      r0,[sp,#0x10]
        0x08003ade:    e7ff        ..      B        0x8003ae0 ; _PrintUnsigned + 76
        0x08003ae0:    f89d003c    ..<.    LDRB     r0,[sp,#0x3c]
        0x08003ae4:    07c0        ..      LSLS     r0,r0,#31
        0x08003ae6:    bbc0        ..      CBNZ     r0,0x8003b5a ; _PrintUnsigned + 198
        0x08003ae8:    e7ff        ..      B        0x8003aea ; _PrintUnsigned + 86
        0x08003aea:    980e        ..      LDR      r0,[sp,#0x38]
        0x08003aec:    b3a0        ..      CBZ      r0,0x8003b58 ; _PrintUnsigned + 196
        0x08003aee:    e7ff        ..      B        0x8003af0 ; _PrintUnsigned + 92
        0x08003af0:    f89d003c    ..<.    LDRB     r0,[sp,#0x3c]
        0x08003af4:    0780        ..      LSLS     r0,r0,#30
        0x08003af6:    2800        .(      CMP      r0,#0
        0x08003af8:    d507        ..      BPL      0x8003b0a ; _PrintUnsigned + 118
        0x08003afa:    e7ff        ..      B        0x8003afc ; _PrintUnsigned + 104
        0x08003afc:    9808        ..      LDR      r0,[sp,#0x20]
        0x08003afe:    b920         .      CBNZ     r0,0x8003b0a ; _PrintUnsigned + 118
        0x08003b00:    e7ff        ..      B        0x8003b02 ; _PrintUnsigned + 110
        0x08003b02:    2030        0       MOVS     r0,#0x30
        0x08003b04:    f88d000f    ....    STRB     r0,[sp,#0xf]
        0x08003b08:    e003        ..      B        0x8003b12 ; _PrintUnsigned + 126
        0x08003b0a:    2020                MOVS     r0,#0x20
        0x08003b0c:    f88d000f    ....    STRB     r0,[sp,#0xf]
        0x08003b10:    e7ff        ..      B        0x8003b12 ; _PrintUnsigned + 126
        0x08003b12:    e7ff        ..      B        0x8003b14 ; _PrintUnsigned + 128
        0x08003b14:    990e        ..      LDR      r1,[sp,#0x38]
        0x08003b16:    2000        .       MOVS     r0,#0
        0x08003b18:    9002        ..      STR      r0,[sp,#8]
        0x08003b1a:    b141        A.      CBZ      r1,0x8003b2e ; _PrintUnsigned + 154
        0x08003b1c:    e7ff        ..      B        0x8003b1e ; _PrintUnsigned + 138
        0x08003b1e:    9904        ..      LDR      r1,[sp,#0x10]
        0x08003b20:    9a0e        ..      LDR      r2,[sp,#0x38]
        0x08003b22:    2000        .       MOVS     r0,#0
        0x08003b24:    4291        .B      CMP      r1,r2
        0x08003b26:    bf38        8.      IT       CC
        0x08003b28:    2001        .       MOVCC    r0,#1
        0x08003b2a:    9002        ..      STR      r0,[sp,#8]
        0x08003b2c:    e7ff        ..      B        0x8003b2e ; _PrintUnsigned + 154
        0x08003b2e:    9802        ..      LDR      r0,[sp,#8]
        0x08003b30:    07c0        ..      LSLS     r0,r0,#31
        0x08003b32:    b180        ..      CBZ      r0,0x8003b56 ; _PrintUnsigned + 194
        0x08003b34:    e7ff        ..      B        0x8003b36 ; _PrintUnsigned + 162
        0x08003b36:    980e        ..      LDR      r0,[sp,#0x38]
        0x08003b38:    3801        .8      SUBS     r0,#1
        0x08003b3a:    900e        ..      STR      r0,[sp,#0x38]
        0x08003b3c:    980b        ..      LDR      r0,[sp,#0x2c]
        0x08003b3e:    f89d100f    ....    LDRB     r1,[sp,#0xf]
        0x08003b42:    f000f87d    ..}.    BL       _StoreChar ; 0x8003c40
        0x08003b46:    980b        ..      LDR      r0,[sp,#0x2c]
        0x08003b48:    68c0        .h      LDR      r0,[r0,#0xc]
        0x08003b4a:    f1b03fff    ...?    CMP      r0,#0xffffffff
        0x08003b4e:    dc01        ..      BGT      0x8003b54 ; _PrintUnsigned + 192
        0x08003b50:    e7ff        ..      B        0x8003b52 ; _PrintUnsigned + 190
        0x08003b52:    e000        ..      B        0x8003b56 ; _PrintUnsigned + 194
        0x08003b54:    e7de        ..      B        0x8003b14 ; _PrintUnsigned + 128
        0x08003b56:    e7ff        ..      B        0x8003b58 ; _PrintUnsigned + 196
        0x08003b58:    e7ff        ..      B        0x8003b5a ; _PrintUnsigned + 198
        0x08003b5a:    980b        ..      LDR      r0,[sp,#0x2c]
        0x08003b5c:    68c0        .h      LDR      r0,[r0,#0xc]
        0x08003b5e:    2800        .(      CMP      r0,#0
        0x08003b60:    d46c        l.      BMI      0x8003c3c ; _PrintUnsigned + 424
        0x08003b62:    e7ff        ..      B        0x8003b64 ; _PrintUnsigned + 208
        0x08003b64:    e7ff        ..      B        0x8003b66 ; _PrintUnsigned + 210
        0x08003b66:    9808        ..      LDR      r0,[sp,#0x20]
        0x08003b68:    2802        .(      CMP      r0,#2
        0x08003b6a:    d304        ..      BCC      0x8003b76 ; _PrintUnsigned + 226
        0x08003b6c:    e7ff        ..      B        0x8003b6e ; _PrintUnsigned + 218
        0x08003b6e:    9808        ..      LDR      r0,[sp,#0x20]
        0x08003b70:    3801        .8      SUBS     r0,#1
        0x08003b72:    9008        ..      STR      r0,[sp,#0x20]
        0x08003b74:    e00b        ..      B        0x8003b8e ; _PrintUnsigned + 250
        0x08003b76:    980a        ..      LDR      r0,[sp,#0x28]
        0x08003b78:    9906        ..      LDR      r1,[sp,#0x18]
        0x08003b7a:    fbb0f0f1    ....    UDIV     r0,r0,r1
        0x08003b7e:    9007        ..      STR      r0,[sp,#0x1c]
        0x08003b80:    9807        ..      LDR      r0,[sp,#0x1c]
        0x08003b82:    9909        ..      LDR      r1,[sp,#0x24]
        0x08003b84:    4288        .B      CMP      r0,r1
        0x08003b86:    d201        ..      BCS      0x8003b8c ; _PrintUnsigned + 248
        0x08003b88:    e7ff        ..      B        0x8003b8a ; _PrintUnsigned + 246
        0x08003b8a:    e005        ..      B        0x8003b98 ; _PrintUnsigned + 260
        0x08003b8c:    e7ff        ..      B        0x8003b8e ; _PrintUnsigned + 250
        0x08003b8e:    9909        ..      LDR      r1,[sp,#0x24]
        0x08003b90:    9806        ..      LDR      r0,[sp,#0x18]
        0x08003b92:    4348        HC      MULS     r0,r1,r0
        0x08003b94:    9006        ..      STR      r0,[sp,#0x18]
        0x08003b96:    e7e6        ..      B        0x8003b66 ; _PrintUnsigned + 210
        0x08003b98:    e7ff        ..      B        0x8003b9a ; _PrintUnsigned + 262
        0x08003b9a:    980a        ..      LDR      r0,[sp,#0x28]
        0x08003b9c:    9906        ..      LDR      r1,[sp,#0x18]
        0x08003b9e:    fbb0f0f1    ....    UDIV     r0,r0,r1
        0x08003ba2:    9007        ..      STR      r0,[sp,#0x1c]
        0x08003ba4:    9807        ..      LDR      r0,[sp,#0x1c]
        0x08003ba6:    9906        ..      LDR      r1,[sp,#0x18]
        0x08003ba8:    9a0a        ..      LDR      r2,[sp,#0x28]
        0x08003baa:    fb002011    ...     MLS      r0,r0,r1,r2
        0x08003bae:    900a        ..      STR      r0,[sp,#0x28]
        0x08003bb0:    980b        ..      LDR      r0,[sp,#0x2c]
        0x08003bb2:    9a07        ..      LDR      r2,[sp,#0x1c]
        0x08003bb4:    f6477118    G..q    MOV      r1,#0x7f18
        0x08003bb8:    f6c00100    ....    MOVT     r1,#0x800
        0x08003bbc:    5c89        .\      LDRB     r1,[r1,r2]
        0x08003bbe:    f000f83f    ..?.    BL       _StoreChar ; 0x8003c40
        0x08003bc2:    980b        ..      LDR      r0,[sp,#0x2c]
        0x08003bc4:    68c0        .h      LDR      r0,[r0,#0xc]
        0x08003bc6:    f1b03fff    ...?    CMP      r0,#0xffffffff
        0x08003bca:    dc01        ..      BGT      0x8003bd0 ; _PrintUnsigned + 316
        0x08003bcc:    e7ff        ..      B        0x8003bce ; _PrintUnsigned + 314
        0x08003bce:    e009        ..      B        0x8003be4 ; _PrintUnsigned + 336
        0x08003bd0:    9909        ..      LDR      r1,[sp,#0x24]
        0x08003bd2:    9806        ..      LDR      r0,[sp,#0x18]
        0x08003bd4:    fbb0f0f1    ....    UDIV     r0,r0,r1
        0x08003bd8:    9006        ..      STR      r0,[sp,#0x18]
        0x08003bda:    e7ff        ..      B        0x8003bdc ; _PrintUnsigned + 328
        0x08003bdc:    9806        ..      LDR      r0,[sp,#0x18]
        0x08003bde:    2800        .(      CMP      r0,#0
        0x08003be0:    d1db        ..      BNE      0x8003b9a ; _PrintUnsigned + 262
        0x08003be2:    e7ff        ..      B        0x8003be4 ; _PrintUnsigned + 336
        0x08003be4:    f89d003c    ..<.    LDRB     r0,[sp,#0x3c]
        0x08003be8:    07c0        ..      LSLS     r0,r0,#31
        0x08003bea:    b330        0.      CBZ      r0,0x8003c3a ; _PrintUnsigned + 422
        0x08003bec:    e7ff        ..      B        0x8003bee ; _PrintUnsigned + 346
        0x08003bee:    980e        ..      LDR      r0,[sp,#0x38]
        0x08003bf0:    b310        ..      CBZ      r0,0x8003c38 ; _PrintUnsigned + 420
        0x08003bf2:    e7ff        ..      B        0x8003bf4 ; _PrintUnsigned + 352
        0x08003bf4:    e7ff        ..      B        0x8003bf6 ; _PrintUnsigned + 354
        0x08003bf6:    990e        ..      LDR      r1,[sp,#0x38]
        0x08003bf8:    2000        .       MOVS     r0,#0
        0x08003bfa:    9001        ..      STR      r0,[sp,#4]
        0x08003bfc:    b141        A.      CBZ      r1,0x8003c10 ; _PrintUnsigned + 380
        0x08003bfe:    e7ff        ..      B        0x8003c00 ; _PrintUnsigned + 364
        0x08003c00:    9904        ..      LDR      r1,[sp,#0x10]
        0x08003c02:    9a0e        ..      LDR      r2,[sp,#0x38]
        0x08003c04:    2000        .       MOVS     r0,#0
        0x08003c06:    4291        .B      CMP      r1,r2
        0x08003c08:    bf38        8.      IT       CC
        0x08003c0a:    2001        .       MOVCC    r0,#1
        0x08003c0c:    9001        ..      STR      r0,[sp,#4]
        0x08003c0e:    e7ff        ..      B        0x8003c10 ; _PrintUnsigned + 380
        0x08003c10:    9801        ..      LDR      r0,[sp,#4]
        0x08003c12:    07c0        ..      LSLS     r0,r0,#31
        0x08003c14:    b178        x.      CBZ      r0,0x8003c36 ; _PrintUnsigned + 418
        0x08003c16:    e7ff        ..      B        0x8003c18 ; _PrintUnsigned + 388
        0x08003c18:    980e        ..      LDR      r0,[sp,#0x38]
        0x08003c1a:    3801        .8      SUBS     r0,#1
        0x08003c1c:    900e        ..      STR      r0,[sp,#0x38]
        0x08003c1e:    980b        ..      LDR      r0,[sp,#0x2c]
        0x08003c20:    2120         !      MOVS     r1,#0x20
        0x08003c22:    f000f80d    ....    BL       _StoreChar ; 0x8003c40
        0x08003c26:    980b        ..      LDR      r0,[sp,#0x2c]
        0x08003c28:    68c0        .h      LDR      r0,[r0,#0xc]
        0x08003c2a:    f1b03fff    ...?    CMP      r0,#0xffffffff
        0x08003c2e:    dc01        ..      BGT      0x8003c34 ; _PrintUnsigned + 416
        0x08003c30:    e7ff        ..      B        0x8003c32 ; _PrintUnsigned + 414
        0x08003c32:    e000        ..      B        0x8003c36 ; _PrintUnsigned + 418
        0x08003c34:    e7df        ..      B        0x8003bf6 ; _PrintUnsigned + 354
        0x08003c36:    e7ff        ..      B        0x8003c38 ; _PrintUnsigned + 420
        0x08003c38:    e7ff        ..      B        0x8003c3a ; _PrintUnsigned + 422
        0x08003c3a:    e7ff        ..      B        0x8003c3c ; _PrintUnsigned + 424
        0x08003c3c:    b00c        ..      ADD      sp,sp,#0x30
        0x08003c3e:    bd80        ..      POP      {r7,pc}
    _StoreChar
        0x08003c40:    b580        ..      PUSH     {r7,lr}
        0x08003c42:    b084        ..      SUB      sp,sp,#0x10
        0x08003c44:    9003        ..      STR      r0,[sp,#0xc]
        0x08003c46:    f88d100b    ....    STRB     r1,[sp,#0xb]
        0x08003c4a:    9803        ..      LDR      r0,[sp,#0xc]
        0x08003c4c:    6880        .h      LDR      r0,[r0,#8]
        0x08003c4e:    9001        ..      STR      r0,[sp,#4]
        0x08003c50:    9801        ..      LDR      r0,[sp,#4]
        0x08003c52:    3001        .0      ADDS     r0,#1
        0x08003c54:    9903        ..      LDR      r1,[sp,#0xc]
        0x08003c56:    6849        Ih      LDR      r1,[r1,#4]
        0x08003c58:    4288        .B      CMP      r0,r1
        0x08003c5a:    d80f        ..      BHI      0x8003c7c ; _StoreChar + 60
        0x08003c5c:    e7ff        ..      B        0x8003c5e ; _StoreChar + 30
        0x08003c5e:    f89d000b    ....    LDRB     r0,[sp,#0xb]
        0x08003c62:    9903        ..      LDR      r1,[sp,#0xc]
        0x08003c64:    6809        .h      LDR      r1,[r1,#0]
        0x08003c66:    9a01        ..      LDR      r2,[sp,#4]
        0x08003c68:    5488        .T      STRB     r0,[r1,r2]
        0x08003c6a:    9801        ..      LDR      r0,[sp,#4]
        0x08003c6c:    3001        .0      ADDS     r0,#1
        0x08003c6e:    9903        ..      LDR      r1,[sp,#0xc]
        0x08003c70:    6088        .`      STR      r0,[r1,#8]
        0x08003c72:    9903        ..      LDR      r1,[sp,#0xc]
        0x08003c74:    68c8        .h      LDR      r0,[r1,#0xc]
        0x08003c76:    3001        .0      ADDS     r0,#1
        0x08003c78:    60c8        .`      STR      r0,[r1,#0xc]
        0x08003c7a:    e7ff        ..      B        0x8003c7c ; _StoreChar + 60
        0x08003c7c:    9803        ..      LDR      r0,[sp,#0xc]
        0x08003c7e:    6841        Ah      LDR      r1,[r0,#4]
        0x08003c80:    6880        .h      LDR      r0,[r0,#8]
        0x08003c82:    4288        .B      CMP      r0,r1
        0x08003c84:    d115        ..      BNE      0x8003cb2 ; _StoreChar + 114
        0x08003c86:    e7ff        ..      B        0x8003c88 ; _StoreChar + 72
        0x08003c88:    9803        ..      LDR      r0,[sp,#0xc]
        0x08003c8a:    6801        .h      LDR      r1,[r0,#0]
        0x08003c8c:    6882        .h      LDR      r2,[r0,#8]
        0x08003c8e:    6900        .i      LDR      r0,[r0,#0x10]
        0x08003c90:    f7feffe2    ....    BL       SEGGER_RTT_Write ; 0x8002c58
        0x08003c94:    9903        ..      LDR      r1,[sp,#0xc]
        0x08003c96:    6889        .h      LDR      r1,[r1,#8]
        0x08003c98:    4288        .B      CMP      r0,r1
        0x08003c9a:    d005        ..      BEQ      0x8003ca8 ; _StoreChar + 104
        0x08003c9c:    e7ff        ..      B        0x8003c9e ; _StoreChar + 94
        0x08003c9e:    9903        ..      LDR      r1,[sp,#0xc]
        0x08003ca0:    f04f30ff    O..0    MOV      r0,#0xffffffff
        0x08003ca4:    60c8        .`      STR      r0,[r1,#0xc]
        0x08003ca6:    e003        ..      B        0x8003cb0 ; _StoreChar + 112
        0x08003ca8:    9903        ..      LDR      r1,[sp,#0xc]
        0x08003caa:    2000        .       MOVS     r0,#0
        0x08003cac:    6088        .`      STR      r0,[r1,#8]
        0x08003cae:    e7ff        ..      B        0x8003cb0 ; _StoreChar + 112
        0x08003cb0:    e7ff        ..      B        0x8003cb2 ; _StoreChar + 114
        0x08003cb2:    b004        ..      ADD      sp,sp,#0x10
        0x08003cb4:    bd80        ..      POP      {r7,pc}
        0x08003cb6:    0000        ..      MOVS     r0,r0
    _WriteBlocking
        0x08003cb8:    b580        ..      PUSH     {r7,lr}
        0x08003cba:    b08a        ..      SUB      sp,sp,#0x28
        0x08003cbc:    9009        ..      STR      r0,[sp,#0x24]
        0x08003cbe:    9108        ..      STR      r1,[sp,#0x20]
        0x08003cc0:    9207        ..      STR      r2,[sp,#0x1c]
        0x08003cc2:    2000        .       MOVS     r0,#0
        0x08003cc4:    9005        ..      STR      r0,[sp,#0x14]
        0x08003cc6:    9809        ..      LDR      r0,[sp,#0x24]
        0x08003cc8:    68c0        .h      LDR      r0,[r0,#0xc]
        0x08003cca:    9003        ..      STR      r0,[sp,#0xc]
        0x08003ccc:    e7ff        ..      B        0x8003cce ; _WriteBlocking + 22
        0x08003cce:    9809        ..      LDR      r0,[sp,#0x24]
        0x08003cd0:    6900        .i      LDR      r0,[r0,#0x10]
        0x08003cd2:    9004        ..      STR      r0,[sp,#0x10]
        0x08003cd4:    9804        ..      LDR      r0,[sp,#0x10]
        0x08003cd6:    9903        ..      LDR      r1,[sp,#0xc]
        0x08003cd8:    4288        .B      CMP      r0,r1
        0x08003cda:    d906        ..      BLS      0x8003cea ; _WriteBlocking + 50
        0x08003cdc:    e7ff        ..      B        0x8003cde ; _WriteBlocking + 38
        0x08003cde:    9904        ..      LDR      r1,[sp,#0x10]
        0x08003ce0:    9803        ..      LDR      r0,[sp,#0xc]
        0x08003ce2:    43c0        .C      MVNS     r0,r0
        0x08003ce4:    4408        .D      ADD      r0,r0,r1
        0x08003ce6:    9006        ..      STR      r0,[sp,#0x18]
        0x08003ce8:    e008        ..      B        0x8003cfc ; _WriteBlocking + 68
        0x08003cea:    9809        ..      LDR      r0,[sp,#0x24]
        0x08003cec:    6881        .h      LDR      r1,[r0,#8]
        0x08003cee:    9803        ..      LDR      r0,[sp,#0xc]
        0x08003cf0:    9a04        ..      LDR      r2,[sp,#0x10]
        0x08003cf2:    1a80        ..      SUBS     r0,r0,r2
        0x08003cf4:    43c0        .C      MVNS     r0,r0
        0x08003cf6:    4408        .D      ADD      r0,r0,r1
        0x08003cf8:    9006        ..      STR      r0,[sp,#0x18]
        0x08003cfa:    e7ff        ..      B        0x8003cfc ; _WriteBlocking + 68
        0x08003cfc:    9806        ..      LDR      r0,[sp,#0x18]
        0x08003cfe:    9909        ..      LDR      r1,[sp,#0x24]
        0x08003d00:    6889        .h      LDR      r1,[r1,#8]
        0x08003d02:    9a03        ..      LDR      r2,[sp,#0xc]
        0x08003d04:    1a89        ..      SUBS     r1,r1,r2
        0x08003d06:    4288        .B      CMP      r0,r1
        0x08003d08:    d203        ..      BCS      0x8003d12 ; _WriteBlocking + 90
        0x08003d0a:    e7ff        ..      B        0x8003d0c ; _WriteBlocking + 84
        0x08003d0c:    9806        ..      LDR      r0,[sp,#0x18]
        0x08003d0e:    9001        ..      STR      r0,[sp,#4]
        0x08003d10:    e005        ..      B        0x8003d1e ; _WriteBlocking + 102
        0x08003d12:    9809        ..      LDR      r0,[sp,#0x24]
        0x08003d14:    6880        .h      LDR      r0,[r0,#8]
        0x08003d16:    9903        ..      LDR      r1,[sp,#0xc]
        0x08003d18:    1a40        @.      SUBS     r0,r0,r1
        0x08003d1a:    9001        ..      STR      r0,[sp,#4]
        0x08003d1c:    e7ff        ..      B        0x8003d1e ; _WriteBlocking + 102
        0x08003d1e:    9801        ..      LDR      r0,[sp,#4]
        0x08003d20:    9006        ..      STR      r0,[sp,#0x18]
        0x08003d22:    9806        ..      LDR      r0,[sp,#0x18]
        0x08003d24:    9907        ..      LDR      r1,[sp,#0x1c]
        0x08003d26:    4288        .B      CMP      r0,r1
        0x08003d28:    d203        ..      BCS      0x8003d32 ; _WriteBlocking + 122
        0x08003d2a:    e7ff        ..      B        0x8003d2c ; _WriteBlocking + 116
        0x08003d2c:    9806        ..      LDR      r0,[sp,#0x18]
        0x08003d2e:    9000        ..      STR      r0,[sp,#0]
        0x08003d30:    e002        ..      B        0x8003d38 ; _WriteBlocking + 128
        0x08003d32:    9807        ..      LDR      r0,[sp,#0x1c]
        0x08003d34:    9000        ..      STR      r0,[sp,#0]
        0x08003d36:    e7ff        ..      B        0x8003d38 ; _WriteBlocking + 128
        0x08003d38:    9800        ..      LDR      r0,[sp,#0]
        0x08003d3a:    9006        ..      STR      r0,[sp,#0x18]
        0x08003d3c:    9809        ..      LDR      r0,[sp,#0x24]
        0x08003d3e:    6840        @h      LDR      r0,[r0,#4]
        0x08003d40:    9903        ..      LDR      r1,[sp,#0xc]
        0x08003d42:    4408        .D      ADD      r0,r0,r1
        0x08003d44:    9002        ..      STR      r0,[sp,#8]
        0x08003d46:    9802        ..      LDR      r0,[sp,#8]
        0x08003d48:    9908        ..      LDR      r1,[sp,#0x20]
        0x08003d4a:    9a06        ..      LDR      r2,[sp,#0x18]
        0x08003d4c:    f7fcfbc8    ....    BL       __aeabi_memcpy ; 0x80004e0
        0x08003d50:    9906        ..      LDR      r1,[sp,#0x18]
        0x08003d52:    9805        ..      LDR      r0,[sp,#0x14]
        0x08003d54:    4408        .D      ADD      r0,r0,r1
        0x08003d56:    9005        ..      STR      r0,[sp,#0x14]
        0x08003d58:    9906        ..      LDR      r1,[sp,#0x18]
        0x08003d5a:    9808        ..      LDR      r0,[sp,#0x20]
        0x08003d5c:    4408        .D      ADD      r0,r0,r1
        0x08003d5e:    9008        ..      STR      r0,[sp,#0x20]
        0x08003d60:    9906        ..      LDR      r1,[sp,#0x18]
        0x08003d62:    9807        ..      LDR      r0,[sp,#0x1c]
        0x08003d64:    1a40        @.      SUBS     r0,r0,r1
        0x08003d66:    9007        ..      STR      r0,[sp,#0x1c]
        0x08003d68:    9906        ..      LDR      r1,[sp,#0x18]
        0x08003d6a:    9803        ..      LDR      r0,[sp,#0xc]
        0x08003d6c:    4408        .D      ADD      r0,r0,r1
        0x08003d6e:    9003        ..      STR      r0,[sp,#0xc]
        0x08003d70:    9803        ..      LDR      r0,[sp,#0xc]
        0x08003d72:    9909        ..      LDR      r1,[sp,#0x24]
        0x08003d74:    6889        .h      LDR      r1,[r1,#8]
        0x08003d76:    4288        .B      CMP      r0,r1
        0x08003d78:    d103        ..      BNE      0x8003d82 ; _WriteBlocking + 202
        0x08003d7a:    e7ff        ..      B        0x8003d7c ; _WriteBlocking + 196
        0x08003d7c:    2000        .       MOVS     r0,#0
        0x08003d7e:    9003        ..      STR      r0,[sp,#0xc]
        0x08003d80:    e7ff        ..      B        0x8003d82 ; _WriteBlocking + 202
        0x08003d82:    f3bf8f5f    .._.    DMB      
        0x08003d86:    9803        ..      LDR      r0,[sp,#0xc]
        0x08003d88:    9909        ..      LDR      r1,[sp,#0x24]
        0x08003d8a:    60c8        .`      STR      r0,[r1,#0xc]
        0x08003d8c:    e7ff        ..      B        0x8003d8e ; _WriteBlocking + 214
        0x08003d8e:    9807        ..      LDR      r0,[sp,#0x1c]
        0x08003d90:    2800        .(      CMP      r0,#0
        0x08003d92:    d19c        ..      BNE      0x8003cce ; _WriteBlocking + 22
        0x08003d94:    e7ff        ..      B        0x8003d96 ; _WriteBlocking + 222
        0x08003d96:    9805        ..      LDR      r0,[sp,#0x14]
        0x08003d98:    b00a        ..      ADD      sp,sp,#0x28
        0x08003d9a:    bd80        ..      POP      {r7,pc}
    _WriteNoCheck
        0x08003d9c:    b580        ..      PUSH     {r7,lr}
        0x08003d9e:    b088        ..      SUB      sp,sp,#0x20
        0x08003da0:    9007        ..      STR      r0,[sp,#0x1c]
        0x08003da2:    9106        ..      STR      r1,[sp,#0x18]
        0x08003da4:    9205        ..      STR      r2,[sp,#0x14]
        0x08003da6:    9807        ..      LDR      r0,[sp,#0x1c]
        0x08003da8:    68c0        .h      LDR      r0,[r0,#0xc]
        0x08003daa:    9003        ..      STR      r0,[sp,#0xc]
        0x08003dac:    9807        ..      LDR      r0,[sp,#0x1c]
        0x08003dae:    6880        .h      LDR      r0,[r0,#8]
        0x08003db0:    9903        ..      LDR      r1,[sp,#0xc]
        0x08003db2:    1a40        @.      SUBS     r0,r0,r1
        0x08003db4:    9002        ..      STR      r0,[sp,#8]
        0x08003db6:    9802        ..      LDR      r0,[sp,#8]
        0x08003db8:    9905        ..      LDR      r1,[sp,#0x14]
        0x08003dba:    4288        .B      CMP      r0,r1
        0x08003dbc:    d912        ..      BLS      0x8003de4 ; _WriteNoCheck + 72
        0x08003dbe:    e7ff        ..      B        0x8003dc0 ; _WriteNoCheck + 36
        0x08003dc0:    9807        ..      LDR      r0,[sp,#0x1c]
        0x08003dc2:    6840        @h      LDR      r0,[r0,#4]
        0x08003dc4:    9903        ..      LDR      r1,[sp,#0xc]
        0x08003dc6:    4408        .D      ADD      r0,r0,r1
        0x08003dc8:    9001        ..      STR      r0,[sp,#4]
        0x08003dca:    9801        ..      LDR      r0,[sp,#4]
        0x08003dcc:    9906        ..      LDR      r1,[sp,#0x18]
        0x08003dce:    9a05        ..      LDR      r2,[sp,#0x14]
        0x08003dd0:    f7fcfb86    ....    BL       __aeabi_memcpy ; 0x80004e0
        0x08003dd4:    f3bf8f5f    .._.    DMB      
        0x08003dd8:    9803        ..      LDR      r0,[sp,#0xc]
        0x08003dda:    9905        ..      LDR      r1,[sp,#0x14]
        0x08003ddc:    4408        .D      ADD      r0,r0,r1
        0x08003dde:    9907        ..      LDR      r1,[sp,#0x1c]
        0x08003de0:    60c8        .`      STR      r0,[r1,#0xc]
        0x08003de2:    e01f        ..      B        0x8003e24 ; _WriteNoCheck + 136
        0x08003de4:    9802        ..      LDR      r0,[sp,#8]
        0x08003de6:    9004        ..      STR      r0,[sp,#0x10]
        0x08003de8:    9807        ..      LDR      r0,[sp,#0x1c]
        0x08003dea:    6840        @h      LDR      r0,[r0,#4]
        0x08003dec:    9903        ..      LDR      r1,[sp,#0xc]
        0x08003dee:    4408        .D      ADD      r0,r0,r1
        0x08003df0:    9001        ..      STR      r0,[sp,#4]
        0x08003df2:    9801        ..      LDR      r0,[sp,#4]
        0x08003df4:    9906        ..      LDR      r1,[sp,#0x18]
        0x08003df6:    9a04        ..      LDR      r2,[sp,#0x10]
        0x08003df8:    f7fcfb72    ..r.    BL       __aeabi_memcpy ; 0x80004e0
        0x08003dfc:    9805        ..      LDR      r0,[sp,#0x14]
        0x08003dfe:    9902        ..      LDR      r1,[sp,#8]
        0x08003e00:    1a40        @.      SUBS     r0,r0,r1
        0x08003e02:    9004        ..      STR      r0,[sp,#0x10]
        0x08003e04:    9807        ..      LDR      r0,[sp,#0x1c]
        0x08003e06:    6840        @h      LDR      r0,[r0,#4]
        0x08003e08:    9001        ..      STR      r0,[sp,#4]
        0x08003e0a:    9801        ..      LDR      r0,[sp,#4]
        0x08003e0c:    9906        ..      LDR      r1,[sp,#0x18]
        0x08003e0e:    9a02        ..      LDR      r2,[sp,#8]
        0x08003e10:    4411        .D      ADD      r1,r1,r2
        0x08003e12:    9a04        ..      LDR      r2,[sp,#0x10]
        0x08003e14:    f7fcfb64    ..d.    BL       __aeabi_memcpy ; 0x80004e0
        0x08003e18:    f3bf8f5f    .._.    DMB      
        0x08003e1c:    9804        ..      LDR      r0,[sp,#0x10]
        0x08003e1e:    9907        ..      LDR      r1,[sp,#0x1c]
        0x08003e20:    60c8        .`      STR      r0,[r1,#0xc]
        0x08003e22:    e7ff        ..      B        0x8003e24 ; _WriteNoCheck + 136
        0x08003e24:    b008        ..      ADD      sp,sp,#0x20
        0x08003e26:    bd80        ..      POP      {r7,pc}
    _Z14Calculate_Tempf
        0x08003e28:    b580        ..      PUSH     {r7,lr}
        0x08003e2a:    b08c        ..      SUB      sp,sp,#0x30
        0x08003e2c:    ed8d0a0b    ....    VSTR     s0,[sp,#0x2c]
        0x08003e30:    f2411032    A.2.    MOV      r0,#0x1132
        0x08003e34:    f6c33080    ...0    MOVT     r0,#0x3b80
        0x08003e38:    900a        ..      STR      r0,[sp,#0x28]
        0x08003e3a:    f240507f    @..P    MOV      r0,#0x57f
        0x08003e3e:    f2cb501b    ...P    MOVT     r0,#0xb51b
        0x08003e42:    9009        ..      STR      r0,[sp,#0x24]
        0x08003e44:    980a        ..      LDR      r0,[sp,#0x28]
        0x08003e46:    f003ff55    ..U.    BL       __aeabi_f2d ; 0x8007cf4
        0x08003e4a:    ec410b10    A...    VMOV     d0,r0,r1
        0x08003e4e:    ed9f1b48    ..H.    VLDR     d1,[pc,#288] ; [0x8003f70] = 0
        0x08003e52:    ec510b11    Q...    VMOV     r0,r1,d1
        0x08003e56:    ec532b10    S..+    VMOV     r2,r3,d0
        0x08003e5a:    f003fe5d    ..].    BL       __aeabi_dsub ; 0x8007b18
        0x08003e5e:    ec410b10    A...    VMOV     d0,r0,r1
        0x08003e62:    ec510b10    Q...    VMOV     r0,r1,d0
        0x08003e66:    f003fa59    ..Y.    BL       __aeabi_d2f ; 0x800731c
        0x08003e6a:    9008        ..      STR      r0,[sp,#0x20]
        0x08003e6c:    ed9d0a0a    ....    VLDR     s0,[sp,#0x28]
        0x08003e70:    ee200a00     ...    VMUL.F32 s0,s0,s0
        0x08003e74:    ee100a10    ....    VMOV     r0,s0
        0x08003e78:    f003ff3c    ..<.    BL       __aeabi_f2d ; 0x8007cf4
        0x08003e7c:    ec410b10    A...    VMOV     d0,r0,r1
        0x08003e80:    ed8d0b02    ....    VSTR     d0,[sp,#8]
        0x08003e84:    9809        ..      LDR      r0,[sp,#0x24]
        0x08003e86:    f003ff35    ..5.    BL       __aeabi_f2d ; 0x8007cf4
        0x08003e8a:    ec410b10    A...    VMOV     d0,r0,r1
        0x08003e8e:    ed9f1b3a    ..:.    VLDR     d1,[pc,#232] ; [0x8003f78] = 0
        0x08003e92:    ec532b11    S..+    VMOV     r2,r3,d1
        0x08003e96:    ec510b10    Q...    VMOV     r0,r1,d0
        0x08003e9a:    f003fc73    ..s.    BL       __aeabi_dmul ; 0x8007784
        0x08003e9e:    ec410b10    A...    VMOV     d0,r0,r1
        0x08003ea2:    ed8d0b00    ....    VSTR     d0,[sp,#0]
        0x08003ea6:    980b        ..      LDR      r0,[sp,#0x2c]
        0x08003ea8:    f003ff24    ..$.    BL       __aeabi_f2d ; 0x8007cf4
        0x08003eac:    ec410b10    A...    VMOV     d0,r0,r1
        0x08003eb0:    ed9f1b33    ..3.    VLDR     d1,[pc,#204] ; [0x8003f80] = 0
        0x08003eb4:    ec510b11    Q...    VMOV     r0,r1,d1
        0x08003eb8:    ec532b10    S..+    VMOV     r2,r3,d0
        0x08003ebc:    f003fe2c    ..,.    BL       __aeabi_dsub ; 0x8007b18
        0x08003ec0:    ed9d1b00    ....    VLDR     d1,[sp,#0]
        0x08003ec4:    ec410b10    A...    VMOV     d0,r0,r1
        0x08003ec8:    ec510b11    Q...    VMOV     r0,r1,d1
        0x08003ecc:    ec532b10    S..+    VMOV     r2,r3,d0
        0x08003ed0:    f003fc58    ..X.    BL       __aeabi_dmul ; 0x8007784
        0x08003ed4:    ed9d0b02    ....    VLDR     d0,[sp,#8]
        0x08003ed8:    ec410b11    A...    VMOV     d1,r0,r1
        0x08003edc:    ec532b11    S..+    VMOV     r2,r3,d1
        0x08003ee0:    ec510b10    Q...    VMOV     r0,r1,d0
        0x08003ee4:    f003fa4c    ..L.    BL       __aeabi_dadd ; 0x8007380
        0x08003ee8:    ec410b10    A...    VMOV     d0,r0,r1
        0x08003eec:    f003f98f    ....    BL       __hardfp_sqrt ; 0x800720e
        0x08003ef0:    ed8d0b04    ....    VSTR     d0,[sp,#0x10]
        0x08003ef4:    9808        ..      LDR      r0,[sp,#0x20]
        0x08003ef6:    f003fefd    ....    BL       __aeabi_f2d ; 0x8007cf4
        0x08003efa:    ed9d1b04    ....    VLDR     d1,[sp,#0x10]
        0x08003efe:    ec410b10    A...    VMOV     d0,r0,r1
        0x08003f02:    ec532b11    S..+    VMOV     r2,r3,d1
        0x08003f06:    ec510b10    Q...    VMOV     r0,r1,d0
        0x08003f0a:    f003fa39    ..9.    BL       __aeabi_dadd ; 0x8007380
        0x08003f0e:    ec410b10    A...    VMOV     d0,r0,r1
        0x08003f12:    ec510b10    Q...    VMOV     r0,r1,d0
        0x08003f16:    f003fa01    ....    BL       __aeabi_d2f ; 0x800731c
        0x08003f1a:    9008        ..      STR      r0,[sp,#0x20]
        0x08003f1c:    9809        ..      LDR      r0,[sp,#0x24]
        0x08003f1e:    f003fee9    ....    BL       __aeabi_f2d ; 0x8007cf4
        0x08003f22:    ec410b10    A...    VMOV     d0,r0,r1
        0x08003f26:    ec532b10    S..+    VMOV     r2,r3,d0
        0x08003f2a:    4610        .F      MOV      r0,r2
        0x08003f2c:    4619        .F      MOV      r1,r3
        0x08003f2e:    f003fa27    ..'.    BL       __aeabi_dadd ; 0x8007380
        0x08003f32:    ec410b10    A...    VMOV     d0,r0,r1
        0x08003f36:    ed8d0b06    ....    VSTR     d0,[sp,#0x18]
        0x08003f3a:    9808        ..      LDR      r0,[sp,#0x20]
        0x08003f3c:    f003feda    ....    BL       __aeabi_f2d ; 0x8007cf4
        0x08003f40:    ed9d0b06    ....    VLDR     d0,[sp,#0x18]
        0x08003f44:    ec410b11    A...    VMOV     d1,r0,r1
        0x08003f48:    ec510b11    Q...    VMOV     r0,r1,d1
        0x08003f4c:    ec532b10    S..+    VMOV     r2,r3,d0
        0x08003f50:    f003fabe    ....    BL       __aeabi_ddiv ; 0x80074d0
        0x08003f54:    ec410b10    A...    VMOV     d0,r0,r1
        0x08003f58:    ec510b10    Q...    VMOV     r0,r1,d0
        0x08003f5c:    f003f9de    ....    BL       __aeabi_d2f ; 0x800731c
        0x08003f60:    9008        ..      STR      r0,[sp,#0x20]
        0x08003f62:    ed9d0a08    ....    VLDR     s0,[sp,#0x20]
        0x08003f66:    b00c        ..      ADD      sp,sp,#0x30
        0x08003f68:    bd80        ..      POP      {r7,pc}
        0x08003f6a:    bf00        ..      NOP      
        0x08003f6c:    bf00        ..      NOP      
        0x08003f6e:    bf00        ..      NOP      
    $d.22
        0x08003f70:    00000000    ....    DCD    0
        0x08003f74:    00000000    ....    DCD    0
        0x08003f78:    00000000    ....    DCD    0
        0x08003f7c:    c0100000    ....    DCD    3222274048
        0x08003f80:    00000000    ....    DCD    0
        0x08003f84:    3ff00000    ...?    DCD    1072693248
    $t.6
    _Z14shell_mode_cmdcPc
        0x08003f88:    b580        ..      PUSH     {r7,lr}
        0x08003f8a:    b082        ..      SUB      sp,sp,#8
        0x08003f8c:    f88d0007    ....    STRB     r0,[sp,#7]
        0x08003f90:    9100        ..      STR      r1,[sp,#0]
        0x08003f92:    f89d0007    ....    LDRB     r0,[sp,#7]
        0x08003f96:    2802        .(      CMP      r0,#2
        0x08003f98:    d153        S.      BNE      0x8004042 ; _Z14shell_mode_cmdcPc + 186
        0x08003f9a:    e7ff        ..      B        0x8003f9c ; _Z14shell_mode_cmdcPc + 20
        0x08003f9c:    9800        ..      LDR      r0,[sp,#0]
        0x08003f9e:    7841        Ax      LDRB     r1,[r0,#1]
        0x08003fa0:    4401        .D      ADD      r1,r1,r0
        0x08003fa2:    f24820b1    H..     MOV      r0,#0x82b1
        0x08003fa6:    f6c00000    ....    MOVT     r0,#0x800
        0x08003faa:    f7fcfae1    ....    BL       strcmp ; 0x8000570
        0x08003fae:    b938        8.      CBNZ     r0,0x8003fc0 ; _Z14shell_mode_cmdcPc + 56
        0x08003fb0:    e7ff        ..      B        0x8003fb2 ; _Z14shell_mode_cmdcPc + 42
        0x08003fb2:    f2482057    H.W     MOV      r0,#0x8257
        0x08003fb6:    f6c00000    ....    MOVT     r0,#0x800
        0x08003fba:    f7fcf9e7    ....    BL       printf ; 0x800038c
        0x08003fbe:    e03f        ?.      B        0x8004040 ; _Z14shell_mode_cmdcPc + 184
        0x08003fc0:    9800        ..      LDR      r0,[sp,#0]
        0x08003fc2:    7841        Ax      LDRB     r1,[r0,#1]
        0x08003fc4:    4401        .D      ADD      r1,r1,r0
        0x08003fc6:    f24820b3    H..     MOV      r0,#0x82b3
        0x08003fca:    f6c00000    ....    MOVT     r0,#0x800
        0x08003fce:    f7fcfacf    ....    BL       strcmp ; 0x8000570
        0x08003fd2:    b938        8.      CBNZ     r0,0x8003fe4 ; _Z14shell_mode_cmdcPc + 92
        0x08003fd4:    e7ff        ..      B        0x8003fd6 ; _Z14shell_mode_cmdcPc + 78
        0x08003fd6:    f2482034    H.4     MOV      r0,#0x8234
        0x08003fda:    f6c00000    ....    MOVT     r0,#0x800
        0x08003fde:    f7fcf9d5    ....    BL       printf ; 0x800038c
        0x08003fe2:    e02c        ,.      B        0x800403e ; _Z14shell_mode_cmdcPc + 182
        0x08003fe4:    9800        ..      LDR      r0,[sp,#0]
        0x08003fe6:    7841        Ax      LDRB     r1,[r0,#1]
        0x08003fe8:    4401        .D      ADD      r1,r1,r0
        0x08003fea:    f248106c    H.l.    MOV      r0,#0x816c
        0x08003fee:    f6c00000    ....    MOVT     r0,#0x800
        0x08003ff2:    f7fcfabd    ....    BL       strcmp ; 0x8000570
        0x08003ff6:    b938        8.      CBNZ     r0,0x8004008 ; _Z14shell_mode_cmdcPc + 128
        0x08003ff8:    e7ff        ..      B        0x8003ffa ; _Z14shell_mode_cmdcPc + 114
        0x08003ffa:    f24810f9    H...    MOV      r0,#0x81f9
        0x08003ffe:    f6c00000    ....    MOVT     r0,#0x800
        0x08004002:    f7fcf9c3    ....    BL       printf ; 0x800038c
        0x08004006:    e019        ..      B        0x800403c ; _Z14shell_mode_cmdcPc + 180
        0x08004008:    9800        ..      LDR      r0,[sp,#0]
        0x0800400a:    7841        Ax      LDRB     r1,[r0,#1]
        0x0800400c:    4401        .D      ADD      r1,r1,r0
        0x0800400e:    f24820b5    H..     MOV      r0,#0x82b5
        0x08004012:    f6c00000    ....    MOVT     r0,#0x800
        0x08004016:    f7fcfaab    ....    BL       strcmp ; 0x8000570
        0x0800401a:    b938        8.      CBNZ     r0,0x800402c ; _Z14shell_mode_cmdcPc + 164
        0x0800401c:    e7ff        ..      B        0x800401e ; _Z14shell_mode_cmdcPc + 150
        0x0800401e:    f248201a    H..     MOV      r0,#0x821a
        0x08004022:    f6c00000    ....    MOVT     r0,#0x800
        0x08004026:    f7fcf9b1    ....    BL       printf ; 0x800038c
        0x0800402a:    e006        ..      B        0x800403a ; _Z14shell_mode_cmdcPc + 178
        0x0800402c:    f2481081    H...    MOV      r0,#0x8181
        0x08004030:    f6c00000    ....    MOVT     r0,#0x800
        0x08004034:    f7fcf9aa    ....    BL       printf ; 0x800038c
        0x08004038:    e7ff        ..      B        0x800403a ; _Z14shell_mode_cmdcPc + 178
        0x0800403a:    e7ff        ..      B        0x800403c ; _Z14shell_mode_cmdcPc + 180
        0x0800403c:    e7ff        ..      B        0x800403e ; _Z14shell_mode_cmdcPc + 182
        0x0800403e:    e7ff        ..      B        0x8004040 ; _Z14shell_mode_cmdcPc + 184
        0x08004040:    e006        ..      B        0x8004050 ; _Z14shell_mode_cmdcPc + 200
        0x08004042:    f2481095    H...    MOV      r0,#0x8195
        0x08004046:    f6c00000    ....    MOVT     r0,#0x800
        0x0800404a:    f7fcf99f    ....    BL       printf ; 0x800038c
        0x0800404e:    e7ff        ..      B        0x8004050 ; _Z14shell_mode_cmdcPc + 200
        0x08004050:    b002        ..      ADD      sp,sp,#8
        0x08004052:    bd80        ..      POP      {r7,pc}
    _Z14shell_quit_cmdcPc
        0x08004054:    b580        ..      PUSH     {r7,lr}
        0x08004056:    b082        ..      SUB      sp,sp,#8
        0x08004058:    f88d0007    ....    STRB     r0,[sp,#7]
        0x0800405c:    9100        ..      STR      r1,[sp,#0]
        0x0800405e:    f89d0007    ....    LDRB     r0,[sp,#7]
        0x08004062:    2801        .(      CMP      r0,#1
        0x08004064:    d10a        ..      BNE      0x800407c ; _Z14shell_quit_cmdcPc + 40
        0x08004066:    e7ff        ..      B        0x8004068 ; _Z14shell_quit_cmdcPc + 20
        0x08004068:    f64010b4    @...    MOV      r0,#0x9b4
        0x0800406c:    f2c20000    ....    MOVT     r0,#0x2000
        0x08004070:    f44f71fa    O..q    MOV      r1,#0x1f4
        0x08004074:    f001f8e0    ....    BL       _ZN8DWTDelay8delay_msEj ; 0x8005238
        0x08004078:    f000f8f2    ....    BL       _ZL18__NVIC_SystemResetv ; 0x8004260
        0x0800407c:    f2482079    H.y     MOV      r0,#0x8279
        0x08004080:    f6c00000    ....    MOVT     r0,#0x800
        0x08004084:    f7fcf982    ....    BL       printf ; 0x800038c
        0x08004088:    e7ff        ..      B        0x800408a ; _Z14shell_quit_cmdcPc + 54
        0x0800408a:    b002        ..      ADD      sp,sp,#8
        0x0800408c:    bd80        ..      POP      {r7,pc}
        0x0800408e:    0000        ..      MOVS     r0,r0
    _Z14shell_stop_cmdcPc
        0x08004090:    b580        ..      PUSH     {r7,lr}
        0x08004092:    b082        ..      SUB      sp,sp,#8
        0x08004094:    f88d0007    ....    STRB     r0,[sp,#7]
        0x08004098:    9100        ..      STR      r1,[sp,#0]
        0x0800409a:    f89d0007    ....    LDRB     r0,[sp,#7]
        0x0800409e:    2801        .(      CMP      r0,#1
        0x080040a0:    d101        ..      BNE      0x80040a6 ; _Z14shell_stop_cmdcPc + 22
        0x080040a2:    e7ff        ..      B        0x80040a4 ; _Z14shell_stop_cmdcPc + 20
        0x080040a4:    e006        ..      B        0x80040b4 ; _Z14shell_stop_cmdcPc + 36
        0x080040a6:    f24810c3    H...    MOV      r0,#0x81c3
        0x080040aa:    f6c00000    ....    MOVT     r0,#0x800
        0x080040ae:    f7fcf96d    ..m.    BL       printf ; 0x800038c
        0x080040b2:    e7ff        ..      B        0x80040b4 ; _Z14shell_stop_cmdcPc + 36
        0x080040b4:    b002        ..      ADD      sp,sp,#8
        0x080040b6:    bd80        ..      POP      {r7,pc}
    _Z15shell_start_cmdcPc
        0x080040b8:    b580        ..      PUSH     {r7,lr}
        0x080040ba:    b082        ..      SUB      sp,sp,#8
        0x080040bc:    f88d0007    ....    STRB     r0,[sp,#7]
        0x080040c0:    9100        ..      STR      r1,[sp,#0]
        0x080040c2:    f89d0007    ....    LDRB     r0,[sp,#7]
        0x080040c6:    2801        .(      CMP      r0,#1
        0x080040c8:    d101        ..      BNE      0x80040ce ; _Z15shell_start_cmdcPc + 22
        0x080040ca:    e7ff        ..      B        0x80040cc ; _Z15shell_start_cmdcPc + 20
        0x080040cc:    e006        ..      B        0x80040dc ; _Z15shell_start_cmdcPc + 36
        0x080040ce:    f2482088    H..     MOV      r0,#0x8288
        0x080040d2:    f6c00000    ....    MOVT     r0,#0x800
        0x080040d6:    f7fcf959    ..Y.    BL       printf ; 0x800038c
        0x080040da:    e7ff        ..      B        0x80040dc ; _Z15shell_start_cmdcPc + 36
        0x080040dc:    b002        ..      ADD      sp,sp,#8
        0x080040de:    bd80        ..      POP      {r7,pc}
    _Z17shell_hexdump_cmdcPc
        0x080040e0:    b580        ..      PUSH     {r7,lr}
        0x080040e2:    b084        ..      SUB      sp,sp,#0x10
        0x080040e4:    f88d000f    ....    STRB     r0,[sp,#0xf]
        0x080040e8:    9102        ..      STR      r1,[sp,#8]
        0x080040ea:    2000        .       MOVS     r0,#0
        0x080040ec:    9001        ..      STR      r0,[sp,#4]
        0x080040ee:    e7ff        ..      B        0x80040f0 ; _Z17shell_hexdump_cmdcPc + 16
        0x080040f0:    9801        ..      LDR      r0,[sp,#4]
        0x080040f2:    f89d100f    ....    LDRB     r1,[sp,#0xf]
        0x080040f6:    4288        .B      CMP      r0,r1
        0x080040f8:    d20f        ..      BCS      0x800411a ; _Z17shell_hexdump_cmdcPc + 58
        0x080040fa:    e7ff        ..      B        0x80040fc ; _Z17shell_hexdump_cmdcPc + 28
        0x080040fc:    9901        ..      LDR      r1,[sp,#4]
        0x080040fe:    9802        ..      LDR      r0,[sp,#8]
        0x08004100:    5c42        B\      LDRB     r2,[r0,r1]
        0x08004102:    4402        .D      ADD      r2,r2,r0
        0x08004104:    f24810d2    H...    MOV      r0,#0x81d2
        0x08004108:    f6c00000    ....    MOVT     r0,#0x800
        0x0800410c:    f7fcf93e    ..>.    BL       printf ; 0x800038c
        0x08004110:    e7ff        ..      B        0x8004112 ; _Z17shell_hexdump_cmdcPc + 50
        0x08004112:    9801        ..      LDR      r0,[sp,#4]
        0x08004114:    3001        .0      ADDS     r0,#1
        0x08004116:    9001        ..      STR      r0,[sp,#4]
        0x08004118:    e7ea        ..      B        0x80040f0 ; _Z17shell_hexdump_cmdcPc + 16
        0x0800411a:    f89d000f    ....    LDRB     r0,[sp,#0xf]
        0x0800411e:    2803        .(      CMP      r0,#3
        0x08004120:    d105        ..      BNE      0x800412e ; _Z17shell_hexdump_cmdcPc + 78
        0x08004122:    e7ff        ..      B        0x8004124 ; _Z17shell_hexdump_cmdcPc + 68
        0x08004124:    2000        .       MOVS     r0,#0
        0x08004126:    2180        .!      MOVS     r1,#0x80
        0x08004128:    f001fb60    ..`.    BL       hexdump ; 0x80057ec
        0x0800412c:    e012        ..      B        0x8004154 ; _Z17shell_hexdump_cmdcPc + 116
        0x0800412e:    f24810a8    H...    MOV      r0,#0x81a8
        0x08004132:    f6c00000    ....    MOVT     r0,#0x800
        0x08004136:    f7fcf929    ..).    BL       printf ; 0x800038c
        0x0800413a:    f24810e1    H...    MOV      r0,#0x81e1
        0x0800413e:    f6c00000    ....    MOVT     r0,#0x800
        0x08004142:    f7fcf923    ..#.    BL       printf ; 0x800038c
        0x08004146:    f2482098    H..     MOV      r0,#0x8298
        0x0800414a:    f6c00000    ....    MOVT     r0,#0x800
        0x0800414e:    f7fcf91d    ....    BL       printf ; 0x800038c
        0x08004152:    e7ff        ..      B        0x8004154 ; _Z17shell_hexdump_cmdcPc + 116
        0x08004154:    b004        ..      ADD      sp,sp,#0x10
        0x08004156:    bd80        ..      POP      {r7,pc}
    _Z4loopv
        0x08004158:    b580        ..      PUSH     {r7,lr}
        0x0800415a:    f64010ac    @...    MOV      r0,#0x9ac
        0x0800415e:    f2c20000    ....    MOVT     r0,#0x2000
        0x08004162:    f000fa2d    ..-.    BL       _ZN3App3runEv ; 0x80045c0
        0x08004166:    bd80        ..      POP      {r7,pc}
    _Z5setupv
        0x08004168:    b580        ..      PUSH     {r7,lr}
        0x0800416a:    f001fd85    ....    BL       memory_init ; 0x8005c78
        0x0800416e:    f6442044    D.D     MOV      r0,#0x4a44
        0x08004172:    f2c20000    ....    MOVT     r0,#0x2000
        0x08004176:    210a        .!      MOVS     r1,#0xa
        0x08004178:    f001f822    ..".    BL       _ZN7Systick8delay_msEj ; 0x80051c0
        0x0800417c:    f6401084    @...    MOV      r0,#0x984
        0x08004180:    f2c20000    ....    MOVT     r0,#0x2000
        0x08004184:    3010        .0      ADDS     r0,r0,#0x10
        0x08004186:    f000fc59    ..Y.    BL       _ZN3Spi6configEv ; 0x8004a3c
        0x0800418a:    2830        0(      CMP      r0,#0x30
        0x0800418c:    d10d        ..      BNE      0x80041aa ; _Z5setupv + 66
        0x0800418e:    e7ff        ..      B        0x8004190 ; _Z5setupv + 40
        0x08004190:    f24801b8    H...    MOV      r1,#0x80b8
        0x08004194:    f6c00100    ....    MOVT     r1,#0x800
        0x08004198:    f24803a2    H...    MOV      r3,#0x80a2
        0x0800419c:    f6c00300    ....    MOVT     r3,#0x800
        0x080041a0:    2002        .       MOVS     r0,#2
        0x080041a2:    2212        ."      MOVS     r2,#0x12
        0x080041a4:    f001fce8    ....    BL       log_log ; 0x8005b78
        0x080041a8:    e00c        ..      B        0x80041c4 ; _Z5setupv + 92
        0x080041aa:    f24801b8    H...    MOV      r1,#0x80b8
        0x080041ae:    f6c00100    ....    MOVT     r1,#0x800
        0x080041b2:    f2480388    H...    MOV      r3,#0x8088
        0x080041b6:    f6c00300    ....    MOVT     r3,#0x800
        0x080041ba:    2002        .       MOVS     r0,#2
        0x080041bc:    2216        ."      MOVS     r2,#0x16
        0x080041be:    f001fcdb    ....    BL       log_log ; 0x8005b78
        0x080041c2:    e7ff        ..      B        0x80041c4 ; _Z5setupv + 92
        0x080041c4:    bd80        ..      POP      {r7,pc}
        0x080041c6:    0000        ..      MOVS     r0,r0
    _ZL14SysTick_Configj
        0x080041c8:    b580        ..      PUSH     {r7,lr}
        0x080041ca:    b082        ..      SUB      sp,sp,#8
        0x080041cc:    9000        ..      STR      r0,[sp,#0]
        0x080041ce:    9800        ..      LDR      r0,[sp,#0]
        0x080041d0:    3801        .8      SUBS     r0,#1
        0x080041d2:    f1b07f80    ....    CMP      r0,#0x1000000
        0x080041d6:    d303        ..      BCC      0x80041e0 ; _ZL14SysTick_Configj + 24
        0x080041d8:    e7ff        ..      B        0x80041da ; _ZL14SysTick_Configj + 18
        0x080041da:    2001        .       MOVS     r0,#1
        0x080041dc:    9001        ..      STR      r0,[sp,#4]
        0x080041de:    e019        ..      B        0x8004214 ; _ZL14SysTick_Configj + 76
        0x080041e0:    9800        ..      LDR      r0,[sp,#0]
        0x080041e2:    3801        .8      SUBS     r0,#1
        0x080041e4:    f24e0114    N...    MOV      r1,#0xe014
        0x080041e8:    f2ce0100    ....    MOVT     r1,#0xe000
        0x080041ec:    6008        .`      STR      r0,[r1,#0]
        0x080041ee:    f04f30ff    O..0    MOV      r0,#0xffffffff
        0x080041f2:    210f        .!      MOVS     r1,#0xf
        0x080041f4:    f000f812    ....    BL       _ZL18__NVIC_SetPriority4IRQnj ; 0x800421c
        0x080041f8:    f24e0118    N...    MOV      r1,#0xe018
        0x080041fc:    f2ce0100    ....    MOVT     r1,#0xe000
        0x08004200:    2000        .       MOVS     r0,#0
        0x08004202:    6008        .`      STR      r0,[r1,#0]
        0x08004204:    f24e0210    N...    MOV      r2,#0xe010
        0x08004208:    f2ce0200    ....    MOVT     r2,#0xe000
        0x0800420c:    2107        .!      MOVS     r1,#7
        0x0800420e:    6011        .`      STR      r1,[r2,#0]
        0x08004210:    9001        ..      STR      r0,[sp,#4]
        0x08004212:    e7ff        ..      B        0x8004214 ; _ZL14SysTick_Configj + 76
        0x08004214:    9801        ..      LDR      r0,[sp,#4]
        0x08004216:    b002        ..      ADD      sp,sp,#8
        0x08004218:    bd80        ..      POP      {r7,pc}
        0x0800421a:    0000        ..      MOVS     r0,r0
    _ZL18__NVIC_SetPriority4IRQnj
        0x0800421c:    b082        ..      SUB      sp,sp,#8
        0x0800421e:    f88d0007    ....    STRB     r0,[sp,#7]
        0x08004222:    9100        ..      STR      r1,[sp,#0]
        0x08004224:    f99d0007    ....    LDRSB    r0,[sp,#7]
        0x08004228:    2800        .(      CMP      r0,#0
        0x0800422a:    d40a        ..      BMI      0x8004242 ; _ZL18__NVIC_SetPriority4IRQnj + 38
        0x0800422c:    e7ff        ..      B        0x800422e ; _ZL18__NVIC_SetPriority4IRQnj + 18
        0x0800422e:    9800        ..      LDR      r0,[sp,#0]
        0x08004230:    0100        ..      LSLS     r0,r0,#4
        0x08004232:    f99d1007    ....    LDRSB    r1,[sp,#7]
        0x08004236:    f24e4200    N..B    MOVW     r2,#0xe400
        0x0800423a:    f2ce0200    ....    MOVT     r2,#0xe000
        0x0800423e:    5488        .T      STRB     r0,[r1,r2]
        0x08004240:    e00b        ..      B        0x800425a ; _ZL18__NVIC_SetPriority4IRQnj + 62
        0x08004242:    9800        ..      LDR      r0,[sp,#0]
        0x08004244:    0100        ..      LSLS     r0,r0,#4
        0x08004246:    f89d1007    ....    LDRB     r1,[sp,#7]
        0x0800424a:    f001010f    ....    AND      r1,r1,#0xf
        0x0800424e:    f64e5214    N..R    MOV      r2,#0xed14
        0x08004252:    f2ce0200    ....    MOVT     r2,#0xe000
        0x08004256:    5488        .T      STRB     r0,[r1,r2]
        0x08004258:    e7ff        ..      B        0x800425a ; _ZL18__NVIC_SetPriority4IRQnj + 62
        0x0800425a:    b002        ..      ADD      sp,sp,#8
        0x0800425c:    4770        pG      BX       lr
        0x0800425e:    0000        ..      MOVS     r0,r0
    _ZL18__NVIC_SystemResetv
        0x08004260:    f3bf8f4f    ..O.    DSB      
        0x08004264:    f64e510c    N..Q    MOV      r1,#0xed0c
        0x08004268:    f2ce0100    ....    MOVT     r1,#0xe000
        0x0800426c:    6808        .h      LDR      r0,[r1,#0]
        0x0800426e:    f40060e0    ...`    AND      r0,r0,#0x700
        0x08004272:    2204        ."      MOVS     r2,#4
        0x08004274:    f2c052fa    ...R    MOVT     r2,#0x5fa
        0x08004278:    4310        .C      ORRS     r0,r0,r2
        0x0800427a:    6008        .`      STR      r0,[r1,#0]
        0x0800427c:    f3bf8f4f    ..O.    DSB      
        0x08004280:    e7ff        ..      B        0x8004282 ; _ZL18__NVIC_SystemResetv + 34
        0x08004282:    bf00        ..      NOP      
        0x08004284:    e7fd        ..      B        0x8004282 ; _ZL18__NVIC_SystemResetv + 34
        0x08004286:    0000        ..      MOVS     r0,r0
    _ZN2Di8init_irqEv
        0x08004288:    b580        ..      PUSH     {r7,lr}
        0x0800428a:    b086        ..      SUB      sp,sp,#0x18
        0x0800428c:    9005        ..      STR      r0,[sp,#0x14]
        0x0800428e:    2000        .       MOVS     r0,#0
        0x08004290:    9000        ..      STR      r0,[sp,#0]
        0x08004292:    2109        .!      MOVS     r1,#9
        0x08004294:    f7fef964    ..d.    BL       GPIO_ConfigEXTILine ; 0x8002560
        0x08004298:    9800        ..      LDR      r0,[sp,#0]
        0x0800429a:    f44f7100    O..q    MOV      r1,#0x200
        0x0800429e:    9103        ..      STR      r1,[sp,#0xc]
        0x080042a0:    f88d0010    ....    STRB     r0,[sp,#0x10]
        0x080042a4:    200c        .       MOVS     r0,#0xc
        0x080042a6:    f88d0011    ....    STRB     r0,[sp,#0x11]
        0x080042aa:    2001        .       MOVS     r0,#1
        0x080042ac:    9001        ..      STR      r0,[sp,#4]
        0x080042ae:    f88d0012    ....    STRB     r0,[sp,#0x12]
        0x080042b2:    a803        ..      ADD      r0,sp,#0xc
        0x080042b4:    f7fef8de    ....    BL       EXTI_InitPeripheral ; 0x8002474
        0x080042b8:    f44f60e0    O..`    MOV      r0,#0x700
        0x080042bc:    f7fefb22    ..".    BL       NVIC_PriorityGroupConfig ; 0x8002904
        0x080042c0:    9900        ..      LDR      r1,[sp,#0]
        0x080042c2:    9801        ..      LDR      r0,[sp,#4]
        0x080042c4:    2217        ."      MOVS     r2,#0x17
        0x080042c6:    f88d2008    ...     STRB     r2,[sp,#8]
        0x080042ca:    f88d100a    ....    STRB     r1,[sp,#0xa]
        0x080042ce:    f88d000b    ....    STRB     r0,[sp,#0xb]
        0x080042d2:    a802        ..      ADD      r0,sp,#8
        0x080042d4:    f7fefac0    ....    BL       NVIC_Init ; 0x8002858
        0x080042d8:    b006        ..      ADD      sp,sp,#0x18
        0x080042da:    bd80        ..      POP      {r7,pc}
    _ZN2Di8init_pinEP11GPIO_Modulet
        0x080042dc:    b580        ..      PUSH     {r7,lr}
        0x080042de:    b086        ..      SUB      sp,sp,#0x18
        0x080042e0:    9005        ..      STR      r0,[sp,#0x14]
        0x080042e2:    9104        ..      STR      r1,[sp,#0x10]
        0x080042e4:    f8ad200e    ...     STRH     r2,[sp,#0xe]
        0x080042e8:    9805        ..      LDR      r0,[sp,#0x14]
        0x080042ea:    9001        ..      STR      r0,[sp,#4]
        0x080042ec:    9804        ..      LDR      r0,[sp,#0x10]
        0x080042ee:    f6400100    @...    MOVW     r1,#0x800
        0x080042f2:    f2c40101    ....    MOVT     r1,#0x4001
        0x080042f6:    4288        .B      CMP      r0,r1
        0x080042f8:    d105        ..      BNE      0x8004306 ; _ZN2Di8init_pinEP11GPIO_Modulet + 42
        0x080042fa:    e7ff        ..      B        0x80042fc ; _ZN2Di8init_pinEP11GPIO_Modulet + 32
        0x080042fc:    2004        .       MOVS     r0,#4
        0x080042fe:    2101        .!      MOVS     r1,#1
        0x08004300:    f7fefb58    ..X.    BL       RCC_EnableAPB2PeriphClk ; 0x80029b4
        0x08004304:    e054        T.      B        0x80043b0 ; _ZN2Di8init_pinEP11GPIO_Modulet + 212
        0x08004306:    9804        ..      LDR      r0,[sp,#0x10]
        0x08004308:    f6404100    @..A    MOVW     r1,#0xc00
        0x0800430c:    f2c40101    ....    MOVT     r1,#0x4001
        0x08004310:    4288        .B      CMP      r0,r1
        0x08004312:    d105        ..      BNE      0x8004320 ; _ZN2Di8init_pinEP11GPIO_Modulet + 68
        0x08004314:    e7ff        ..      B        0x8004316 ; _ZN2Di8init_pinEP11GPIO_Modulet + 58
        0x08004316:    2008        .       MOVS     r0,#8
        0x08004318:    2101        .!      MOVS     r1,#1
        0x0800431a:    f7fefb4b    ..K.    BL       RCC_EnableAPB2PeriphClk ; 0x80029b4
        0x0800431e:    e046        F.      B        0x80043ae ; _ZN2Di8init_pinEP11GPIO_Modulet + 210
        0x08004320:    9804        ..      LDR      r0,[sp,#0x10]
        0x08004322:    f2410100    A...    MOVW     r1,#0x1000
        0x08004326:    f2c40101    ....    MOVT     r1,#0x4001
        0x0800432a:    4288        .B      CMP      r0,r1
        0x0800432c:    d105        ..      BNE      0x800433a ; _ZN2Di8init_pinEP11GPIO_Modulet + 94
        0x0800432e:    e7ff        ..      B        0x8004330 ; _ZN2Di8init_pinEP11GPIO_Modulet + 84
        0x08004330:    2010        .       MOVS     r0,#0x10
        0x08004332:    2101        .!      MOVS     r1,#1
        0x08004334:    f7fefb3e    ..>.    BL       RCC_EnableAPB2PeriphClk ; 0x80029b4
        0x08004338:    e038        8.      B        0x80043ac ; _ZN2Di8init_pinEP11GPIO_Modulet + 208
        0x0800433a:    9804        ..      LDR      r0,[sp,#0x10]
        0x0800433c:    f2414100    A..A    MOVW     r1,#0x1400
        0x08004340:    f2c40101    ....    MOVT     r1,#0x4001
        0x08004344:    4288        .B      CMP      r0,r1
        0x08004346:    d105        ..      BNE      0x8004354 ; _ZN2Di8init_pinEP11GPIO_Modulet + 120
        0x08004348:    e7ff        ..      B        0x800434a ; _ZN2Di8init_pinEP11GPIO_Modulet + 110
        0x0800434a:    2020                MOVS     r0,#0x20
        0x0800434c:    2101        .!      MOVS     r1,#1
        0x0800434e:    f7fefb31    ..1.    BL       RCC_EnableAPB2PeriphClk ; 0x80029b4
        0x08004352:    e02a        *.      B        0x80043aa ; _ZN2Di8init_pinEP11GPIO_Modulet + 206
        0x08004354:    9804        ..      LDR      r0,[sp,#0x10]
        0x08004356:    f6410100    A...    MOVW     r1,#0x1800
        0x0800435a:    f2c40101    ....    MOVT     r1,#0x4001
        0x0800435e:    4288        .B      CMP      r0,r1
        0x08004360:    d105        ..      BNE      0x800436e ; _ZN2Di8init_pinEP11GPIO_Modulet + 146
        0x08004362:    e7ff        ..      B        0x8004364 ; _ZN2Di8init_pinEP11GPIO_Modulet + 136
        0x08004364:    2040        @       MOVS     r0,#0x40
        0x08004366:    2101        .!      MOVS     r1,#1
        0x08004368:    f7fefb24    ..$.    BL       RCC_EnableAPB2PeriphClk ; 0x80029b4
        0x0800436c:    e01c        ..      B        0x80043a8 ; _ZN2Di8init_pinEP11GPIO_Modulet + 204
        0x0800436e:    9804        ..      LDR      r0,[sp,#0x10]
        0x08004370:    f6414100    A..A    MOVW     r1,#0x1c00
        0x08004374:    f2c40101    ....    MOVT     r1,#0x4001
        0x08004378:    4288        .B      CMP      r0,r1
        0x0800437a:    d105        ..      BNE      0x8004388 ; _ZN2Di8init_pinEP11GPIO_Modulet + 172
        0x0800437c:    e7ff        ..      B        0x800437e ; _ZN2Di8init_pinEP11GPIO_Modulet + 162
        0x0800437e:    2080        .       MOVS     r0,#0x80
        0x08004380:    2101        .!      MOVS     r1,#1
        0x08004382:    f7fefb17    ....    BL       RCC_EnableAPB2PeriphClk ; 0x80029b4
        0x08004386:    e00e        ..      B        0x80043a6 ; _ZN2Di8init_pinEP11GPIO_Modulet + 202
        0x08004388:    9804        ..      LDR      r0,[sp,#0x10]
        0x0800438a:    f2420100    B...    MOVW     r1,#0x2000
        0x0800438e:    f2c40101    ....    MOVT     r1,#0x4001
        0x08004392:    4288        .B      CMP      r0,r1
        0x08004394:    d106        ..      BNE      0x80043a4 ; _ZN2Di8init_pinEP11GPIO_Modulet + 200
        0x08004396:    e7ff        ..      B        0x8004398 ; _ZN2Di8init_pinEP11GPIO_Modulet + 188
        0x08004398:    f44f7080    O..p    MOV      r0,#0x100
        0x0800439c:    2101        .!      MOVS     r1,#1
        0x0800439e:    f7fefb09    ....    BL       RCC_EnableAPB2PeriphClk ; 0x80029b4
        0x080043a2:    e7ff        ..      B        0x80043a4 ; _ZN2Di8init_pinEP11GPIO_Modulet + 200
        0x080043a4:    e7ff        ..      B        0x80043a6 ; _ZN2Di8init_pinEP11GPIO_Modulet + 202
        0x080043a6:    e7ff        ..      B        0x80043a8 ; _ZN2Di8init_pinEP11GPIO_Modulet + 204
        0x080043a8:    e7ff        ..      B        0x80043aa ; _ZN2Di8init_pinEP11GPIO_Modulet + 206
        0x080043aa:    e7ff        ..      B        0x80043ac ; _ZN2Di8init_pinEP11GPIO_Modulet + 208
        0x080043ac:    e7ff        ..      B        0x80043ae ; _ZN2Di8init_pinEP11GPIO_Modulet + 210
        0x080043ae:    e7ff        ..      B        0x80043b0 ; _ZN2Di8init_pinEP11GPIO_Modulet + 212
        0x080043b0:    f8bd000e    ....    LDRH     r0,[sp,#0xe]
        0x080043b4:    f5b03f80    ...?    CMP      r0,#0x10000
        0x080043b8:    da0f        ..      BGE      0x80043da ; _ZN2Di8init_pinEP11GPIO_Modulet + 254
        0x080043ba:    e7ff        ..      B        0x80043bc ; _ZN2Di8init_pinEP11GPIO_Modulet + 224
        0x080043bc:    f8bd000e    ....    LDRH     r0,[sp,#0xe]
        0x080043c0:    f8ad0008    ....    STRH     r0,[sp,#8]
        0x080043c4:    2048        H       MOVS     r0,#0x48
        0x080043c6:    f88d000b    ....    STRB     r0,[sp,#0xb]
        0x080043ca:    2003        .       MOVS     r0,#3
        0x080043cc:    f88d000a    ....    STRB     r0,[sp,#0xa]
        0x080043d0:    9804        ..      LDR      r0,[sp,#0x10]
        0x080043d2:    a902        ..      ADD      r1,sp,#8
        0x080043d4:    f7fef8ee    ....    BL       GPIO_InitPeripheral ; 0x80025b4
        0x080043d8:    e7ff        ..      B        0x80043da ; _ZN2Di8init_pinEP11GPIO_Modulet + 254
        0x080043da:    9901        ..      LDR      r1,[sp,#4]
        0x080043dc:    9804        ..      LDR      r0,[sp,#0x10]
        0x080043de:    6008        .`      STR      r0,[r1,#0]
        0x080043e0:    f8bd000e    ....    LDRH     r0,[sp,#0xe]
        0x080043e4:    8088        ..      STRH     r0,[r1,#4]
        0x080043e6:    b006        ..      ADD      sp,sp,#0x18
        0x080043e8:    bd80        ..      POP      {r7,pc}
        0x080043ea:    0000        ..      MOVS     r0,r0
    _ZN2DiC1Ev
    _ZN2DiC2Ev
        0x080043ec:    b081        ..      SUB      sp,sp,#4
        0x080043ee:    9000        ..      STR      r0,[sp,#0]
        0x080043f0:    9800        ..      LDR      r0,[sp,#0]
        0x080043f2:    b001        ..      ADD      sp,sp,#4
        0x080043f4:    4770        pG      BX       lr
        0x080043f6:    0000        ..      MOVS     r0,r0
    _ZN2DiD1Ev
    _ZN2DiD2Ev
        0x080043f8:    b081        ..      SUB      sp,sp,#4
        0x080043fa:    9000        ..      STR      r0,[sp,#0]
        0x080043fc:    9800        ..      LDR      r0,[sp,#0]
        0x080043fe:    b001        ..      ADD      sp,sp,#4
        0x08004400:    4770        pG      BX       lr
        0x08004402:    0000        ..      MOVS     r0,r0
    _ZN2Do3lowEv
        0x08004404:    b081        ..      SUB      sp,sp,#4
        0x08004406:    9000        ..      STR      r0,[sp,#0]
        0x08004408:    9900        ..      LDR      r1,[sp,#0]
        0x0800440a:    8888        ..      LDRH     r0,[r1,#4]
        0x0800440c:    6809        .h      LDR      r1,[r1,#0]
        0x0800440e:    6148        Ha      STR      r0,[r1,#0x14]
        0x08004410:    b001        ..      ADD      sp,sp,#4
        0x08004412:    4770        pG      BX       lr
    _ZN2Do4highEv
        0x08004414:    b081        ..      SUB      sp,sp,#4
        0x08004416:    9000        ..      STR      r0,[sp,#0]
        0x08004418:    9900        ..      LDR      r1,[sp,#0]
        0x0800441a:    8888        ..      LDRH     r0,[r1,#4]
        0x0800441c:    6809        .h      LDR      r1,[r1,#0]
        0x0800441e:    6108        .a      STR      r0,[r1,#0x10]
        0x08004420:    b001        ..      ADD      sp,sp,#4
        0x08004422:    4770        pG      BX       lr
    _ZN2Do8init_pinEP11GPIO_Modulet
        0x08004424:    b580        ..      PUSH     {r7,lr}
        0x08004426:    b086        ..      SUB      sp,sp,#0x18
        0x08004428:    9005        ..      STR      r0,[sp,#0x14]
        0x0800442a:    9104        ..      STR      r1,[sp,#0x10]
        0x0800442c:    f8ad200e    ...     STRH     r2,[sp,#0xe]
        0x08004430:    9805        ..      LDR      r0,[sp,#0x14]
        0x08004432:    9001        ..      STR      r0,[sp,#4]
        0x08004434:    9804        ..      LDR      r0,[sp,#0x10]
        0x08004436:    f6400100    @...    MOVW     r1,#0x800
        0x0800443a:    f2c40101    ....    MOVT     r1,#0x4001
        0x0800443e:    4288        .B      CMP      r0,r1
        0x08004440:    d105        ..      BNE      0x800444e ; _ZN2Do8init_pinEP11GPIO_Modulet + 42
        0x08004442:    e7ff        ..      B        0x8004444 ; _ZN2Do8init_pinEP11GPIO_Modulet + 32
        0x08004444:    2004        .       MOVS     r0,#4
        0x08004446:    2101        .!      MOVS     r1,#1
        0x08004448:    f7fefab4    ....    BL       RCC_EnableAPB2PeriphClk ; 0x80029b4
        0x0800444c:    e054        T.      B        0x80044f8 ; _ZN2Do8init_pinEP11GPIO_Modulet + 212
        0x0800444e:    9804        ..      LDR      r0,[sp,#0x10]
        0x08004450:    f6404100    @..A    MOVW     r1,#0xc00
        0x08004454:    f2c40101    ....    MOVT     r1,#0x4001
        0x08004458:    4288        .B      CMP      r0,r1
        0x0800445a:    d105        ..      BNE      0x8004468 ; _ZN2Do8init_pinEP11GPIO_Modulet + 68
        0x0800445c:    e7ff        ..      B        0x800445e ; _ZN2Do8init_pinEP11GPIO_Modulet + 58
        0x0800445e:    2008        .       MOVS     r0,#8
        0x08004460:    2101        .!      MOVS     r1,#1
        0x08004462:    f7fefaa7    ....    BL       RCC_EnableAPB2PeriphClk ; 0x80029b4
        0x08004466:    e046        F.      B        0x80044f6 ; _ZN2Do8init_pinEP11GPIO_Modulet + 210
        0x08004468:    9804        ..      LDR      r0,[sp,#0x10]
        0x0800446a:    f2410100    A...    MOVW     r1,#0x1000
        0x0800446e:    f2c40101    ....    MOVT     r1,#0x4001
        0x08004472:    4288        .B      CMP      r0,r1
        0x08004474:    d105        ..      BNE      0x8004482 ; _ZN2Do8init_pinEP11GPIO_Modulet + 94
        0x08004476:    e7ff        ..      B        0x8004478 ; _ZN2Do8init_pinEP11GPIO_Modulet + 84
        0x08004478:    2010        .       MOVS     r0,#0x10
        0x0800447a:    2101        .!      MOVS     r1,#1
        0x0800447c:    f7fefa9a    ....    BL       RCC_EnableAPB2PeriphClk ; 0x80029b4
        0x08004480:    e038        8.      B        0x80044f4 ; _ZN2Do8init_pinEP11GPIO_Modulet + 208
        0x08004482:    9804        ..      LDR      r0,[sp,#0x10]
        0x08004484:    f2414100    A..A    MOVW     r1,#0x1400
        0x08004488:    f2c40101    ....    MOVT     r1,#0x4001
        0x0800448c:    4288        .B      CMP      r0,r1
        0x0800448e:    d105        ..      BNE      0x800449c ; _ZN2Do8init_pinEP11GPIO_Modulet + 120
        0x08004490:    e7ff        ..      B        0x8004492 ; _ZN2Do8init_pinEP11GPIO_Modulet + 110
        0x08004492:    2020                MOVS     r0,#0x20
        0x08004494:    2101        .!      MOVS     r1,#1
        0x08004496:    f7fefa8d    ....    BL       RCC_EnableAPB2PeriphClk ; 0x80029b4
        0x0800449a:    e02a        *.      B        0x80044f2 ; _ZN2Do8init_pinEP11GPIO_Modulet + 206
        0x0800449c:    9804        ..      LDR      r0,[sp,#0x10]
        0x0800449e:    f6410100    A...    MOVW     r1,#0x1800
        0x080044a2:    f2c40101    ....    MOVT     r1,#0x4001
        0x080044a6:    4288        .B      CMP      r0,r1
        0x080044a8:    d105        ..      BNE      0x80044b6 ; _ZN2Do8init_pinEP11GPIO_Modulet + 146
        0x080044aa:    e7ff        ..      B        0x80044ac ; _ZN2Do8init_pinEP11GPIO_Modulet + 136
        0x080044ac:    2040        @       MOVS     r0,#0x40
        0x080044ae:    2101        .!      MOVS     r1,#1
        0x080044b0:    f7fefa80    ....    BL       RCC_EnableAPB2PeriphClk ; 0x80029b4
        0x080044b4:    e01c        ..      B        0x80044f0 ; _ZN2Do8init_pinEP11GPIO_Modulet + 204
        0x080044b6:    9804        ..      LDR      r0,[sp,#0x10]
        0x080044b8:    f6414100    A..A    MOVW     r1,#0x1c00
        0x080044bc:    f2c40101    ....    MOVT     r1,#0x4001
        0x080044c0:    4288        .B      CMP      r0,r1
        0x080044c2:    d105        ..      BNE      0x80044d0 ; _ZN2Do8init_pinEP11GPIO_Modulet + 172
        0x080044c4:    e7ff        ..      B        0x80044c6 ; _ZN2Do8init_pinEP11GPIO_Modulet + 162
        0x080044c6:    2080        .       MOVS     r0,#0x80
        0x080044c8:    2101        .!      MOVS     r1,#1
        0x080044ca:    f7fefa73    ..s.    BL       RCC_EnableAPB2PeriphClk ; 0x80029b4
        0x080044ce:    e00e        ..      B        0x80044ee ; _ZN2Do8init_pinEP11GPIO_Modulet + 202
        0x080044d0:    9804        ..      LDR      r0,[sp,#0x10]
        0x080044d2:    f2420100    B...    MOVW     r1,#0x2000
        0x080044d6:    f2c40101    ....    MOVT     r1,#0x4001
        0x080044da:    4288        .B      CMP      r0,r1
        0x080044dc:    d106        ..      BNE      0x80044ec ; _ZN2Do8init_pinEP11GPIO_Modulet + 200
        0x080044de:    e7ff        ..      B        0x80044e0 ; _ZN2Do8init_pinEP11GPIO_Modulet + 188
        0x080044e0:    f44f7080    O..p    MOV      r0,#0x100
        0x080044e4:    2101        .!      MOVS     r1,#1
        0x080044e6:    f7fefa65    ..e.    BL       RCC_EnableAPB2PeriphClk ; 0x80029b4
        0x080044ea:    e7ff        ..      B        0x80044ec ; _ZN2Do8init_pinEP11GPIO_Modulet + 200
        0x080044ec:    e7ff        ..      B        0x80044ee ; _ZN2Do8init_pinEP11GPIO_Modulet + 202
        0x080044ee:    e7ff        ..      B        0x80044f0 ; _ZN2Do8init_pinEP11GPIO_Modulet + 204
        0x080044f0:    e7ff        ..      B        0x80044f2 ; _ZN2Do8init_pinEP11GPIO_Modulet + 206
        0x080044f2:    e7ff        ..      B        0x80044f4 ; _ZN2Do8init_pinEP11GPIO_Modulet + 208
        0x080044f4:    e7ff        ..      B        0x80044f6 ; _ZN2Do8init_pinEP11GPIO_Modulet + 210
        0x080044f6:    e7ff        ..      B        0x80044f8 ; _ZN2Do8init_pinEP11GPIO_Modulet + 212
        0x080044f8:    f8bd000e    ....    LDRH     r0,[sp,#0xe]
        0x080044fc:    f5b03f80    ...?    CMP      r0,#0x10000
        0x08004500:    da0f        ..      BGE      0x8004522 ; _ZN2Do8init_pinEP11GPIO_Modulet + 254
        0x08004502:    e7ff        ..      B        0x8004504 ; _ZN2Do8init_pinEP11GPIO_Modulet + 224
        0x08004504:    f8bd000e    ....    LDRH     r0,[sp,#0xe]
        0x08004508:    f8ad0008    ....    STRH     r0,[sp,#8]
        0x0800450c:    2003        .       MOVS     r0,#3
        0x0800450e:    f88d000a    ....    STRB     r0,[sp,#0xa]
        0x08004512:    2010        .       MOVS     r0,#0x10
        0x08004514:    f88d000b    ....    STRB     r0,[sp,#0xb]
        0x08004518:    9804        ..      LDR      r0,[sp,#0x10]
        0x0800451a:    a902        ..      ADD      r1,sp,#8
        0x0800451c:    f7fef84a    ..J.    BL       GPIO_InitPeripheral ; 0x80025b4
        0x08004520:    e7ff        ..      B        0x8004522 ; _ZN2Do8init_pinEP11GPIO_Modulet + 254
        0x08004522:    9901        ..      LDR      r1,[sp,#4]
        0x08004524:    9804        ..      LDR      r0,[sp,#0x10]
        0x08004526:    6008        .`      STR      r0,[r1,#0]
        0x08004528:    f8bd000e    ....    LDRH     r0,[sp,#0xe]
        0x0800452c:    8088        ..      STRH     r0,[r1,#4]
        0x0800452e:    b006        ..      ADD      sp,sp,#0x18
        0x08004530:    bd80        ..      POP      {r7,pc}
        0x08004532:    0000        ..      MOVS     r0,r0
    _ZN2DoC1Ev
    _ZN2DoC2Ev
        0x08004534:    b081        ..      SUB      sp,sp,#4
        0x08004536:    9000        ..      STR      r0,[sp,#0]
        0x08004538:    9800        ..      LDR      r0,[sp,#0]
        0x0800453a:    b001        ..      ADD      sp,sp,#4
        0x0800453c:    4770        pG      BX       lr
        0x0800453e:    0000        ..      MOVS     r0,r0
    _ZN2DoD1Ev
    _ZN2DoD2Ev
        0x08004540:    b081        ..      SUB      sp,sp,#4
        0x08004542:    9000        ..      STR      r0,[sp,#0]
        0x08004544:    9800        ..      LDR      r0,[sp,#0]
        0x08004546:    b001        ..      ADD      sp,sp,#4
        0x08004548:    4770        pG      BX       lr
        0x0800454a:    0000        ..      MOVS     r0,r0
    _ZN3App12idle_processEv
        0x0800454c:    b580        ..      PUSH     {r7,lr}
        0x0800454e:    b082        ..      SUB      sp,sp,#8
        0x08004550:    9001        ..      STR      r0,[sp,#4]
        0x08004552:    9801        ..      LDR      r0,[sp,#4]
        0x08004554:    9000        ..      STR      r0,[sp,#0]
        0x08004556:    f6401084    @...    MOV      r0,#0x984
        0x0800455a:    f2c20000    ....    MOVT     r0,#0x2000
        0x0800455e:    3010        .0      ADDS     r0,r0,#0x10
        0x08004560:    f000f98e    ....    BL       _ZN3Spi13MS1030_TemperEv ; 0x8004880
        0x08004564:    9900        ..      LDR      r1,[sp,#0]
        0x08004566:    7848        Hx      LDRB     r0,[r1,#1]
        0x08004568:    7008        .p      STRB     r0,[r1,#0]
        0x0800456a:    2000        .       MOVS     r0,#0
        0x0800456c:    7048        Hp      STRB     r0,[r1,#1]
        0x0800456e:    b002        ..      ADD      sp,sp,#8
        0x08004570:    bd80        ..      POP      {r7,pc}
        0x08004572:    0000        ..      MOVS     r0,r0
    _ZN3App12uart_processEv
        0x08004574:    b081        ..      SUB      sp,sp,#4
        0x08004576:    9000        ..      STR      r0,[sp,#0]
        0x08004578:    9900        ..      LDR      r1,[sp,#0]
        0x0800457a:    7848        Hx      LDRB     r0,[r1,#1]
        0x0800457c:    7008        .p      STRB     r0,[r1,#0]
        0x0800457e:    b001        ..      ADD      sp,sp,#4
        0x08004580:    4770        pG      BX       lr
        0x08004582:    0000        ..      MOVS     r0,r0
    _ZN3App13error_processEv
        0x08004584:    b580        ..      PUSH     {r7,lr}
        0x08004586:    b082        ..      SUB      sp,sp,#8
        0x08004588:    9001        ..      STR      r0,[sp,#4]
        0x0800458a:    e7ff        ..      B        0x800458c ; _ZN3App13error_processEv + 8
        0x0800458c:    f2481176    H.v.    MOV      r1,#0x8176
        0x08004590:    f6c00100    ....    MOVT     r1,#0x800
        0x08004594:    2000        .       MOVS     r0,#0
        0x08004596:    f7fefbdd    ....    BL       SEGGER_RTT_printf ; 0x8002d54
        0x0800459a:    e7ff        ..      B        0x800459c ; _ZN3App13error_processEv + 24
        0x0800459c:    f2481076    H.v.    MOV      r0,#0x8176
        0x080045a0:    f6c00000    ....    MOVT     r0,#0x800
        0x080045a4:    f7fbfef2    ....    BL       printf ; 0x800038c
        0x080045a8:    b002        ..      ADD      sp,sp,#8
        0x080045aa:    bd80        ..      POP      {r7,pc}
    _ZN3App16sent_sample_dataEv
        0x080045ac:    b081        ..      SUB      sp,sp,#4
        0x080045ae:    9000        ..      STR      r0,[sp,#0]
        0x080045b0:    9900        ..      LDR      r1,[sp,#0]
        0x080045b2:    2001        .       MOVS     r0,#1
        0x080045b4:    7008        .p      STRB     r0,[r1,#0]
        0x080045b6:    2002        .       MOVS     r0,#2
        0x080045b8:    7048        Hp      STRB     r0,[r1,#1]
        0x080045ba:    b001        ..      ADD      sp,sp,#4
        0x080045bc:    4770        pG      BX       lr
        0x080045be:    0000        ..      MOVS     r0,r0
    _ZN3App3runEv
        0x080045c0:    b580        ..      PUSH     {r7,lr}
        0x080045c2:    b084        ..      SUB      sp,sp,#0x10
        0x080045c4:    9003        ..      STR      r0,[sp,#0xc]
        0x080045c6:    9803        ..      LDR      r0,[sp,#0xc]
        0x080045c8:    9001        ..      STR      r0,[sp,#4]
        0x080045ca:    7800        .x      LDRB     r0,[r0,#0]
        0x080045cc:    4601        .F      MOV      r1,r0
        0x080045ce:    9102        ..      STR      r1,[sp,#8]
        0x080045d0:    2803        .(      CMP      r0,#3
        0x080045d2:    d814        ..      BHI      0x80045fe ; _ZN3App3runEv + 62
        0x080045d4:    9902        ..      LDR      r1,[sp,#8]
        0x080045d6:    e8dff001    ....    TBB      [pc,r1]
    $d.3
        0x080045da:    0a02        ..      DCW    2562
        0x080045dc:    0e06        ..      DCW    3590
    $t.4
        0x080045de:    9801        ..      LDR      r0,[sp,#4]
        0x080045e0:    f7ffffe4    ....    BL       _ZN3App16sent_sample_dataEv ; 0x80045ac
        0x080045e4:    e00f        ..      B        0x8004606 ; _ZN3App3runEv + 70
        0x080045e6:    9801        ..      LDR      r0,[sp,#4]
        0x080045e8:    f7ffffc4    ....    BL       _ZN3App12uart_processEv ; 0x8004574
        0x080045ec:    e00b        ..      B        0x8004606 ; _ZN3App3runEv + 70
        0x080045ee:    9801        ..      LDR      r0,[sp,#4]
        0x080045f0:    f7ffffac    ....    BL       _ZN3App12idle_processEv ; 0x800454c
        0x080045f4:    e007        ..      B        0x8004606 ; _ZN3App3runEv + 70
        0x080045f6:    9801        ..      LDR      r0,[sp,#4]
        0x080045f8:    f7ffffc4    ....    BL       _ZN3App13error_processEv ; 0x8004584
        0x080045fc:    e003        ..      B        0x8004606 ; _ZN3App3runEv + 70
        0x080045fe:    9801        ..      LDR      r0,[sp,#4]
        0x08004600:    f7ffffc0    ....    BL       _ZN3App13error_processEv ; 0x8004584
        0x08004604:    e7ff        ..      B        0x8004606 ; _ZN3App3runEv + 70
        0x08004606:    b004        ..      ADD      sp,sp,#0x10
        0x08004608:    bd80        ..      POP      {r7,pc}
        0x0800460a:    0000        ..      MOVS     r0,r0
    _ZN3AppC1Ev
    _ZN3AppC2Ev
        0x0800460c:    b081        ..      SUB      sp,sp,#4
        0x0800460e:    9000        ..      STR      r0,[sp,#0]
        0x08004610:    9800        ..      LDR      r0,[sp,#0]
        0x08004612:    2100        .!      MOVS     r1,#0
        0x08004614:    7001        .p      STRB     r1,[r0,#0]
        0x08004616:    7041        Ap      STRB     r1,[r0,#1]
        0x08004618:    b001        ..      ADD      sp,sp,#4
        0x0800461a:    4770        pG      BX       lr
    _ZN3AppD1Ev
    _ZN3AppD2Ev
        0x0800461c:    b081        ..      SUB      sp,sp,#4
        0x0800461e:    9000        ..      STR      r0,[sp,#0]
        0x08004620:    9800        ..      LDR      r0,[sp,#0]
        0x08004622:    b001        ..      ADD      sp,sp,#4
        0x08004624:    4770        pG      BX       lr
        0x08004626:    0000        ..      MOVS     r0,r0
    _ZN3Clk11print_clockEv
        0x08004628:    b580        ..      PUSH     {r7,lr}
        0x0800462a:    b088        ..      SUB      sp,sp,#0x20
        0x0800462c:    9007        ..      STR      r0,[sp,#0x1c]
        0x0800462e:    a801        ..      ADD      r0,sp,#4
        0x08004630:    f7fef9dc    ....    BL       RCC_GetClocksFreqValue ; 0x80029ec
        0x08004634:    e7ff        ..      B        0x8004636 ; _ZN3Clk11print_clockEv + 14
        0x08004636:    9a01        ..      LDR      r2,[sp,#4]
        0x08004638:    f24801ee    H...    MOV      r1,#0x80ee
        0x0800463c:    f6c00100    ....    MOVT     r1,#0x800
        0x08004640:    2000        .       MOVS     r0,#0
        0x08004642:    f7fefb87    ....    BL       SEGGER_RTT_printf ; 0x8002d54
        0x08004646:    e7ff        ..      B        0x8004648 ; _ZN3Clk11print_clockEv + 32
        0x08004648:    e7ff        ..      B        0x800464a ; _ZN3Clk11print_clockEv + 34
        0x0800464a:    9a02        ..      LDR      r2,[sp,#8]
        0x0800464c:    f24801e3    H...    MOV      r1,#0x80e3
        0x08004650:    f6c00100    ....    MOVT     r1,#0x800
        0x08004654:    2000        .       MOVS     r0,#0
        0x08004656:    f7fefb7d    ..}.    BL       SEGGER_RTT_printf ; 0x8002d54
        0x0800465a:    e7ff        ..      B        0x800465c ; _ZN3Clk11print_clockEv + 52
        0x0800465c:    e7ff        ..      B        0x800465e ; _ZN3Clk11print_clockEv + 54
        0x0800465e:    9a03        ..      LDR      r2,[sp,#0xc]
        0x08004660:    f24801cb    H...    MOV      r1,#0x80cb
        0x08004664:    f6c00100    ....    MOVT     r1,#0x800
        0x08004668:    2000        .       MOVS     r0,#0
        0x0800466a:    f7fefb73    ..s.    BL       SEGGER_RTT_printf ; 0x8002d54
        0x0800466e:    e7ff        ..      B        0x8004670 ; _ZN3Clk11print_clockEv + 72
        0x08004670:    e7ff        ..      B        0x8004672 ; _ZN3Clk11print_clockEv + 74
        0x08004672:    9a04        ..      LDR      r2,[sp,#0x10]
        0x08004674:    f24801d7    H...    MOV      r1,#0x80d7
        0x08004678:    f6c00100    ....    MOVT     r1,#0x800
        0x0800467c:    2000        .       MOVS     r0,#0
        0x0800467e:    f7fefb69    ..i.    BL       SEGGER_RTT_printf ; 0x8002d54
        0x08004682:    e7ff        ..      B        0x8004684 ; _ZN3Clk11print_clockEv + 92
        0x08004684:    b008        ..      ADD      sp,sp,#0x20
        0x08004686:    bd80        ..      POP      {r7,pc}
    _ZN3ClkC1Ev
    _ZN3ClkC2Ev
        0x08004688:    b580        ..      PUSH     {r7,lr}
        0x0800468a:    b084        ..      SUB      sp,sp,#0x10
        0x0800468c:    9003        ..      STR      r0,[sp,#0xc]
        0x0800468e:    9803        ..      LDR      r0,[sp,#0xc]
        0x08004690:    9002        ..      STR      r0,[sp,#8]
        0x08004692:    f44f60a0    O..`    MOV      r0,#0x500
        0x08004696:    f7fef943    ..C.    BL       RCC_ConfigPclk1 ; 0x8002920
        0x0800469a:    f44f6080    O..`    MOV      r0,#0x400
        0x0800469e:    f7fef955    ..U.    BL       RCC_ConfigPclk2 ; 0x800294c
        0x080046a2:    2004        .       MOVS     r0,#4
        0x080046a4:    2101        .!      MOVS     r1,#1
        0x080046a6:    9101        ..      STR      r1,[sp,#4]
        0x080046a8:    f7fef984    ....    BL       RCC_EnableAPB2PeriphClk ; 0x80029b4
        0x080046ac:    9901        ..      LDR      r1,[sp,#4]
        0x080046ae:    2008        .       MOVS     r0,#8
        0x080046b0:    f7fef980    ....    BL       RCC_EnableAPB2PeriphClk ; 0x80029b4
        0x080046b4:    9901        ..      LDR      r1,[sp,#4]
        0x080046b6:    2010        .       MOVS     r0,#0x10
        0x080046b8:    f7fef97c    ..|.    BL       RCC_EnableAPB2PeriphClk ; 0x80029b4
        0x080046bc:    9901        ..      LDR      r1,[sp,#4]
        0x080046be:    f44f2080    O..     MOV      r0,#0x40000
        0x080046c2:    f7fef95b    ..[.    BL       RCC_EnableAPB1PeriphClk ; 0x800297c
        0x080046c6:    9901        ..      LDR      r1,[sp,#4]
        0x080046c8:    4608        .F      MOV      r0,r1
        0x080046ca:    f7fef973    ..s.    BL       RCC_EnableAPB2PeriphClk ; 0x80029b4
        0x080046ce:    9901        ..      LDR      r1,[sp,#4]
        0x080046d0:    f44f6000    O..`    MOV      r0,#0x800
        0x080046d4:    f7fef96e    ..n.    BL       RCC_EnableAPB2PeriphClk ; 0x80029b4
        0x080046d8:    9901        ..      LDR      r1,[sp,#4]
        0x080046da:    4608        .F      MOV      r0,r1
        0x080046dc:    f7fef94e    ..N.    BL       RCC_EnableAPB1PeriphClk ; 0x800297c
        0x080046e0:    9901        ..      LDR      r1,[sp,#4]
        0x080046e2:    2002        .       MOVS     r0,#2
        0x080046e4:    f7fef94a    ..J.    BL       RCC_EnableAPB1PeriphClk ; 0x800297c
        0x080046e8:    9901        ..      LDR      r1,[sp,#4]
        0x080046ea:    f44f5080    O..P    MOV      r0,#0x1000
        0x080046ee:    f7fef961    ..a.    BL       RCC_EnableAPB2PeriphClk ; 0x80029b4
        0x080046f2:    9802        ..      LDR      r0,[sp,#8]
        0x080046f4:    f7ffff98    ....    BL       _ZN3Clk11print_clockEv ; 0x8004628
        0x080046f8:    9802        ..      LDR      r0,[sp,#8]
        0x080046fa:    b004        ..      ADD      sp,sp,#0x10
        0x080046fc:    bd80        ..      POP      {r7,pc}
        0x080046fe:    0000        ..      MOVS     r0,r0
    _ZN3ClkD1Ev
    _ZN3ClkD2Ev
        0x08004700:    b081        ..      SUB      sp,sp,#4
        0x08004702:    9000        ..      STR      r0,[sp,#0]
        0x08004704:    9800        ..      LDR      r0,[sp,#0]
        0x08004706:    b001        ..      ADD      sp,sp,#4
        0x08004708:    4770        pG      BX       lr
        0x0800470a:    0000        ..      MOVS     r0,r0
    _ZN3Rtt4initEv
        0x0800470c:    b580        ..      PUSH     {r7,lr}
        0x0800470e:    b082        ..      SUB      sp,sp,#8
        0x08004710:    9001        ..      STR      r0,[sp,#4]
        0x08004712:    9a01        ..      LDR      r2,[sp,#4]
        0x08004714:    4669        iF      MOV      r1,sp
        0x08004716:    2000        .       MOVS     r0,#0
        0x08004718:    6008        .`      STR      r0,[r1,#0]
        0x0800471a:    f2481162    H.b.    MOV      r1,#0x8162
        0x0800471e:    f6c00100    ....    MOVT     r1,#0x800
        0x08004722:    2001        .       MOVS     r0,#1
        0x08004724:    f44f4380    O..C    MOV      r3,#0x4000
        0x08004728:    f7fefa42    ..B.    BL       SEGGER_RTT_ConfigUpBuffer ; 0x8002bb0
        0x0800472c:    f7fefa90    ....    BL       SEGGER_RTT_Init ; 0x8002c50
        0x08004730:    e7ff        ..      B        0x8004732 ; _ZN3Rtt4initEv + 38
        0x08004732:    f248112f    H./.    MOV      r1,#0x812f
        0x08004736:    f6c00100    ....    MOVT     r1,#0x800
        0x0800473a:    f248126e    H.n.    MOV      r2,#0x816e
        0x0800473e:    f6c00200    ....    MOVT     r2,#0x800
        0x08004742:    f2485309    H..S    MOV      r3,#0x8509
        0x08004746:    f6c00300    ....    MOVT     r3,#0x800
        0x0800474a:    2000        .       MOVS     r0,#0
        0x0800474c:    f7fefb02    ....    BL       SEGGER_RTT_printf ; 0x8002d54
        0x08004750:    e7ff        ..      B        0x8004752 ; _ZN3Rtt4initEv + 70
        0x08004752:    e7ff        ..      B        0x8004754 ; _ZN3Rtt4initEv + 72
        0x08004754:    f2481118    H...    MOV      r1,#0x8118
        0x08004758:    f6c00100    ....    MOVT     r1,#0x800
        0x0800475c:    f248124d    H.M.    MOV      r2,#0x814d
        0x08004760:    f6c00200    ....    MOVT     r2,#0x800
        0x08004764:    f2481359    H.Y.    MOV      r3,#0x8159
        0x08004768:    f6c00300    ....    MOVT     r3,#0x800
        0x0800476c:    2000        .       MOVS     r0,#0
        0x0800476e:    f7fefaf1    ....    BL       SEGGER_RTT_printf ; 0x8002d54
        0x08004772:    e7ff        ..      B        0x8004774 ; _ZN3Rtt4initEv + 104
        0x08004774:    e7ff        ..      B        0x8004776 ; _ZN3Rtt4initEv + 106
        0x08004776:    f24801fb    H...    MOV      r1,#0x80fb
        0x0800477a:    f6c00100    ....    MOVT     r1,#0x800
        0x0800477e:    2000        .       MOVS     r0,#0
        0x08004780:    f7fefae8    ....    BL       SEGGER_RTT_printf ; 0x8002d54
        0x08004784:    e7ff        ..      B        0x8004786 ; _ZN3Rtt4initEv + 122
        0x08004786:    b002        ..      ADD      sp,sp,#8
        0x08004788:    bd80        ..      POP      {r7,pc}
        0x0800478a:    0000        ..      MOVS     r0,r0
    _ZN3RttC1Ev
    _ZN3RttC2Ev
        0x0800478c:    b580        ..      PUSH     {r7,lr}
        0x0800478e:    b082        ..      SUB      sp,sp,#8
        0x08004790:    9001        ..      STR      r0,[sp,#4]
        0x08004792:    9801        ..      LDR      r0,[sp,#4]
        0x08004794:    9000        ..      STR      r0,[sp,#0]
        0x08004796:    f7ffffb9    ....    BL       _ZN3Rtt4initEv ; 0x800470c
        0x0800479a:    9800        ..      LDR      r0,[sp,#0]
        0x0800479c:    b002        ..      ADD      sp,sp,#8
        0x0800479e:    bd80        ..      POP      {r7,pc}
    _ZN3RttD1Ev
    _ZN3RttD2Ev
        0x080047a0:    b081        ..      SUB      sp,sp,#4
        0x080047a2:    9000        ..      STR      r0,[sp,#0]
        0x080047a4:    9800        ..      LDR      r0,[sp,#0]
        0x080047a6:    b001        ..      ADD      sp,sp,#4
        0x080047a8:    4770        pG      BX       lr
        0x080047aa:    0000        ..      MOVS     r0,r0
    _ZN3Spi11Read_REG0_LEv
        0x080047ac:    b580        ..      PUSH     {r7,lr}
        0x080047ae:    b084        ..      SUB      sp,sp,#0x10
        0x080047b0:    9003        ..      STR      r0,[sp,#0xc]
        0x080047b2:    9803        ..      LDR      r0,[sp,#0xc]
        0x080047b4:    9001        ..      STR      r0,[sp,#4]
        0x080047b6:    2100        .!      MOVS     r1,#0
        0x080047b8:    f88d100b    ....    STRB     r1,[sp,#0xb]
        0x080047bc:    f7fffe22    ..".    BL       _ZN2Do3lowEv ; 0x8004404
        0x080047c0:    9801        ..      LDR      r0,[sp,#4]
        0x080047c2:    21d3        .!      MOVS     r1,#0xd3
        0x080047c4:    f000fb1c    ....    BL       _ZN3Spi6write8Eh ; 0x8004e00
        0x080047c8:    9801        ..      LDR      r0,[sp,#4]
        0x080047ca:    f000f8dd    ....    BL       _ZN3Spi5read8Ev ; 0x8004988
        0x080047ce:    4601        .F      MOV      r1,r0
        0x080047d0:    9801        ..      LDR      r0,[sp,#4]
        0x080047d2:    f88d100b    ....    STRB     r1,[sp,#0xb]
        0x080047d6:    f7fffe1d    ....    BL       _ZN2Do4highEv ; 0x8004414
        0x080047da:    f89d000b    ....    LDRB     r0,[sp,#0xb]
        0x080047de:    b004        ..      ADD      sp,sp,#0x10
        0x080047e0:    bd80        ..      POP      {r7,pc}
        0x080047e2:    0000        ..      MOVS     r0,r0
    _ZN3Spi11Write_OrderEh
        0x080047e4:    b580        ..      PUSH     {r7,lr}
        0x080047e6:    b084        ..      SUB      sp,sp,#0x10
        0x080047e8:    9003        ..      STR      r0,[sp,#0xc]
        0x080047ea:    f88d100b    ....    STRB     r1,[sp,#0xb]
        0x080047ee:    9803        ..      LDR      r0,[sp,#0xc]
        0x080047f0:    9001        ..      STR      r0,[sp,#4]
        0x080047f2:    f7fffe07    ....    BL       _ZN2Do3lowEv ; 0x8004404
        0x080047f6:    9801        ..      LDR      r0,[sp,#4]
        0x080047f8:    f89d100b    ....    LDRB     r1,[sp,#0xb]
        0x080047fc:    f000fb00    ....    BL       _ZN3Spi6write8Eh ; 0x8004e00
        0x08004800:    9801        ..      LDR      r0,[sp,#4]
        0x08004802:    f7fffe07    ....    BL       _ZN2Do4highEv ; 0x8004414
        0x08004806:    b004        ..      ADD      sp,sp,#0x10
        0x08004808:    bd80        ..      POP      {r7,pc}
        0x0800480a:    0000        ..      MOVS     r0,r0
    _ZN3Spi11init_ss_pinEv
        0x0800480c:    b580        ..      PUSH     {r7,lr}
        0x0800480e:    b082        ..      SUB      sp,sp,#8
        0x08004810:    9001        ..      STR      r0,[sp,#4]
        0x08004812:    9801        ..      LDR      r0,[sp,#4]
        0x08004814:    9000        ..      STR      r0,[sp,#0]
        0x08004816:    f6400100    @...    MOVW     r1,#0x800
        0x0800481a:    f2c40101    ....    MOVT     r1,#0x4001
        0x0800481e:    2210        ."      MOVS     r2,#0x10
        0x08004820:    f7fffe00    ....    BL       _ZN2Do8init_pinEP11GPIO_Modulet ; 0x8004424
        0x08004824:    9800        ..      LDR      r0,[sp,#0]
        0x08004826:    f7fffdf5    ....    BL       _ZN2Do4highEv ; 0x8004414
        0x0800482a:    b002        ..      ADD      sp,sp,#8
        0x0800482c:    bd80        ..      POP      {r7,pc}
        0x0800482e:    0000        ..      MOVS     r0,r0
    _ZN3Spi12init_int_pinEv
        0x08004830:    b580        ..      PUSH     {r7,lr}
        0x08004832:    b082        ..      SUB      sp,sp,#8
        0x08004834:    9001        ..      STR      r0,[sp,#4]
        0x08004836:    9801        ..      LDR      r0,[sp,#4]
        0x08004838:    3010        .0      ADDS     r0,r0,#0x10
        0x0800483a:    9000        ..      STR      r0,[sp,#0]
        0x0800483c:    f6400100    @...    MOVW     r1,#0x800
        0x08004840:    f2c40101    ....    MOVT     r1,#0x4001
        0x08004844:    f44f7200    O..r    MOV      r2,#0x200
        0x08004848:    f7fffd48    ..H.    BL       _ZN2Di8init_pinEP11GPIO_Modulet ; 0x80042dc
        0x0800484c:    9800        ..      LDR      r0,[sp,#0]
        0x0800484e:    f7fffd1b    ....    BL       _ZN2Di8init_irqEv ; 0x8004288
        0x08004852:    b002        ..      ADD      sp,sp,#8
        0x08004854:    bd80        ..      POP      {r7,pc}
        0x08004856:    0000        ..      MOVS     r0,r0
    _ZN3Spi12init_rst_pinEv
        0x08004858:    b580        ..      PUSH     {r7,lr}
        0x0800485a:    b082        ..      SUB      sp,sp,#8
        0x0800485c:    9001        ..      STR      r0,[sp,#4]
        0x0800485e:    9801        ..      LDR      r0,[sp,#4]
        0x08004860:    3008        .0      ADDS     r0,r0,#8
        0x08004862:    9000        ..      STR      r0,[sp,#0]
        0x08004864:    f6400100    @...    MOVW     r1,#0x800
        0x08004868:    f2c40101    ....    MOVT     r1,#0x4001
        0x0800486c:    f44f6280    O..b    MOV      r2,#0x400
        0x08004870:    f7fffdd8    ....    BL       _ZN2Do8init_pinEP11GPIO_Modulet ; 0x8004424
        0x08004874:    9800        ..      LDR      r0,[sp,#0]
        0x08004876:    f7fffdcd    ....    BL       _ZN2Do4highEv ; 0x8004414
        0x0800487a:    b002        ..      ADD      sp,sp,#8
        0x0800487c:    bd80        ..      POP      {r7,pc}
        0x0800487e:    0000        ..      MOVS     r0,r0
    _ZN3Spi13MS1030_TemperEv
        0x08004880:    b580        ..      PUSH     {r7,lr}
        0x08004882:    b092        ..      SUB      sp,sp,#0x48
        0x08004884:    9011        ..      STR      r0,[sp,#0x44]
        0x08004886:    9811        ..      LDR      r0,[sp,#0x44]
        0x08004888:    9009        ..      STR      r0,[sp,#0x24]
        0x0800488a:    2100        .!      MOVS     r1,#0
        0x0800488c:    f8ad1042    ..B.    STRH     r1,[sp,#0x42]
        0x08004890:    910f        ..      STR      r1,[sp,#0x3c]
        0x08004892:    910e        ..      STR      r1,[sp,#0x38]
        0x08004894:    910d        ..      STR      r1,[sp,#0x34]
        0x08004896:    910c        ..      STR      r1,[sp,#0x30]
        0x08004898:    f88d102f    ../.    STRB     r1,[sp,#0x2f]
        0x0800489c:    910a        ..      STR      r1,[sp,#0x28]
        0x0800489e:    2170        p!      MOVS     r1,#0x70
        0x080048a0:    f7ffffa0    ....    BL       _ZN3Spi11Write_OrderEh ; 0x80047e4
        0x080048a4:    9809        ..      LDR      r0,[sp,#0x24]
        0x080048a6:    2104        .!      MOVS     r1,#4
        0x080048a8:    f7ffff9c    ....    BL       _ZN3Spi11Write_OrderEh ; 0x80047e4
        0x080048ac:    e7ff        ..      B        0x80048ae ; _ZN3Spi13MS1030_TemperEv + 46
        0x080048ae:    f2403030    @.00    MOVW     r0,#0x330
        0x080048b2:    f2c20000    ....    MOVT     r0,#0x2000
        0x080048b6:    7800        .x      LDRB     r0,[r0,#0]
        0x080048b8:    b908        ..      CBNZ     r0,0x80048be ; _ZN3Spi13MS1030_TemperEv + 62
        0x080048ba:    e7ff        ..      B        0x80048bc ; _ZN3Spi13MS1030_TemperEv + 60
        0x080048bc:    e7f7        ..      B        0x80048ae ; _ZN3Spi13MS1030_TemperEv + 46
        0x080048be:    9809        ..      LDR      r0,[sp,#0x24]
        0x080048c0:    f2403230    @.02    MOVW     r2,#0x330
        0x080048c4:    f2c20200    ....    MOVT     r2,#0x2000
        0x080048c8:    2100        .!      MOVS     r1,#0
        0x080048ca:    9108        ..      STR      r1,[sp,#0x20]
        0x080048cc:    7011        .p      STRB     r1,[r2,#0]
        0x080048ce:    f000fb41    ..A.    BL       _ZN3Spi9Read_STATEv ; 0x8004f54
        0x080048d2:    4601        .F      MOV      r1,r0
        0x080048d4:    9808        ..      LDR      r0,[sp,#0x20]
        0x080048d6:    f8ad1042    ..B.    STRH     r1,[sp,#0x42]
        0x080048da:    f88d002f    ../.    STRB     r0,[sp,#0x2f]
        0x080048de:    e7ff        ..      B        0x80048e0 ; _ZN3Spi13MS1030_TemperEv + 96
        0x080048e0:    f89d002f    ../.    LDRB     r0,[sp,#0x2f]
        0x080048e4:    2803        .(      CMP      r0,#3
        0x080048e6:    dc13        ..      BGT      0x8004910 ; _ZN3Spi13MS1030_TemperEv + 144
        0x080048e8:    e7ff        ..      B        0x80048ea ; _ZN3Spi13MS1030_TemperEv + 106
        0x080048ea:    9809        ..      LDR      r0,[sp,#0x24]
        0x080048ec:    f89d102f    ../.    LDRB     r1,[sp,#0x2f]
        0x080048f0:    31c2        .1      ADDS     r1,r1,#0xc2
        0x080048f2:    b2c9        ..      UXTB     r1,r1
        0x080048f4:    f000faaa    ....    BL       _ZN3Spi8Read_RegEh ; 0x8004e4c
        0x080048f8:    f89d202f    ../     LDRB     r2,[sp,#0x2f]
        0x080048fc:    a90c        ..      ADD      r1,sp,#0x30
        0x080048fe:    f8410022    A.".    STR      r0,[r1,r2,LSL #2]
        0x08004902:    e7ff        ..      B        0x8004904 ; _ZN3Spi13MS1030_TemperEv + 132
        0x08004904:    f89d002f    ../.    LDRB     r0,[sp,#0x2f]
        0x08004908:    3001        .0      ADDS     r0,#1
        0x0800490a:    f88d002f    ../.    STRB     r0,[sp,#0x2f]
        0x0800490e:    e7e7        ..      B        0x80048e0 ; _ZN3Spi13MS1030_TemperEv + 96
        0x08004910:    f8bd0036    ..6.    LDRH     r0,[sp,#0x36]
        0x08004914:    f44f717a    O.zq    MOV      r1,#0x3e8
        0x08004918:    4348        HC      MULS     r0,r1,r0
        0x0800491a:    f8bd1032    ..2.    LDRH     r1,[sp,#0x32]
        0x0800491e:    fbb0f0f1    ....    UDIV     r0,r0,r1
        0x08004922:    ee000a10    ....    VMOV     s0,r0
        0x08004926:    eeb80a40    ..@.    VCVT.F32.U32 s0,s0
        0x0800492a:    ed8d0a0a    ....    VSTR     s0,[sp,#0x28]
        0x0800492e:    ed9d0a0a    ....    VLDR     s0,[sp,#0x28]
        0x08004932:    ed8d0a05    ....    VSTR     s0,[sp,#0x14]
        0x08004936:    ee100a10    ....    VMOV     r0,s0
        0x0800493a:    f003f9db    ....    BL       __aeabi_f2d ; 0x8007cf4
        0x0800493e:    ed9d0a05    ....    VLDR     s0,[sp,#0x14]
        0x08004942:    ec410b11    A...    VMOV     d1,r0,r1
        0x08004946:    ed8d1b06    ....    VSTR     d1,[sp,#0x18]
        0x0800494a:    f7fffa6d    ..m.    BL       _Z14Calculate_Tempf ; 0x8003e28
        0x0800494e:    ee100a10    ....    VMOV     r0,s0
        0x08004952:    f003f9cf    ....    BL       __aeabi_f2d ; 0x8007cf4
        0x08004956:    ed9d1b06    ....    VLDR     d1,[sp,#0x18]
        0x0800495a:    ec410b10    A...    VMOV     d0,r0,r1
        0x0800495e:    4668        hF      MOV      r0,sp
        0x08004960:    ed801b00    ....    VSTR     d1,[r0,#0]
        0x08004964:    ed800b02    ....    VSTR     d0,[r0,#8]
        0x08004968:    f24821e0    H..!    MOV      r1,#0x82e0
        0x0800496c:    f6c00100    ....    MOVT     r1,#0x800
        0x08004970:    f24823b7    H..#    MOV      r3,#0x82b7
        0x08004974:    f6c00300    ....    MOVT     r3,#0x800
        0x08004978:    2002        .       MOVS     r0,#2
        0x0800497a:    f44f72d3    O..r    MOV      r2,#0x1a6
        0x0800497e:    f001f8fb    ....    BL       log_log ; 0x8005b78
        0x08004982:    b012        ..      ADD      sp,sp,#0x48
        0x08004984:    bd80        ..      POP      {r7,pc}
        0x08004986:    0000        ..      MOVS     r0,r0
    _ZN3Spi5read8Ev
        0x08004988:    b580        ..      PUSH     {r7,lr}
        0x0800498a:    b082        ..      SUB      sp,sp,#8
        0x0800498c:    9001        ..      STR      r0,[sp,#4]
        0x0800498e:    2000        .       MOVS     r0,#0
        0x08004990:    f8ad0002    ....    STRH     r0,[sp,#2]
        0x08004994:    e7ff        ..      B        0x8004996 ; _ZN3Spi5read8Ev + 14
        0x08004996:    f2430000    C...    MOVW     r0,#0x3000
        0x0800499a:    f2c40001    ....    MOVT     r0,#0x4001
        0x0800499e:    2102        .!      MOVS     r1,#2
        0x080049a0:    f7fefc06    ....    BL       SPI_I2S_GetStatus ; 0x80031b0
        0x080049a4:    b908        ..      CBNZ     r0,0x80049aa ; _ZN3Spi5read8Ev + 34
        0x080049a6:    e7ff        ..      B        0x80049a8 ; _ZN3Spi5read8Ev + 32
        0x080049a8:    e7f5        ..      B        0x8004996 ; _ZN3Spi5read8Ev + 14
        0x080049aa:    f2430000    C...    MOVW     r0,#0x3000
        0x080049ae:    f2c40001    ....    MOVT     r0,#0x4001
        0x080049b2:    21aa        .!      MOVS     r1,#0xaa
        0x080049b4:    f7fefc1e    ....    BL       SPI_I2S_TransmitData ; 0x80031f4
        0x080049b8:    e7ff        ..      B        0x80049ba ; _ZN3Spi5read8Ev + 50
        0x080049ba:    f2430000    C...    MOVW     r0,#0x3000
        0x080049be:    f2c40001    ....    MOVT     r0,#0x4001
        0x080049c2:    2101        .!      MOVS     r1,#1
        0x080049c4:    f7fefbf4    ....    BL       SPI_I2S_GetStatus ; 0x80031b0
        0x080049c8:    b908        ..      CBNZ     r0,0x80049ce ; _ZN3Spi5read8Ev + 70
        0x080049ca:    e7ff        ..      B        0x80049cc ; _ZN3Spi5read8Ev + 68
        0x080049cc:    e7f5        ..      B        0x80049ba ; _ZN3Spi5read8Ev + 50
        0x080049ce:    f2430000    C...    MOVW     r0,#0x3000
        0x080049d2:    f2c40001    ....    MOVT     r0,#0x4001
        0x080049d6:    f7fefc07    ....    BL       SPI_I2S_ReceiveData ; 0x80031e8
        0x080049da:    f8ad0002    ....    STRH     r0,[sp,#2]
        0x080049de:    e7ff        ..      B        0x80049e0 ; _ZN3Spi5read8Ev + 88
        0x080049e0:    f2430000    C...    MOVW     r0,#0x3000
        0x080049e4:    f2c40001    ....    MOVT     r0,#0x4001
        0x080049e8:    2101        .!      MOVS     r1,#1
        0x080049ea:    f7fefbe1    ....    BL       SPI_I2S_GetStatus ; 0x80031b0
        0x080049ee:    b908        ..      CBNZ     r0,0x80049f4 ; _ZN3Spi5read8Ev + 108
        0x080049f0:    e7ff        ..      B        0x80049f2 ; _ZN3Spi5read8Ev + 106
        0x080049f2:    e7f5        ..      B        0x80049e0 ; _ZN3Spi5read8Ev + 88
        0x080049f4:    f2430000    C...    MOVW     r0,#0x3000
        0x080049f8:    f2c40001    ....    MOVT     r0,#0x4001
        0x080049fc:    f7fefbf4    ....    BL       SPI_I2S_ReceiveData ; 0x80031e8
        0x08004a00:    f8ad0002    ....    STRH     r0,[sp,#2]
        0x08004a04:    e7ff        ..      B        0x8004a06 ; _ZN3Spi5read8Ev + 126
        0x08004a06:    f2430000    C...    MOVW     r0,#0x3000
        0x08004a0a:    f2c40001    ....    MOVT     r0,#0x4001
        0x08004a0e:    2102        .!      MOVS     r1,#2
        0x08004a10:    f7fefbce    ....    BL       SPI_I2S_GetStatus ; 0x80031b0
        0x08004a14:    b908        ..      CBNZ     r0,0x8004a1a ; _ZN3Spi5read8Ev + 146
        0x08004a16:    e7ff        ..      B        0x8004a18 ; _ZN3Spi5read8Ev + 144
        0x08004a18:    e7f5        ..      B        0x8004a06 ; _ZN3Spi5read8Ev + 126
        0x08004a1a:    e7ff        ..      B        0x8004a1c ; _ZN3Spi5read8Ev + 148
        0x08004a1c:    f2430000    C...    MOVW     r0,#0x3000
        0x08004a20:    f2c40001    ....    MOVT     r0,#0x4001
        0x08004a24:    2180        .!      MOVS     r1,#0x80
        0x08004a26:    f7fefbc3    ....    BL       SPI_I2S_GetStatus ; 0x80031b0
        0x08004a2a:    2801        .(      CMP      r0,#1
        0x08004a2c:    d101        ..      BNE      0x8004a32 ; _ZN3Spi5read8Ev + 170
        0x08004a2e:    e7ff        ..      B        0x8004a30 ; _ZN3Spi5read8Ev + 168
        0x08004a30:    e7f4        ..      B        0x8004a1c ; _ZN3Spi5read8Ev + 148
        0x08004a32:    f89d0002    ....    LDRB     r0,[sp,#2]
        0x08004a36:    b002        ..      ADD      sp,sp,#8
        0x08004a38:    bd80        ..      POP      {r7,pc}
        0x08004a3a:    0000        ..      MOVS     r0,r0
    _ZN3Spi6configEv
        0x08004a3c:    b580        ..      PUSH     {r7,lr}
        0x08004a3e:    b08c        ..      SUB      sp,sp,#0x30
        0x08004a40:    900b        ..      STR      r0,[sp,#0x2c]
        0x08004a42:    980b        ..      LDR      r0,[sp,#0x2c]
        0x08004a44:    9004        ..      STR      r0,[sp,#0x10]
        0x08004a46:    2100        .!      MOVS     r1,#0
        0x08004a48:    9101        ..      STR      r1,[sp,#4]
        0x08004a4a:    910a        ..      STR      r1,[sp,#0x28]
        0x08004a4c:    9109        ..      STR      r1,[sp,#0x24]
        0x08004a4e:    9108        ..      STR      r1,[sp,#0x20]
        0x08004a50:    9107        ..      STR      r1,[sp,#0x1c]
        0x08004a52:    9106        ..      STR      r1,[sp,#0x18]
        0x08004a54:    f88d1017    ....    STRB     r1,[sp,#0x17]
        0x08004a58:    f6441230    D.0.    MOV      r2,#0x4930
        0x08004a5c:    f2c1128a    ....    MOVT     r2,#0x118a
        0x08004a60:    920a        ..      STR      r2,[sp,#0x28]
        0x08004a62:    2200        ."      MOVS     r2,#0
        0x08004a64:    f2ca020f    ....    MOVT     r2,#0xa00f
        0x08004a68:    9209        ..      STR      r2,[sp,#0x24]
        0x08004a6a:    9108        ..      STR      r1,[sp,#0x20]
        0x08004a6c:    9107        ..      STR      r1,[sp,#0x1c]
        0x08004a6e:    f2405100    @..Q    MOVW     r1,#0x500
        0x08004a72:    f2c461cc    ...a    MOVT     r1,#0x46cc
        0x08004a76:    9106        ..      STR      r1,[sp,#0x18]
        0x08004a78:    3008        .0      ADDS     r0,r0,#8
        0x08004a7a:    9002        ..      STR      r0,[sp,#8]
        0x08004a7c:    f7fffcca    ....    BL       _ZN2Do4highEv ; 0x8004414
        0x08004a80:    f64010b4    @...    MOV      r0,#0x9b4
        0x08004a84:    f2c20000    ....    MOVT     r0,#0x2000
        0x08004a88:    9003        ..      STR      r0,[sp,#0xc]
        0x08004a8a:    2101        .!      MOVS     r1,#1
        0x08004a8c:    f000fbe2    ....    BL       _ZN8DWTDelay8delay_usEj ; 0x8005254
        0x08004a90:    9802        ..      LDR      r0,[sp,#8]
        0x08004a92:    f7fffcb7    ....    BL       _ZN2Do3lowEv ; 0x8004404
        0x08004a96:    9803        ..      LDR      r0,[sp,#0xc]
        0x08004a98:    210a        .!      MOVS     r1,#0xa
        0x08004a9a:    f000fbcd    ....    BL       _ZN8DWTDelay8delay_msEj ; 0x8005238
        0x08004a9e:    9802        ..      LDR      r0,[sp,#8]
        0x08004aa0:    f7fffcb8    ....    BL       _ZN2Do4highEv ; 0x8004414
        0x08004aa4:    9803        ..      LDR      r0,[sp,#0xc]
        0x08004aa6:    2164        d!      MOVS     r1,#0x64
        0x08004aa8:    f000fbd4    ....    BL       _ZN8DWTDelay8delay_usEj ; 0x8005254
        0x08004aac:    9804        ..      LDR      r0,[sp,#0x10]
        0x08004aae:    2150        P!      MOVS     r1,#0x50
        0x08004ab0:    f7fffe98    ....    BL       _ZN3Spi11Write_OrderEh ; 0x80047e4
        0x08004ab4:    9804        ..      LDR      r0,[sp,#0x10]
        0x08004ab6:    9a0a        ..      LDR      r2,[sp,#0x28]
        0x08004ab8:    2180        .!      MOVS     r1,#0x80
        0x08004aba:    f000fa67    ..g.    BL       _ZN3Spi9Write_RegEhj ; 0x8004f8c
        0x08004abe:    9804        ..      LDR      r0,[sp,#0x10]
        0x08004ac0:    9a09        ..      LDR      r2,[sp,#0x24]
        0x08004ac2:    2181        .!      MOVS     r1,#0x81
        0x08004ac4:    f000fa62    ..b.    BL       _ZN3Spi9Write_RegEhj ; 0x8004f8c
        0x08004ac8:    9804        ..      LDR      r0,[sp,#0x10]
        0x08004aca:    9a08        ..      LDR      r2,[sp,#0x20]
        0x08004acc:    2182        .!      MOVS     r1,#0x82
        0x08004ace:    f000fa5d    ..].    BL       _ZN3Spi9Write_RegEhj ; 0x8004f8c
        0x08004ad2:    9804        ..      LDR      r0,[sp,#0x10]
        0x08004ad4:    9a07        ..      LDR      r2,[sp,#0x1c]
        0x08004ad6:    2183        .!      MOVS     r1,#0x83
        0x08004ad8:    f000fa58    ..X.    BL       _ZN3Spi9Write_RegEhj ; 0x8004f8c
        0x08004adc:    9804        ..      LDR      r0,[sp,#0x10]
        0x08004ade:    9a06        ..      LDR      r2,[sp,#0x18]
        0x08004ae0:    2184        .!      MOVS     r1,#0x84
        0x08004ae2:    f000fa53    ..S.    BL       _ZN3Spi9Write_RegEhj ; 0x8004f8c
        0x08004ae6:    9804        ..      LDR      r0,[sp,#0x10]
        0x08004ae8:    2170        p!      MOVS     r1,#0x70
        0x08004aea:    f7fffe7b    ..{.    BL       _ZN3Spi11Write_OrderEh ; 0x80047e4
        0x08004aee:    9804        ..      LDR      r0,[sp,#0x10]
        0x08004af0:    f7fffe5c    ..\.    BL       _ZN3Spi11Read_REG0_LEv ; 0x80047ac
        0x08004af4:    f88d0017    ....    STRB     r0,[sp,#0x17]
        0x08004af8:    e7ff        ..      B        0x8004afa ; _ZN3Spi6configEv + 190
        0x08004afa:    f89d2017    ...     LDRB     r2,[sp,#0x17]
        0x08004afe:    f24821cf    H..!    MOV      r1,#0x82cf
        0x08004b02:    f6c00100    ....    MOVT     r1,#0x800
        0x08004b06:    2000        .       MOVS     r0,#0
        0x08004b08:    f7fef924    ..$.    BL       SEGGER_RTT_printf ; 0x8002d54
        0x08004b0c:    e7ff        ..      B        0x8004b0e ; _ZN3Spi6configEv + 210
        0x08004b0e:    f89d0017    ....    LDRB     r0,[sp,#0x17]
        0x08004b12:    4669        iF      MOV      r1,sp
        0x08004b14:    6008        .`      STR      r0,[r1,#0]
        0x08004b16:    f24821e0    H..!    MOV      r1,#0x82e0
        0x08004b1a:    f6c00100    ....    MOVT     r1,#0x800
        0x08004b1e:    f24823cf    H..#    MOV      r3,#0x82cf
        0x08004b22:    f6c00300    ....    MOVT     r3,#0x800
        0x08004b26:    2002        .       MOVS     r0,#2
        0x08004b28:    f44f72f0    O..r    MOV      r2,#0x1e0
        0x08004b2c:    f001f824    ..$.    BL       log_log ; 0x8005b78
        0x08004b30:    f89d0017    ....    LDRB     r0,[sp,#0x17]
        0x08004b34:    b00c        ..      ADD      sp,sp,#0x30
        0x08004b36:    bd80        ..      POP      {r7,pc}
    _ZN3Spi6read16Ev
        0x08004b38:    b580        ..      PUSH     {r7,lr}
        0x08004b3a:    b082        ..      SUB      sp,sp,#8
        0x08004b3c:    9001        ..      STR      r0,[sp,#4]
        0x08004b3e:    2000        .       MOVS     r0,#0
        0x08004b40:    f8ad0002    ....    STRH     r0,[sp,#2]
        0x08004b44:    f8ad0000    ....    STRH     r0,[sp,#0]
        0x08004b48:    e7ff        ..      B        0x8004b4a ; _ZN3Spi6read16Ev + 18
        0x08004b4a:    f2430000    C...    MOVW     r0,#0x3000
        0x08004b4e:    f2c40001    ....    MOVT     r0,#0x4001
        0x08004b52:    2102        .!      MOVS     r1,#2
        0x08004b54:    f7fefb2c    ..,.    BL       SPI_I2S_GetStatus ; 0x80031b0
        0x08004b58:    b908        ..      CBNZ     r0,0x8004b5e ; _ZN3Spi6read16Ev + 38
        0x08004b5a:    e7ff        ..      B        0x8004b5c ; _ZN3Spi6read16Ev + 36
        0x08004b5c:    e7f5        ..      B        0x8004b4a ; _ZN3Spi6read16Ev + 18
        0x08004b5e:    f2430000    C...    MOVW     r0,#0x3000
        0x08004b62:    f2c40001    ....    MOVT     r0,#0x4001
        0x08004b66:    21aa        .!      MOVS     r1,#0xaa
        0x08004b68:    f7fefb44    ..D.    BL       SPI_I2S_TransmitData ; 0x80031f4
        0x08004b6c:    e7ff        ..      B        0x8004b6e ; _ZN3Spi6read16Ev + 54
        0x08004b6e:    f2430000    C...    MOVW     r0,#0x3000
        0x08004b72:    f2c40001    ....    MOVT     r0,#0x4001
        0x08004b76:    2101        .!      MOVS     r1,#1
        0x08004b78:    f7fefb1a    ....    BL       SPI_I2S_GetStatus ; 0x80031b0
        0x08004b7c:    b908        ..      CBNZ     r0,0x8004b82 ; _ZN3Spi6read16Ev + 74
        0x08004b7e:    e7ff        ..      B        0x8004b80 ; _ZN3Spi6read16Ev + 72
        0x08004b80:    e7f5        ..      B        0x8004b6e ; _ZN3Spi6read16Ev + 54
        0x08004b82:    f2430000    C...    MOVW     r0,#0x3000
        0x08004b86:    f2c40001    ....    MOVT     r0,#0x4001
        0x08004b8a:    f7fefb2d    ..-.    BL       SPI_I2S_ReceiveData ; 0x80031e8
        0x08004b8e:    f8ad0002    ....    STRH     r0,[sp,#2]
        0x08004b92:    e7ff        ..      B        0x8004b94 ; _ZN3Spi6read16Ev + 92
        0x08004b94:    f2430000    C...    MOVW     r0,#0x3000
        0x08004b98:    f2c40001    ....    MOVT     r0,#0x4001
        0x08004b9c:    2101        .!      MOVS     r1,#1
        0x08004b9e:    f7fefb07    ....    BL       SPI_I2S_GetStatus ; 0x80031b0
        0x08004ba2:    b908        ..      CBNZ     r0,0x8004ba8 ; _ZN3Spi6read16Ev + 112
        0x08004ba4:    e7ff        ..      B        0x8004ba6 ; _ZN3Spi6read16Ev + 110
        0x08004ba6:    e7f5        ..      B        0x8004b94 ; _ZN3Spi6read16Ev + 92
        0x08004ba8:    f2430000    C...    MOVW     r0,#0x3000
        0x08004bac:    f2c40001    ....    MOVT     r0,#0x4001
        0x08004bb0:    f7fefb1a    ....    BL       SPI_I2S_ReceiveData ; 0x80031e8
        0x08004bb4:    f8ad0002    ....    STRH     r0,[sp,#2]
        0x08004bb8:    e7ff        ..      B        0x8004bba ; _ZN3Spi6read16Ev + 130
        0x08004bba:    f2430000    C...    MOVW     r0,#0x3000
        0x08004bbe:    f2c40001    ....    MOVT     r0,#0x4001
        0x08004bc2:    2102        .!      MOVS     r1,#2
        0x08004bc4:    f7fefaf4    ....    BL       SPI_I2S_GetStatus ; 0x80031b0
        0x08004bc8:    b908        ..      CBNZ     r0,0x8004bce ; _ZN3Spi6read16Ev + 150
        0x08004bca:    e7ff        ..      B        0x8004bcc ; _ZN3Spi6read16Ev + 148
        0x08004bcc:    e7f5        ..      B        0x8004bba ; _ZN3Spi6read16Ev + 130
        0x08004bce:    f2430000    C...    MOVW     r0,#0x3000
        0x08004bd2:    f2c40001    ....    MOVT     r0,#0x4001
        0x08004bd6:    21aa        .!      MOVS     r1,#0xaa
        0x08004bd8:    f7fefb0c    ....    BL       SPI_I2S_TransmitData ; 0x80031f4
        0x08004bdc:    e7ff        ..      B        0x8004bde ; _ZN3Spi6read16Ev + 166
        0x08004bde:    f2430000    C...    MOVW     r0,#0x3000
        0x08004be2:    f2c40001    ....    MOVT     r0,#0x4001
        0x08004be6:    2101        .!      MOVS     r1,#1
        0x08004be8:    f7fefae2    ....    BL       SPI_I2S_GetStatus ; 0x80031b0
        0x08004bec:    b908        ..      CBNZ     r0,0x8004bf2 ; _ZN3Spi6read16Ev + 186
        0x08004bee:    e7ff        ..      B        0x8004bf0 ; _ZN3Spi6read16Ev + 184
        0x08004bf0:    e7f5        ..      B        0x8004bde ; _ZN3Spi6read16Ev + 166
        0x08004bf2:    f2430000    C...    MOVW     r0,#0x3000
        0x08004bf6:    f2c40001    ....    MOVT     r0,#0x4001
        0x08004bfa:    f7fefaf5    ....    BL       SPI_I2S_ReceiveData ; 0x80031e8
        0x08004bfe:    f8ad0000    ....    STRH     r0,[sp,#0]
        0x08004c02:    e7ff        ..      B        0x8004c04 ; _ZN3Spi6read16Ev + 204
        0x08004c04:    f2430000    C...    MOVW     r0,#0x3000
        0x08004c08:    f2c40001    ....    MOVT     r0,#0x4001
        0x08004c0c:    2102        .!      MOVS     r1,#2
        0x08004c0e:    f7fefacf    ....    BL       SPI_I2S_GetStatus ; 0x80031b0
        0x08004c12:    b908        ..      CBNZ     r0,0x8004c18 ; _ZN3Spi6read16Ev + 224
        0x08004c14:    e7ff        ..      B        0x8004c16 ; _ZN3Spi6read16Ev + 222
        0x08004c16:    e7f5        ..      B        0x8004c04 ; _ZN3Spi6read16Ev + 204
        0x08004c18:    e7ff        ..      B        0x8004c1a ; _ZN3Spi6read16Ev + 226
        0x08004c1a:    f2430000    C...    MOVW     r0,#0x3000
        0x08004c1e:    f2c40001    ....    MOVT     r0,#0x4001
        0x08004c22:    2180        .!      MOVS     r1,#0x80
        0x08004c24:    f7fefac4    ....    BL       SPI_I2S_GetStatus ; 0x80031b0
        0x08004c28:    2801        .(      CMP      r0,#1
        0x08004c2a:    d101        ..      BNE      0x8004c30 ; _ZN3Spi6read16Ev + 248
        0x08004c2c:    e7ff        ..      B        0x8004c2e ; _ZN3Spi6read16Ev + 246
        0x08004c2e:    e7f4        ..      B        0x8004c1a ; _ZN3Spi6read16Ev + 226
        0x08004c30:    f8bd1002    ....    LDRH     r1,[sp,#2]
        0x08004c34:    f8bd0000    ....    LDRH     r0,[sp,#0]
        0x08004c38:    eb002001    ...     ADD      r0,r0,r1,LSL #8
        0x08004c3c:    b280        ..      UXTH     r0,r0
        0x08004c3e:    b002        ..      ADD      sp,sp,#8
        0x08004c40:    bd80        ..      POP      {r7,pc}
        0x08004c42:    0000        ..      MOVS     r0,r0
    _ZN3Spi6read32Ev
        0x08004c44:    b580        ..      PUSH     {r7,lr}
        0x08004c46:    b084        ..      SUB      sp,sp,#0x10
        0x08004c48:    9003        ..      STR      r0,[sp,#0xc]
        0x08004c4a:    2000        .       MOVS     r0,#0
        0x08004c4c:    f8ad000a    ....    STRH     r0,[sp,#0xa]
        0x08004c50:    f8ad0008    ....    STRH     r0,[sp,#8]
        0x08004c54:    f8ad0006    ....    STRH     r0,[sp,#6]
        0x08004c58:    f8ad0004    ....    STRH     r0,[sp,#4]
        0x08004c5c:    9000        ..      STR      r0,[sp,#0]
        0x08004c5e:    e7ff        ..      B        0x8004c60 ; _ZN3Spi6read32Ev + 28
        0x08004c60:    f2430000    C...    MOVW     r0,#0x3000
        0x08004c64:    f2c40001    ....    MOVT     r0,#0x4001
        0x08004c68:    2102        .!      MOVS     r1,#2
        0x08004c6a:    f7fefaa1    ....    BL       SPI_I2S_GetStatus ; 0x80031b0
        0x08004c6e:    b908        ..      CBNZ     r0,0x8004c74 ; _ZN3Spi6read32Ev + 48
        0x08004c70:    e7ff        ..      B        0x8004c72 ; _ZN3Spi6read32Ev + 46
        0x08004c72:    e7f5        ..      B        0x8004c60 ; _ZN3Spi6read32Ev + 28
        0x08004c74:    f2430000    C...    MOVW     r0,#0x3000
        0x08004c78:    f2c40001    ....    MOVT     r0,#0x4001
        0x08004c7c:    21aa        .!      MOVS     r1,#0xaa
        0x08004c7e:    f7fefab9    ....    BL       SPI_I2S_TransmitData ; 0x80031f4
        0x08004c82:    e7ff        ..      B        0x8004c84 ; _ZN3Spi6read32Ev + 64
        0x08004c84:    f2430000    C...    MOVW     r0,#0x3000
        0x08004c88:    f2c40001    ....    MOVT     r0,#0x4001
        0x08004c8c:    2101        .!      MOVS     r1,#1
        0x08004c8e:    f7fefa8f    ....    BL       SPI_I2S_GetStatus ; 0x80031b0
        0x08004c92:    b908        ..      CBNZ     r0,0x8004c98 ; _ZN3Spi6read32Ev + 84
        0x08004c94:    e7ff        ..      B        0x8004c96 ; _ZN3Spi6read32Ev + 82
        0x08004c96:    e7f5        ..      B        0x8004c84 ; _ZN3Spi6read32Ev + 64
        0x08004c98:    f2430000    C...    MOVW     r0,#0x3000
        0x08004c9c:    f2c40001    ....    MOVT     r0,#0x4001
        0x08004ca0:    f7fefaa2    ....    BL       SPI_I2S_ReceiveData ; 0x80031e8
        0x08004ca4:    f8ad000a    ....    STRH     r0,[sp,#0xa]
        0x08004ca8:    e7ff        ..      B        0x8004caa ; _ZN3Spi6read32Ev + 102
        0x08004caa:    f2430000    C...    MOVW     r0,#0x3000
        0x08004cae:    f2c40001    ....    MOVT     r0,#0x4001
        0x08004cb2:    2101        .!      MOVS     r1,#1
        0x08004cb4:    f7fefa7c    ..|.    BL       SPI_I2S_GetStatus ; 0x80031b0
        0x08004cb8:    b908        ..      CBNZ     r0,0x8004cbe ; _ZN3Spi6read32Ev + 122
        0x08004cba:    e7ff        ..      B        0x8004cbc ; _ZN3Spi6read32Ev + 120
        0x08004cbc:    e7f5        ..      B        0x8004caa ; _ZN3Spi6read32Ev + 102
        0x08004cbe:    f2430000    C...    MOVW     r0,#0x3000
        0x08004cc2:    f2c40001    ....    MOVT     r0,#0x4001
        0x08004cc6:    f7fefa8f    ....    BL       SPI_I2S_ReceiveData ; 0x80031e8
        0x08004cca:    f8ad000a    ....    STRH     r0,[sp,#0xa]
        0x08004cce:    e7ff        ..      B        0x8004cd0 ; _ZN3Spi6read32Ev + 140
        0x08004cd0:    f2430000    C...    MOVW     r0,#0x3000
        0x08004cd4:    f2c40001    ....    MOVT     r0,#0x4001
        0x08004cd8:    2102        .!      MOVS     r1,#2
        0x08004cda:    f7fefa69    ..i.    BL       SPI_I2S_GetStatus ; 0x80031b0
        0x08004cde:    b908        ..      CBNZ     r0,0x8004ce4 ; _ZN3Spi6read32Ev + 160
        0x08004ce0:    e7ff        ..      B        0x8004ce2 ; _ZN3Spi6read32Ev + 158
        0x08004ce2:    e7f5        ..      B        0x8004cd0 ; _ZN3Spi6read32Ev + 140
        0x08004ce4:    f2430000    C...    MOVW     r0,#0x3000
        0x08004ce8:    f2c40001    ....    MOVT     r0,#0x4001
        0x08004cec:    21aa        .!      MOVS     r1,#0xaa
        0x08004cee:    f7fefa81    ....    BL       SPI_I2S_TransmitData ; 0x80031f4
        0x08004cf2:    e7ff        ..      B        0x8004cf4 ; _ZN3Spi6read32Ev + 176
        0x08004cf4:    f2430000    C...    MOVW     r0,#0x3000
        0x08004cf8:    f2c40001    ....    MOVT     r0,#0x4001
        0x08004cfc:    2101        .!      MOVS     r1,#1
        0x08004cfe:    f7fefa57    ..W.    BL       SPI_I2S_GetStatus ; 0x80031b0
        0x08004d02:    b908        ..      CBNZ     r0,0x8004d08 ; _ZN3Spi6read32Ev + 196
        0x08004d04:    e7ff        ..      B        0x8004d06 ; _ZN3Spi6read32Ev + 194
        0x08004d06:    e7f5        ..      B        0x8004cf4 ; _ZN3Spi6read32Ev + 176
        0x08004d08:    f2430000    C...    MOVW     r0,#0x3000
        0x08004d0c:    f2c40001    ....    MOVT     r0,#0x4001
        0x08004d10:    f7fefa6a    ..j.    BL       SPI_I2S_ReceiveData ; 0x80031e8
        0x08004d14:    f8ad0008    ....    STRH     r0,[sp,#8]
        0x08004d18:    e7ff        ..      B        0x8004d1a ; _ZN3Spi6read32Ev + 214
        0x08004d1a:    f2430000    C...    MOVW     r0,#0x3000
        0x08004d1e:    f2c40001    ....    MOVT     r0,#0x4001
        0x08004d22:    2102        .!      MOVS     r1,#2
        0x08004d24:    f7fefa44    ..D.    BL       SPI_I2S_GetStatus ; 0x80031b0
        0x08004d28:    b908        ..      CBNZ     r0,0x8004d2e ; _ZN3Spi6read32Ev + 234
        0x08004d2a:    e7ff        ..      B        0x8004d2c ; _ZN3Spi6read32Ev + 232
        0x08004d2c:    e7f5        ..      B        0x8004d1a ; _ZN3Spi6read32Ev + 214
        0x08004d2e:    f2430000    C...    MOVW     r0,#0x3000
        0x08004d32:    f2c40001    ....    MOVT     r0,#0x4001
        0x08004d36:    21aa        .!      MOVS     r1,#0xaa
        0x08004d38:    f7fefa5c    ..\.    BL       SPI_I2S_TransmitData ; 0x80031f4
        0x08004d3c:    e7ff        ..      B        0x8004d3e ; _ZN3Spi6read32Ev + 250
        0x08004d3e:    f2430000    C...    MOVW     r0,#0x3000
        0x08004d42:    f2c40001    ....    MOVT     r0,#0x4001
        0x08004d46:    2101        .!      MOVS     r1,#1
        0x08004d48:    f7fefa32    ..2.    BL       SPI_I2S_GetStatus ; 0x80031b0
        0x08004d4c:    b908        ..      CBNZ     r0,0x8004d52 ; _ZN3Spi6read32Ev + 270
        0x08004d4e:    e7ff        ..      B        0x8004d50 ; _ZN3Spi6read32Ev + 268
        0x08004d50:    e7f5        ..      B        0x8004d3e ; _ZN3Spi6read32Ev + 250
        0x08004d52:    f2430000    C...    MOVW     r0,#0x3000
        0x08004d56:    f2c40001    ....    MOVT     r0,#0x4001
        0x08004d5a:    f7fefa45    ..E.    BL       SPI_I2S_ReceiveData ; 0x80031e8
        0x08004d5e:    f8ad0006    ....    STRH     r0,[sp,#6]
        0x08004d62:    e7ff        ..      B        0x8004d64 ; _ZN3Spi6read32Ev + 288
        0x08004d64:    f2430000    C...    MOVW     r0,#0x3000
        0x08004d68:    f2c40001    ....    MOVT     r0,#0x4001
        0x08004d6c:    2102        .!      MOVS     r1,#2
        0x08004d6e:    f7fefa1f    ....    BL       SPI_I2S_GetStatus ; 0x80031b0
        0x08004d72:    b908        ..      CBNZ     r0,0x8004d78 ; _ZN3Spi6read32Ev + 308
        0x08004d74:    e7ff        ..      B        0x8004d76 ; _ZN3Spi6read32Ev + 306
        0x08004d76:    e7f5        ..      B        0x8004d64 ; _ZN3Spi6read32Ev + 288
        0x08004d78:    f2430000    C...    MOVW     r0,#0x3000
        0x08004d7c:    f2c40001    ....    MOVT     r0,#0x4001
        0x08004d80:    21aa        .!      MOVS     r1,#0xaa
        0x08004d82:    f7fefa37    ..7.    BL       SPI_I2S_TransmitData ; 0x80031f4
        0x08004d86:    e7ff        ..      B        0x8004d88 ; _ZN3Spi6read32Ev + 324
        0x08004d88:    f2430000    C...    MOVW     r0,#0x3000
        0x08004d8c:    f2c40001    ....    MOVT     r0,#0x4001
        0x08004d90:    2101        .!      MOVS     r1,#1
        0x08004d92:    f7fefa0d    ....    BL       SPI_I2S_GetStatus ; 0x80031b0
        0x08004d96:    b908        ..      CBNZ     r0,0x8004d9c ; _ZN3Spi6read32Ev + 344
        0x08004d98:    e7ff        ..      B        0x8004d9a ; _ZN3Spi6read32Ev + 342
        0x08004d9a:    e7f5        ..      B        0x8004d88 ; _ZN3Spi6read32Ev + 324
        0x08004d9c:    f2430000    C...    MOVW     r0,#0x3000
        0x08004da0:    f2c40001    ....    MOVT     r0,#0x4001
        0x08004da4:    f7fefa20    .. .    BL       SPI_I2S_ReceiveData ; 0x80031e8
        0x08004da8:    f8ad0004    ....    STRH     r0,[sp,#4]
        0x08004dac:    e7ff        ..      B        0x8004dae ; _ZN3Spi6read32Ev + 362
        0x08004dae:    f2430000    C...    MOVW     r0,#0x3000
        0x08004db2:    f2c40001    ....    MOVT     r0,#0x4001
        0x08004db6:    2102        .!      MOVS     r1,#2
        0x08004db8:    f7fef9fa    ....    BL       SPI_I2S_GetStatus ; 0x80031b0
        0x08004dbc:    b908        ..      CBNZ     r0,0x8004dc2 ; _ZN3Spi6read32Ev + 382
        0x08004dbe:    e7ff        ..      B        0x8004dc0 ; _ZN3Spi6read32Ev + 380
        0x08004dc0:    e7f5        ..      B        0x8004dae ; _ZN3Spi6read32Ev + 362
        0x08004dc2:    e7ff        ..      B        0x8004dc4 ; _ZN3Spi6read32Ev + 384
        0x08004dc4:    f2430000    C...    MOVW     r0,#0x3000
        0x08004dc8:    f2c40001    ....    MOVT     r0,#0x4001
        0x08004dcc:    2180        .!      MOVS     r1,#0x80
        0x08004dce:    f7fef9ef    ....    BL       SPI_I2S_GetStatus ; 0x80031b0
        0x08004dd2:    2801        .(      CMP      r0,#1
        0x08004dd4:    d101        ..      BNE      0x8004dda ; _ZN3Spi6read32Ev + 406
        0x08004dd6:    e7ff        ..      B        0x8004dd8 ; _ZN3Spi6read32Ev + 404
        0x08004dd8:    e7f4        ..      B        0x8004dc4 ; _ZN3Spi6read32Ev + 384
        0x08004dda:    f8bd000a    ....    LDRH     r0,[sp,#0xa]
        0x08004dde:    0600        ..      LSLS     r0,r0,#24
        0x08004de0:    f8bd1008    ....    LDRH     r1,[sp,#8]
        0x08004de4:    eb004001    ...@    ADD      r0,r0,r1,LSL #16
        0x08004de8:    f8bd1006    ....    LDRH     r1,[sp,#6]
        0x08004dec:    eb002001    ...     ADD      r0,r0,r1,LSL #8
        0x08004df0:    f8bd1004    ....    LDRH     r1,[sp,#4]
        0x08004df4:    4408        .D      ADD      r0,r0,r1
        0x08004df6:    9000        ..      STR      r0,[sp,#0]
        0x08004df8:    9800        ..      LDR      r0,[sp,#0]
        0x08004dfa:    b004        ..      ADD      sp,sp,#0x10
        0x08004dfc:    bd80        ..      POP      {r7,pc}
        0x08004dfe:    0000        ..      MOVS     r0,r0
    _ZN3Spi6write8Eh
        0x08004e00:    b580        ..      PUSH     {r7,lr}
        0x08004e02:    b082        ..      SUB      sp,sp,#8
        0x08004e04:    9001        ..      STR      r0,[sp,#4]
        0x08004e06:    f88d1003    ....    STRB     r1,[sp,#3]
        0x08004e0a:    e7ff        ..      B        0x8004e0c ; _ZN3Spi6write8Eh + 12
        0x08004e0c:    f2430000    C...    MOVW     r0,#0x3000
        0x08004e10:    f2c40001    ....    MOVT     r0,#0x4001
        0x08004e14:    2102        .!      MOVS     r1,#2
        0x08004e16:    f7fef9cb    ....    BL       SPI_I2S_GetStatus ; 0x80031b0
        0x08004e1a:    b908        ..      CBNZ     r0,0x8004e20 ; _ZN3Spi6write8Eh + 32
        0x08004e1c:    e7ff        ..      B        0x8004e1e ; _ZN3Spi6write8Eh + 30
        0x08004e1e:    e7f5        ..      B        0x8004e0c ; _ZN3Spi6write8Eh + 12
        0x08004e20:    f89d1003    ....    LDRB     r1,[sp,#3]
        0x08004e24:    f2430000    C...    MOVW     r0,#0x3000
        0x08004e28:    f2c40001    ....    MOVT     r0,#0x4001
        0x08004e2c:    f7fef9e2    ....    BL       SPI_I2S_TransmitData ; 0x80031f4
        0x08004e30:    e7ff        ..      B        0x8004e32 ; _ZN3Spi6write8Eh + 50
        0x08004e32:    f2430000    C...    MOVW     r0,#0x3000
        0x08004e36:    f2c40001    ....    MOVT     r0,#0x4001
        0x08004e3a:    2180        .!      MOVS     r1,#0x80
        0x08004e3c:    f7fef9b8    ....    BL       SPI_I2S_GetStatus ; 0x80031b0
        0x08004e40:    2801        .(      CMP      r0,#1
        0x08004e42:    d101        ..      BNE      0x8004e48 ; _ZN3Spi6write8Eh + 72
        0x08004e44:    e7ff        ..      B        0x8004e46 ; _ZN3Spi6write8Eh + 70
        0x08004e46:    e7f4        ..      B        0x8004e32 ; _ZN3Spi6write8Eh + 50
        0x08004e48:    b002        ..      ADD      sp,sp,#8
        0x08004e4a:    bd80        ..      POP      {r7,pc}
    _ZN3Spi8Read_RegEh
        0x08004e4c:    b580        ..      PUSH     {r7,lr}
        0x08004e4e:    b084        ..      SUB      sp,sp,#0x10
        0x08004e50:    9003        ..      STR      r0,[sp,#0xc]
        0x08004e52:    f88d100b    ....    STRB     r1,[sp,#0xb]
        0x08004e56:    9803        ..      LDR      r0,[sp,#0xc]
        0x08004e58:    9000        ..      STR      r0,[sp,#0]
        0x08004e5a:    2100        .!      MOVS     r1,#0
        0x08004e5c:    9101        ..      STR      r1,[sp,#4]
        0x08004e5e:    f7fffad1    ....    BL       _ZN2Do3lowEv ; 0x8004404
        0x08004e62:    9800        ..      LDR      r0,[sp,#0]
        0x08004e64:    f89d100b    ....    LDRB     r1,[sp,#0xb]
        0x08004e68:    f7ffffca    ....    BL       _ZN3Spi6write8Eh ; 0x8004e00
        0x08004e6c:    9800        ..      LDR      r0,[sp,#0]
        0x08004e6e:    f7fffee9    ....    BL       _ZN3Spi6read32Ev ; 0x8004c44
        0x08004e72:    4601        .F      MOV      r1,r0
        0x08004e74:    9800        ..      LDR      r0,[sp,#0]
        0x08004e76:    9101        ..      STR      r1,[sp,#4]
        0x08004e78:    f7fffacc    ....    BL       _ZN2Do4highEv ; 0x8004414
        0x08004e7c:    9801        ..      LDR      r0,[sp,#4]
        0x08004e7e:    b004        ..      ADD      sp,sp,#0x10
        0x08004e80:    bd80        ..      POP      {r7,pc}
        0x08004e82:    0000        ..      MOVS     r0,r0
    _ZN3Spi8init_intEv
        0x08004e84:    b580        ..      PUSH     {r7,lr}
        0x08004e86:    b082        ..      SUB      sp,sp,#8
        0x08004e88:    9001        ..      STR      r0,[sp,#4]
        0x08004e8a:    f44f60c0    O..`    MOV      r0,#0x600
        0x08004e8e:    f7fdfd39    ..9.    BL       NVIC_PriorityGroupConfig ; 0x8002904
        0x08004e92:    2023        #       MOVS     r0,#0x23
        0x08004e94:    f88d0000    ....    STRB     r0,[sp,#0]
        0x08004e98:    2001        .       MOVS     r0,#1
        0x08004e9a:    f88d0001    ....    STRB     r0,[sp,#1]
        0x08004e9e:    2102        .!      MOVS     r1,#2
        0x08004ea0:    f88d1002    ....    STRB     r1,[sp,#2]
        0x08004ea4:    f88d0003    ....    STRB     r0,[sp,#3]
        0x08004ea8:    4668        hF      MOV      r0,sp
        0x08004eaa:    f7fdfcd5    ....    BL       NVIC_Init ; 0x8002858
        0x08004eae:    b002        ..      ADD      sp,sp,#8
        0x08004eb0:    bd80        ..      POP      {r7,pc}
        0x08004eb2:    0000        ..      MOVS     r0,r0
    _ZN3Spi8init_pinEv
        0x08004eb4:    b580        ..      PUSH     {r7,lr}
        0x08004eb6:    b084        ..      SUB      sp,sp,#0x10
        0x08004eb8:    9003        ..      STR      r0,[sp,#0xc]
        0x08004eba:    20a0        .       MOVS     r0,#0xa0
        0x08004ebc:    f8ad0008    ....    STRH     r0,[sp,#8]
        0x08004ec0:    2003        .       MOVS     r0,#3
        0x08004ec2:    f88d000a    ....    STRB     r0,[sp,#0xa]
        0x08004ec6:    2018        .       MOVS     r0,#0x18
        0x08004ec8:    f88d000b    ....    STRB     r0,[sp,#0xb]
        0x08004ecc:    f6400000    @...    MOVW     r0,#0x800
        0x08004ed0:    f2c40001    ....    MOVT     r0,#0x4001
        0x08004ed4:    9000        ..      STR      r0,[sp,#0]
        0x08004ed6:    a902        ..      ADD      r1,sp,#8
        0x08004ed8:    9101        ..      STR      r1,[sp,#4]
        0x08004eda:    f7fdfb6b    ..k.    BL       GPIO_InitPeripheral ; 0x80025b4
        0x08004ede:    9800        ..      LDR      r0,[sp,#0]
        0x08004ee0:    9901        ..      LDR      r1,[sp,#4]
        0x08004ee2:    2240        @"      MOVS     r2,#0x40
        0x08004ee4:    f8ad2008    ...     STRH     r2,[sp,#8]
        0x08004ee8:    2248        H"      MOVS     r2,#0x48
        0x08004eea:    f88d200b    ...     STRB     r2,[sp,#0xb]
        0x08004eee:    f7fdfb61    ..a.    BL       GPIO_InitPeripheral ; 0x80025b4
        0x08004ef2:    b004        ..      ADD      sp,sp,#0x10
        0x08004ef4:    bd80        ..      POP      {r7,pc}
        0x08004ef6:    0000        ..      MOVS     r0,r0
    _ZN3Spi8init_spiEv
        0x08004ef8:    b580        ..      PUSH     {r7,lr}
        0x08004efa:    b088        ..      SUB      sp,sp,#0x20
        0x08004efc:    9007        ..      STR      r0,[sp,#0x1c]
        0x08004efe:    2000        .       MOVS     r0,#0
        0x08004f00:    f8ad0008    ....    STRH     r0,[sp,#8]
        0x08004f04:    f44f7182    O..q    MOV      r1,#0x104
        0x08004f08:    f8ad100a    ....    STRH     r1,[sp,#0xa]
        0x08004f0c:    f8ad000c    ....    STRH     r0,[sp,#0xc]
        0x08004f10:    f8ad000e    ....    STRH     r0,[sp,#0xe]
        0x08004f14:    2101        .!      MOVS     r1,#1
        0x08004f16:    9101        ..      STR      r1,[sp,#4]
        0x08004f18:    f8ad1010    ....    STRH     r1,[sp,#0x10]
        0x08004f1c:    f8ad0012    ....    STRH     r0,[sp,#0x12]
        0x08004f20:    2118        .!      MOVS     r1,#0x18
        0x08004f22:    f8ad1014    ....    STRH     r1,[sp,#0x14]
        0x08004f26:    f8ad0016    ....    STRH     r0,[sp,#0x16]
        0x08004f2a:    2007        .       MOVS     r0,#7
        0x08004f2c:    f8ad0018    ....    STRH     r0,[sp,#0x18]
        0x08004f30:    f2430000    C...    MOVW     r0,#0x3000
        0x08004f34:    f2c40001    ....    MOVT     r0,#0x4001
        0x08004f38:    9000        ..      STR      r0,[sp,#0]
        0x08004f3a:    a902        ..      ADD      r1,sp,#8
        0x08004f3c:    f7fef964    ..d.    BL       SPI_Init ; 0x8003208
        0x08004f40:    9800        ..      LDR      r0,[sp,#0]
        0x08004f42:    9901        ..      LDR      r1,[sp,#4]
        0x08004f44:    f7fef994    ....    BL       SPI_SSOutputEnable ; 0x8003270
        0x08004f48:    9800        ..      LDR      r0,[sp,#0]
        0x08004f4a:    9901        ..      LDR      r1,[sp,#4]
        0x08004f4c:    f7fef8da    ....    BL       SPI_Enable ; 0x8003104
        0x08004f50:    b008        ..      ADD      sp,sp,#0x20
        0x08004f52:    bd80        ..      POP      {r7,pc}
    _ZN3Spi9Read_STATEv
        0x08004f54:    b580        ..      PUSH     {r7,lr}
        0x08004f56:    b084        ..      SUB      sp,sp,#0x10
        0x08004f58:    9003        ..      STR      r0,[sp,#0xc]
        0x08004f5a:    9803        ..      LDR      r0,[sp,#0xc]
        0x08004f5c:    9001        ..      STR      r0,[sp,#4]
        0x08004f5e:    2100        .!      MOVS     r1,#0
        0x08004f60:    f8ad100a    ....    STRH     r1,[sp,#0xa]
        0x08004f64:    f7fffa4e    ..N.    BL       _ZN2Do3lowEv ; 0x8004404
        0x08004f68:    9801        ..      LDR      r0,[sp,#4]
        0x08004f6a:    21d2        .!      MOVS     r1,#0xd2
        0x08004f6c:    f7ffff48    ..H.    BL       _ZN3Spi6write8Eh ; 0x8004e00
        0x08004f70:    9801        ..      LDR      r0,[sp,#4]
        0x08004f72:    f7fffde1    ....    BL       _ZN3Spi6read16Ev ; 0x8004b38
        0x08004f76:    4601        .F      MOV      r1,r0
        0x08004f78:    9801        ..      LDR      r0,[sp,#4]
        0x08004f7a:    f8ad100a    ....    STRH     r1,[sp,#0xa]
        0x08004f7e:    f7fffa49    ..I.    BL       _ZN2Do4highEv ; 0x8004414
        0x08004f82:    f8bd000a    ....    LDRH     r0,[sp,#0xa]
        0x08004f86:    b004        ..      ADD      sp,sp,#0x10
        0x08004f88:    bd80        ..      POP      {r7,pc}
        0x08004f8a:    0000        ..      MOVS     r0,r0
    _ZN3Spi9Write_RegEhj
        0x08004f8c:    b580        ..      PUSH     {r7,lr}
        0x08004f8e:    b084        ..      SUB      sp,sp,#0x10
        0x08004f90:    9003        ..      STR      r0,[sp,#0xc]
        0x08004f92:    f88d100b    ....    STRB     r1,[sp,#0xb]
        0x08004f96:    9201        ..      STR      r2,[sp,#4]
        0x08004f98:    9803        ..      LDR      r0,[sp,#0xc]
        0x08004f9a:    9000        ..      STR      r0,[sp,#0]
        0x08004f9c:    f7fffa32    ..2.    BL       _ZN2Do3lowEv ; 0x8004404
        0x08004fa0:    9800        ..      LDR      r0,[sp,#0]
        0x08004fa2:    f89d100b    ....    LDRB     r1,[sp,#0xb]
        0x08004fa6:    f7ffff2b    ..+.    BL       _ZN3Spi6write8Eh ; 0x8004e00
        0x08004faa:    9800        ..      LDR      r0,[sp,#0]
        0x08004fac:    f89d1007    ....    LDRB     r1,[sp,#7]
        0x08004fb0:    f7ffff26    ..&.    BL       _ZN3Spi6write8Eh ; 0x8004e00
        0x08004fb4:    9800        ..      LDR      r0,[sp,#0]
        0x08004fb6:    f89d1006    ....    LDRB     r1,[sp,#6]
        0x08004fba:    f7ffff21    ..!.    BL       _ZN3Spi6write8Eh ; 0x8004e00
        0x08004fbe:    9800        ..      LDR      r0,[sp,#0]
        0x08004fc0:    f89d1005    ....    LDRB     r1,[sp,#5]
        0x08004fc4:    f7ffff1c    ....    BL       _ZN3Spi6write8Eh ; 0x8004e00
        0x08004fc8:    9800        ..      LDR      r0,[sp,#0]
        0x08004fca:    f89d1004    ....    LDRB     r1,[sp,#4]
        0x08004fce:    f7ffff17    ....    BL       _ZN3Spi6write8Eh ; 0x8004e00
        0x08004fd2:    9800        ..      LDR      r0,[sp,#0]
        0x08004fd4:    f7fffa1e    ....    BL       _ZN2Do4highEv ; 0x8004414
        0x08004fd8:    b004        ..      ADD      sp,sp,#0x10
        0x08004fda:    bd80        ..      POP      {r7,pc}
    _ZN3SpiC1Ev
    _ZN3SpiC2Ev
        0x08004fdc:    b580        ..      PUSH     {r7,lr}
        0x08004fde:    b082        ..      SUB      sp,sp,#8
        0x08004fe0:    9001        ..      STR      r0,[sp,#4]
        0x08004fe2:    9801        ..      LDR      r0,[sp,#4]
        0x08004fe4:    9000        ..      STR      r0,[sp,#0]
        0x08004fe6:    f7fffaa5    ....    BL       _ZN2DoC1Ev ; 0x8004534
        0x08004fea:    9800        ..      LDR      r0,[sp,#0]
        0x08004fec:    3008        .0      ADDS     r0,r0,#8
        0x08004fee:    f7fffaa1    ....    BL       _ZN2DoC1Ev ; 0x8004534
        0x08004ff2:    9800        ..      LDR      r0,[sp,#0]
        0x08004ff4:    3010        .0      ADDS     r0,r0,#0x10
        0x08004ff6:    f7fff9f9    ....    BL       _ZN2DiC1Ev ; 0x80043ec
        0x08004ffa:    9800        ..      LDR      r0,[sp,#0]
        0x08004ffc:    f7ffff42    ..B.    BL       _ZN3Spi8init_intEv ; 0x8004e84
        0x08005000:    9800        ..      LDR      r0,[sp,#0]
        0x08005002:    f7ffff57    ..W.    BL       _ZN3Spi8init_pinEv ; 0x8004eb4
        0x08005006:    9800        ..      LDR      r0,[sp,#0]
        0x08005008:    f7ffff76    ..v.    BL       _ZN3Spi8init_spiEv ; 0x8004ef8
        0x0800500c:    9800        ..      LDR      r0,[sp,#0]
        0x0800500e:    f7fffbfd    ....    BL       _ZN3Spi11init_ss_pinEv ; 0x800480c
        0x08005012:    9800        ..      LDR      r0,[sp,#0]
        0x08005014:    f7fffc20    .. .    BL       _ZN3Spi12init_rst_pinEv ; 0x8004858
        0x08005018:    9800        ..      LDR      r0,[sp,#0]
        0x0800501a:    f7fffc09    ....    BL       _ZN3Spi12init_int_pinEv ; 0x8004830
        0x0800501e:    9800        ..      LDR      r0,[sp,#0]
        0x08005020:    b002        ..      ADD      sp,sp,#8
        0x08005022:    bd80        ..      POP      {r7,pc}
    _ZN3SpiD1Ev
    _ZN3SpiD2Ev
        0x08005024:    b580        ..      PUSH     {r7,lr}
        0x08005026:    b082        ..      SUB      sp,sp,#8
        0x08005028:    9001        ..      STR      r0,[sp,#4]
        0x0800502a:    9801        ..      LDR      r0,[sp,#4]
        0x0800502c:    9000        ..      STR      r0,[sp,#0]
        0x0800502e:    3010        .0      ADDS     r0,r0,#0x10
        0x08005030:    f7fff9e2    ....    BL       _ZN2DiD1Ev ; 0x80043f8
        0x08005034:    9800        ..      LDR      r0,[sp,#0]
        0x08005036:    3008        .0      ADDS     r0,r0,#8
        0x08005038:    f7fffa82    ....    BL       _ZN2DoD1Ev ; 0x8004540
        0x0800503c:    9800        ..      LDR      r0,[sp,#0]
        0x0800503e:    f7fffa7f    ....    BL       _ZN2DoD1Ev ; 0x8004540
        0x08005042:    9800        ..      LDR      r0,[sp,#0]
        0x08005044:    b002        ..      ADD      sp,sp,#8
        0x08005046:    bd80        ..      POP      {r7,pc}
    _ZN4Uart4initEj
        0x08005048:    b580        ..      PUSH     {r7,lr}
        0x0800504a:    b088        ..      SUB      sp,sp,#0x20
        0x0800504c:    9007        ..      STR      r0,[sp,#0x1c]
        0x0800504e:    9106        ..      STR      r1,[sp,#0x18]
        0x08005050:    9806        ..      LDR      r0,[sp,#0x18]
        0x08005052:    9002        ..      STR      r0,[sp,#8]
        0x08005054:    2000        .       MOVS     r0,#0
        0x08005056:    f8ad000c    ....    STRH     r0,[sp,#0xc]
        0x0800505a:    f8ad000e    ....    STRH     r0,[sp,#0xe]
        0x0800505e:    f8ad0010    ....    STRH     r0,[sp,#0x10]
        0x08005062:    f8ad0014    ....    STRH     r0,[sp,#0x14]
        0x08005066:    200c        .       MOVS     r0,#0xc
        0x08005068:    f8ad0012    ....    STRH     r0,[sp,#0x12]
        0x0800506c:    f6440000    D...    MOVW     r0,#0x4800
        0x08005070:    f2c40000    ....    MOVT     r0,#0x4000
        0x08005074:    9000        ..      STR      r0,[sp,#0]
        0x08005076:    a902        ..      ADD      r1,sp,#8
        0x08005078:    f7fefb02    ....    BL       USART_Init ; 0x8003680
        0x0800507c:    9800        ..      LDR      r0,[sp,#0]
        0x0800507e:    f2405125    @.%Q    MOV      r1,#0x525
        0x08005082:    2201        ."      MOVS     r2,#1
        0x08005084:    9201        ..      STR      r2,[sp,#4]
        0x08005086:    f7fefa21    ..!.    BL       USART_ConfigInt ; 0x80034cc
        0x0800508a:    9800        ..      LDR      r0,[sp,#0]
        0x0800508c:    9901        ..      LDR      r1,[sp,#4]
        0x0800508e:    f7fefa67    ..g.    BL       USART_Enable ; 0x8003560
        0x08005092:    b008        ..      ADD      sp,sp,#0x20
        0x08005094:    bd80        ..      POP      {r7,pc}
        0x08005096:    0000        ..      MOVS     r0,r0
    _ZN4Uart8init_pinEv
        0x08005098:    b580        ..      PUSH     {r7,lr}
        0x0800509a:    b086        ..      SUB      sp,sp,#0x18
        0x0800509c:    9005        ..      STR      r0,[sp,#0x14]
        0x0800509e:    f44f6080    O..`    MOV      r0,#0x400
        0x080050a2:    f8ad0010    ....    STRH     r0,[sp,#0x10]
        0x080050a6:    2003        .       MOVS     r0,#3
        0x080050a8:    9001        ..      STR      r0,[sp,#4]
        0x080050aa:    f88d0012    ....    STRB     r0,[sp,#0x12]
        0x080050ae:    2018        .       MOVS     r0,#0x18
        0x080050b0:    f88d0013    ....    STRB     r0,[sp,#0x13]
        0x080050b4:    f6404000    @..@    MOVW     r0,#0xc00
        0x080050b8:    f2c40001    ....    MOVT     r0,#0x4001
        0x080050bc:    9002        ..      STR      r0,[sp,#8]
        0x080050be:    a904        ..      ADD      r1,sp,#0x10
        0x080050c0:    9103        ..      STR      r1,[sp,#0xc]
        0x080050c2:    f7fdfa77    ..w.    BL       GPIO_InitPeripheral ; 0x80025b4
        0x080050c6:    9a01        ..      LDR      r2,[sp,#4]
        0x080050c8:    9802        ..      LDR      r0,[sp,#8]
        0x080050ca:    9903        ..      LDR      r1,[sp,#0xc]
        0x080050cc:    f44f6300    O..c    MOV      r3,#0x800
        0x080050d0:    f8ad3010    ...0    STRH     r3,[sp,#0x10]
        0x080050d4:    f88d2012    ...     STRB     r2,[sp,#0x12]
        0x080050d8:    2204        ."      MOVS     r2,#4
        0x080050da:    f88d2013    ...     STRB     r2,[sp,#0x13]
        0x080050de:    f7fdfa69    ..i.    BL       GPIO_InitPeripheral ; 0x80025b4
        0x080050e2:    b006        ..      ADD      sp,sp,#0x18
        0x080050e4:    bd80        ..      POP      {r7,pc}
        0x080050e6:    0000        ..      MOVS     r0,r0
    _ZN4Uart9init_nvicEv
        0x080050e8:    b580        ..      PUSH     {r7,lr}
        0x080050ea:    b082        ..      SUB      sp,sp,#8
        0x080050ec:    9001        ..      STR      r0,[sp,#4]
        0x080050ee:    f44f60e0    O..`    MOV      r0,#0x700
        0x080050f2:    f7fdfc07    ....    BL       NVIC_PriorityGroupConfig ; 0x8002904
        0x080050f6:    2027        '       MOVS     r0,#0x27
        0x080050f8:    f88d0000    ....    STRB     r0,[sp,#0]
        0x080050fc:    2000        .       MOVS     r0,#0
        0x080050fe:    f88d0002    ....    STRB     r0,[sp,#2]
        0x08005102:    2001        .       MOVS     r0,#1
        0x08005104:    f88d0003    ....    STRB     r0,[sp,#3]
        0x08005108:    4668        hF      MOV      r0,sp
        0x0800510a:    f7fdfba5    ....    BL       NVIC_Init ; 0x8002858
        0x0800510e:    b002        ..      ADD      sp,sp,#8
        0x08005110:    bd80        ..      POP      {r7,pc}
        0x08005112:    0000        ..      MOVS     r0,r0
    _ZN4UartC1Ev
    _ZN4UartC2Ev
        0x08005114:    b580        ..      PUSH     {r7,lr}
        0x08005116:    b082        ..      SUB      sp,sp,#8
        0x08005118:    9001        ..      STR      r0,[sp,#4]
        0x0800511a:    9801        ..      LDR      r0,[sp,#4]
        0x0800511c:    9000        ..      STR      r0,[sp,#0]
        0x0800511e:    f7ffffbb    ....    BL       _ZN4Uart8init_pinEv ; 0x8005098
        0x08005122:    9800        ..      LDR      r0,[sp,#0]
        0x08005124:    f44f31e1    O..1    MOV      r1,#0x1c200
        0x08005128:    f7ffff8e    ....    BL       _ZN4Uart4initEj ; 0x8005048
        0x0800512c:    9800        ..      LDR      r0,[sp,#0]
        0x0800512e:    f7ffffdb    ....    BL       _ZN4Uart9init_nvicEv ; 0x80050e8
        0x08005132:    9800        ..      LDR      r0,[sp,#0]
        0x08005134:    b002        ..      ADD      sp,sp,#8
        0x08005136:    bd80        ..      POP      {r7,pc}
    _ZN4UartD1Ev
    _ZN4UartD2Ev
        0x08005138:    b081        ..      SUB      sp,sp,#4
        0x0800513a:    9000        ..      STR      r0,[sp,#0]
        0x0800513c:    9800        ..      LDR      r0,[sp,#0]
        0x0800513e:    b001        ..      ADD      sp,sp,#4
        0x08005140:    4770        pG      BX       lr
        0x08005142:    0000        ..      MOVS     r0,r0
    _ZN5Shell4initEv
        0x08005144:    b580        ..      PUSH     {r7,lr}
        0x08005146:    b082        ..      SUB      sp,sp,#8
        0x08005148:    9001        ..      STR      r0,[sp,#4]
        0x0800514a:    f64010bc    @...    MOV      r0,#0x9bc
        0x0800514e:    f2c20000    ....    MOVT     r0,#0x2000
        0x08005152:    f000facd    ....    BL       ansi_init ; 0x80056f0
        0x08005156:    f2400028    @.(.    MOVW     r0,#0x28
        0x0800515a:    f2c20000    ....    MOVT     r0,#0x2000
        0x0800515e:    f000f991    ....    BL       _shell_init ; 0x8005484
        0x08005162:    b002        ..      ADD      sp,sp,#8
        0x08005164:    bd80        ..      POP      {r7,pc}
        0x08005166:    0000        ..      MOVS     r0,r0
    _ZN5ShellC1Ev
    _ZN5ShellC2Ev
        0x08005168:    b580        ..      PUSH     {r7,lr}
        0x0800516a:    b082        ..      SUB      sp,sp,#8
        0x0800516c:    9001        ..      STR      r0,[sp,#4]
        0x0800516e:    9801        ..      LDR      r0,[sp,#4]
        0x08005170:    9000        ..      STR      r0,[sp,#0]
        0x08005172:    f7ffffe7    ....    BL       _ZN5Shell4initEv ; 0x8005144
        0x08005176:    9800        ..      LDR      r0,[sp,#0]
        0x08005178:    b002        ..      ADD      sp,sp,#8
        0x0800517a:    bd80        ..      POP      {r7,pc}
    _ZN5ShellD1Ev
    _ZN5ShellD2Ev
        0x0800517c:    b081        ..      SUB      sp,sp,#4
        0x0800517e:    9000        ..      STR      r0,[sp,#0]
        0x08005180:    9800        ..      LDR      r0,[sp,#0]
        0x08005182:    b001        ..      ADD      sp,sp,#4
        0x08005184:    4770        pG      BX       lr
        0x08005186:    0000        ..      MOVS     r0,r0
    _ZN7Systick4initEv
        0x08005188:    b580        ..      PUSH     {r7,lr}
        0x0800518a:    b082        ..      SUB      sp,sp,#8
        0x0800518c:    9001        ..      STR      r0,[sp,#4]
        0x0800518e:    f240000c    @...    MOVW     r0,#0xc
        0x08005192:    f2c20000    ....    MOVT     r0,#0x2000
        0x08005196:    6800        .h      LDR      r0,[r0,#0]
        0x08005198:    f64451d3    D..Q    MOV      r1,#0x4dd3
        0x0800519c:    f2c10162    ..b.    MOVT     r1,#0x1062
        0x080051a0:    fba01001    ....    UMULL    r1,r0,r0,r1
        0x080051a4:    0980        ..      LSRS     r0,r0,#6
        0x080051a6:    f7fff80f    ....    BL       _ZL14SysTick_Configj ; 0x80041c8
        0x080051aa:    b110        ..      CBZ      r0,0x80051b2 ; _ZN7Systick4initEv + 42
        0x080051ac:    e7ff        ..      B        0x80051ae ; _ZN7Systick4initEv + 38
        0x080051ae:    e7ff        ..      B        0x80051b0 ; _ZN7Systick4initEv + 40
        0x080051b0:    e7fe        ..      B        0x80051b0 ; _ZN7Systick4initEv + 40
        0x080051b2:    f04f30ff    O..0    MOV      r0,#0xffffffff
        0x080051b6:    2100        .!      MOVS     r1,#0
        0x080051b8:    f7fff830    ..0.    BL       _ZL18__NVIC_SetPriority4IRQnj ; 0x800421c
        0x080051bc:    b002        ..      ADD      sp,sp,#8
        0x080051be:    bd80        ..      POP      {r7,pc}
    _ZN7Systick8delay_msEj
        0x080051c0:    b082        ..      SUB      sp,sp,#8
        0x080051c2:    9001        ..      STR      r0,[sp,#4]
        0x080051c4:    9100        ..      STR      r1,[sp,#0]
        0x080051c6:    9800        ..      LDR      r0,[sp,#0]
        0x080051c8:    f64011b0    @...    MOVW     r1,#0x9b0
        0x080051cc:    f2c20100    ....    MOVT     r1,#0x2000
        0x080051d0:    6008        .`      STR      r0,[r1,#0]
        0x080051d2:    e7ff        ..      B        0x80051d4 ; _ZN7Systick8delay_msEj + 20
        0x080051d4:    f64010b0    @...    MOVW     r0,#0x9b0
        0x080051d8:    f2c20000    ....    MOVT     r0,#0x2000
        0x080051dc:    6800        .h      LDR      r0,[r0,#0]
        0x080051de:    b108        ..      CBZ      r0,0x80051e4 ; _ZN7Systick8delay_msEj + 36
        0x080051e0:    e7ff        ..      B        0x80051e2 ; _ZN7Systick8delay_msEj + 34
        0x080051e2:    e7f7        ..      B        0x80051d4 ; _ZN7Systick8delay_msEj + 20
        0x080051e4:    b002        ..      ADD      sp,sp,#8
        0x080051e6:    4770        pG      BX       lr
    _ZN7SystickC1Ev
    _ZN7SystickC2Ev
        0x080051e8:    b580        ..      PUSH     {r7,lr}
        0x080051ea:    b082        ..      SUB      sp,sp,#8
        0x080051ec:    9001        ..      STR      r0,[sp,#4]
        0x080051ee:    9801        ..      LDR      r0,[sp,#4]
        0x080051f0:    9000        ..      STR      r0,[sp,#0]
        0x080051f2:    f7ffffc9    ....    BL       _ZN7Systick4initEv ; 0x8005188
        0x080051f6:    9800        ..      LDR      r0,[sp,#0]
        0x080051f8:    b002        ..      ADD      sp,sp,#8
        0x080051fa:    bd80        ..      POP      {r7,pc}
    _ZN7SystickD1Ev
    _ZN7SystickD2Ev
        0x080051fc:    b081        ..      SUB      sp,sp,#4
        0x080051fe:    9000        ..      STR      r0,[sp,#0]
        0x08005200:    9800        ..      LDR      r0,[sp,#0]
        0x08005202:    b001        ..      ADD      sp,sp,#4
        0x08005204:    4770        pG      BX       lr
        0x08005206:    0000        ..      MOVS     r0,r0
    _ZN8DWTDelay4initEj
        0x08005208:    b082        ..      SUB      sp,sp,#8
        0x0800520a:    9001        ..      STR      r0,[sp,#4]
        0x0800520c:    9100        ..      STR      r1,[sp,#0]
        0x0800520e:    9901        ..      LDR      r1,[sp,#4]
        0x08005210:    f64e52fc    N..R    MOV      r2,#0xedfc
        0x08005214:    f2ce0200    ....    MOVT     r2,#0xe000
        0x08005218:    6810        .h      LDR      r0,[r2,#0]
        0x0800521a:    f0407080    @..p    ORR      r0,r0,#0x1000000
        0x0800521e:    6010        .`      STR      r0,[r2,#0]
        0x08005220:    f2410200    A...    MOVW     r2,#0x1000
        0x08005224:    f2ce0200    ....    MOVT     r2,#0xe000
        0x08005228:    6810        .h      LDR      r0,[r2,#0]
        0x0800522a:    f0400001    @...    ORR      r0,r0,#1
        0x0800522e:    6010        .`      STR      r0,[r2,#0]
        0x08005230:    9800        ..      LDR      r0,[sp,#0]
        0x08005232:    6008        .`      STR      r0,[r1,#0]
        0x08005234:    b002        ..      ADD      sp,sp,#8
        0x08005236:    4770        pG      BX       lr
    _ZN8DWTDelay8delay_msEj
        0x08005238:    b580        ..      PUSH     {r7,lr}
        0x0800523a:    b082        ..      SUB      sp,sp,#8
        0x0800523c:    9001        ..      STR      r0,[sp,#4]
        0x0800523e:    9100        ..      STR      r1,[sp,#0]
        0x08005240:    9801        ..      LDR      r0,[sp,#4]
        0x08005242:    9900        ..      LDR      r1,[sp,#0]
        0x08005244:    f44f727a    O.zr    MOV      r2,#0x3e8
        0x08005248:    4351        QC      MULS     r1,r2,r1
        0x0800524a:    f000f803    ....    BL       _ZN8DWTDelay8delay_usEj ; 0x8005254
        0x0800524e:    b002        ..      ADD      sp,sp,#8
        0x08005250:    bd80        ..      POP      {r7,pc}
        0x08005252:    0000        ..      MOVS     r0,r0
    _ZN8DWTDelay8delay_usEj
        0x08005254:    b085        ..      SUB      sp,sp,#0x14
        0x08005256:    9004        ..      STR      r0,[sp,#0x10]
        0x08005258:    9103        ..      STR      r1,[sp,#0xc]
        0x0800525a:    9904        ..      LDR      r1,[sp,#0x10]
        0x0800525c:    f2410004    A...    MOV      r0,#0x1004
        0x08005260:    f2ce0000    ....    MOVT     r0,#0xe000
        0x08005264:    6800        .h      LDR      r0,[r0,#0]
        0x08005266:    9002        ..      STR      r0,[sp,#8]
        0x08005268:    9803        ..      LDR      r0,[sp,#0xc]
        0x0800526a:    6809        .h      LDR      r1,[r1,#0]
        0x0800526c:    f64d6283    M..b    MOV      r2,#0xde83
        0x08005270:    f2c4321b    ...2    MOVT     r2,#0x431b
        0x08005274:    fba12102    ...!    UMULL    r2,r1,r1,r2
        0x08005278:    0c89        ..      LSRS     r1,r1,#18
        0x0800527a:    4348        HC      MULS     r0,r1,r0
        0x0800527c:    9000        ..      STR      r0,[sp,#0]
        0x0800527e:    9802        ..      LDR      r0,[sp,#8]
        0x08005280:    9900        ..      LDR      r1,[sp,#0]
        0x08005282:    4408        .D      ADD      r0,r0,r1
        0x08005284:    9001        ..      STR      r0,[sp,#4]
        0x08005286:    9801        ..      LDR      r0,[sp,#4]
        0x08005288:    9902        ..      LDR      r1,[sp,#8]
        0x0800528a:    4288        .B      CMP      r0,r1
        0x0800528c:    dd0c        ..      BLE      0x80052a8 ; _ZN8DWTDelay8delay_usEj + 84
        0x0800528e:    e7ff        ..      B        0x8005290 ; _ZN8DWTDelay8delay_usEj + 60
        0x08005290:    e7ff        ..      B        0x8005292 ; _ZN8DWTDelay8delay_usEj + 62
        0x08005292:    f2410004    A...    MOV      r0,#0x1004
        0x08005296:    f2ce0000    ....    MOVT     r0,#0xe000
        0x0800529a:    6800        .h      LDR      r0,[r0,#0]
        0x0800529c:    9901        ..      LDR      r1,[sp,#4]
        0x0800529e:    4288        .B      CMP      r0,r1
        0x080052a0:    d201        ..      BCS      0x80052a6 ; _ZN8DWTDelay8delay_usEj + 82
        0x080052a2:    e7ff        ..      B        0x80052a4 ; _ZN8DWTDelay8delay_usEj + 80
        0x080052a4:    e7f5        ..      B        0x8005292 ; _ZN8DWTDelay8delay_usEj + 62
        0x080052a6:    e016        ..      B        0x80052d6 ; _ZN8DWTDelay8delay_usEj + 130
        0x080052a8:    e7ff        ..      B        0x80052aa ; _ZN8DWTDelay8delay_usEj + 86
        0x080052aa:    f2410004    A...    MOV      r0,#0x1004
        0x080052ae:    f2ce0000    ....    MOVT     r0,#0xe000
        0x080052b2:    6800        .h      LDR      r0,[r0,#0]
        0x080052b4:    9901        ..      LDR      r1,[sp,#4]
        0x080052b6:    4288        .B      CMP      r0,r1
        0x080052b8:    d301        ..      BCC      0x80052be ; _ZN8DWTDelay8delay_usEj + 106
        0x080052ba:    e7ff        ..      B        0x80052bc ; _ZN8DWTDelay8delay_usEj + 104
        0x080052bc:    e7f5        ..      B        0x80052aa ; _ZN8DWTDelay8delay_usEj + 86
        0x080052be:    e7ff        ..      B        0x80052c0 ; _ZN8DWTDelay8delay_usEj + 108
        0x080052c0:    f2410004    A...    MOV      r0,#0x1004
        0x080052c4:    f2ce0000    ....    MOVT     r0,#0xe000
        0x080052c8:    6800        .h      LDR      r0,[r0,#0]
        0x080052ca:    9901        ..      LDR      r1,[sp,#4]
        0x080052cc:    4288        .B      CMP      r0,r1
        0x080052ce:    d201        ..      BCS      0x80052d4 ; _ZN8DWTDelay8delay_usEj + 128
        0x080052d0:    e7ff        ..      B        0x80052d2 ; _ZN8DWTDelay8delay_usEj + 126
        0x080052d2:    e7f5        ..      B        0x80052c0 ; _ZN8DWTDelay8delay_usEj + 108
        0x080052d4:    e7ff        ..      B        0x80052d6 ; _ZN8DWTDelay8delay_usEj + 130
        0x080052d6:    b005        ..      ADD      sp,sp,#0x14
        0x080052d8:    4770        pG      BX       lr
        0x080052da:    0000        ..      MOVS     r0,r0
    _ZN8DWTDelayC1Ev
    _ZN8DWTDelayC2Ev
        0x080052dc:    b580        ..      PUSH     {r7,lr}
        0x080052de:    b088        ..      SUB      sp,sp,#0x20
        0x080052e0:    9007        ..      STR      r0,[sp,#0x1c]
        0x080052e2:    9807        ..      LDR      r0,[sp,#0x1c]
        0x080052e4:    9000        ..      STR      r0,[sp,#0]
        0x080052e6:    a801        ..      ADD      r0,sp,#4
        0x080052e8:    f7fdfb80    ....    BL       RCC_GetClocksFreqValue ; 0x80029ec
        0x080052ec:    9800        ..      LDR      r0,[sp,#0]
        0x080052ee:    9901        ..      LDR      r1,[sp,#4]
        0x080052f0:    f7ffff8a    ....    BL       _ZN8DWTDelay4initEj ; 0x8005208
        0x080052f4:    9800        ..      LDR      r0,[sp,#0]
        0x080052f6:    b008        ..      ADD      sp,sp,#0x20
        0x080052f8:    bd80        ..      POP      {r7,pc}
        0x080052fa:    0000        ..      MOVS     r0,r0
    _ZN8DWTDelayD1Ev
    _ZN8DWTDelayD2Ev
        0x080052fc:    b081        ..      SUB      sp,sp,#4
        0x080052fe:    9000        ..      STR      r0,[sp,#0]
        0x08005300:    9800        ..      LDR      r0,[sp,#0]
        0x08005302:    b001        ..      ADD      sp,sp,#4
        0x08005304:    4770        pG      BX       lr
        0x08005306:    0000        ..      MOVS     r0,r0
    _ZN8HardwareC1Ev
    _ZN8HardwareC2Ev
        0x08005308:    b580        ..      PUSH     {r7,lr}
        0x0800530a:    b084        ..      SUB      sp,sp,#0x10
        0x0800530c:    9003        ..      STR      r0,[sp,#0xc]
        0x0800530e:    9803        ..      LDR      r0,[sp,#0xc]
        0x08005310:    9002        ..      STR      r0,[sp,#8]
        0x08005312:    f7fff9b9    ....    BL       _ZN3ClkC1Ev ; 0x8004688
        0x08005316:    9802        ..      LDR      r0,[sp,#8]
        0x08005318:    3004        .0      ADDS     r0,#4
        0x0800531a:    f7fffefb    ....    BL       _ZN4UartC1Ev ; 0x8005114
        0x0800531e:    9802        ..      LDR      r0,[sp,#8]
        0x08005320:    3008        .0      ADDS     r0,r0,#8
        0x08005322:    9001        ..      STR      r0,[sp,#4]
        0x08005324:    f7fff906    ....    BL       _ZN2DoC1Ev ; 0x8004534
        0x08005328:    9802        ..      LDR      r0,[sp,#8]
        0x0800532a:    3010        .0      ADDS     r0,r0,#0x10
        0x0800532c:    f7fffe56    ..V.    BL       _ZN3SpiC1Ev ; 0x8004fdc
        0x08005330:    9801        ..      LDR      r0,[sp,#4]
        0x08005332:    f6400100    @...    MOVW     r1,#0x800
        0x08005336:    f2c40101    ....    MOVT     r1,#0x4001
        0x0800533a:    f44f7280    O..r    MOV      r2,#0x100
        0x0800533e:    f7fff871    ..q.    BL       _ZN2Do8init_pinEP11GPIO_Modulet ; 0x8004424
        0x08005342:    9801        ..      LDR      r0,[sp,#4]
        0x08005344:    f7fff866    ..f.    BL       _ZN2Do4highEv ; 0x8004414
        0x08005348:    9802        ..      LDR      r0,[sp,#8]
        0x0800534a:    b004        ..      ADD      sp,sp,#0x10
        0x0800534c:    bd80        ..      POP      {r7,pc}
        0x0800534e:    0000        ..      MOVS     r0,r0
    _ZN8HardwareD1Ev
    _ZN8HardwareD2Ev
        0x08005350:    b580        ..      PUSH     {r7,lr}
        0x08005352:    b082        ..      SUB      sp,sp,#8
        0x08005354:    9001        ..      STR      r0,[sp,#4]
        0x08005356:    9801        ..      LDR      r0,[sp,#4]
        0x08005358:    9000        ..      STR      r0,[sp,#0]
        0x0800535a:    3010        .0      ADDS     r0,r0,#0x10
        0x0800535c:    f7fffe62    ..b.    BL       _ZN3SpiD1Ev ; 0x8005024
        0x08005360:    9800        ..      LDR      r0,[sp,#0]
        0x08005362:    3008        .0      ADDS     r0,r0,#8
        0x08005364:    f7fff8ec    ....    BL       _ZN2DoD1Ev ; 0x8004540
        0x08005368:    9800        ..      LDR      r0,[sp,#0]
        0x0800536a:    3004        .0      ADDS     r0,#4
        0x0800536c:    f7fffee4    ....    BL       _ZN4UartD1Ev ; 0x8005138
        0x08005370:    9800        ..      LDR      r0,[sp,#0]
        0x08005372:    f7fff9c5    ....    BL       _ZN3ClkD1Ev ; 0x8004700
        0x08005376:    9800        ..      LDR      r0,[sp,#0]
        0x08005378:    b002        ..      ADD      sp,sp,#8
        0x0800537a:    bd80        ..      POP      {r7,pc}
    __cxx_global_var_init
        0x0800537c:    b580        ..      PUSH     {r7,lr}
        0x0800537e:    b082        ..      SUB      sp,sp,#8
        0x08005380:    f6402044    @.D     MOV      r0,#0xa44
        0x08005384:    f2c20000    ....    MOVT     r0,#0x2000
        0x08005388:    9001        ..      STR      r0,[sp,#4]
        0x0800538a:    f7fff9ff    ....    BL       _ZN3RttC1Ev ; 0x800478c
        0x0800538e:    9901        ..      LDR      r1,[sp,#4]
        0x08005390:    f24470a1    D..p    MOV      r0,#0x47a1
        0x08005394:    f6c00000    ....    MOVT     r0,#0x800
        0x08005398:    f2400200    @...    MOVW     r2,#0
        0x0800539c:    f6c00200    ....    MOVT     r2,#0x800
        0x080053a0:    f7fbf844    ..D.    BL       __cxa_atexit ; 0x800042c
        0x080053a4:    b002        ..      ADD      sp,sp,#8
        0x080053a6:    bd80        ..      POP      {r7,pc}
    __cxx_global_var_init.1
        0x080053a8:    b580        ..      PUSH     {r7,lr}
        0x080053aa:    b082        ..      SUB      sp,sp,#8
        0x080053ac:    f6401084    @...    MOV      r0,#0x984
        0x080053b0:    f2c20000    ....    MOVT     r0,#0x2000
        0x080053b4:    9001        ..      STR      r0,[sp,#4]
        0x080053b6:    f7ffffa7    ....    BL       _ZN8HardwareC1Ev ; 0x8005308
        0x080053ba:    9901        ..      LDR      r1,[sp,#4]
        0x080053bc:    f2453051    E.Q0    MOV      r0,#0x5351
        0x080053c0:    f6c00000    ....    MOVT     r0,#0x800
        0x080053c4:    f2400200    @...    MOVW     r2,#0
        0x080053c8:    f6c00200    ....    MOVT     r2,#0x800
        0x080053cc:    f7fbf82e    ....    BL       __cxa_atexit ; 0x800042c
        0x080053d0:    b002        ..      ADD      sp,sp,#8
        0x080053d2:    bd80        ..      POP      {r7,pc}
    __cxx_global_var_init.2
        0x080053d4:    b580        ..      PUSH     {r7,lr}
        0x080053d6:    b082        ..      SUB      sp,sp,#8
        0x080053d8:    f64010b8    @...    MOV      r0,#0x9b8
        0x080053dc:    f2c20000    ....    MOVT     r0,#0x2000
        0x080053e0:    9001        ..      STR      r0,[sp,#4]
        0x080053e2:    f7fffec1    ....    BL       _ZN5ShellC1Ev ; 0x8005168
        0x080053e6:    9901        ..      LDR      r1,[sp,#4]
        0x080053e8:    f245107d    E.}.    MOV      r0,#0x517d
        0x080053ec:    f6c00000    ....    MOVT     r0,#0x800
        0x080053f0:    f2400200    @...    MOVW     r2,#0
        0x080053f4:    f6c00200    ....    MOVT     r2,#0x800
        0x080053f8:    f7fbf818    ....    BL       __cxa_atexit ; 0x800042c
        0x080053fc:    b002        ..      ADD      sp,sp,#8
        0x080053fe:    bd80        ..      POP      {r7,pc}
    __cxx_global_var_init.3
        0x08005400:    b580        ..      PUSH     {r7,lr}
        0x08005402:    b082        ..      SUB      sp,sp,#8
        0x08005404:    f64010ac    @...    MOV      r0,#0x9ac
        0x08005408:    f2c20000    ....    MOVT     r0,#0x2000
        0x0800540c:    9001        ..      STR      r0,[sp,#4]
        0x0800540e:    f7fff8fd    ....    BL       _ZN3AppC1Ev ; 0x800460c
        0x08005412:    9901        ..      LDR      r1,[sp,#4]
        0x08005414:    f244601d    D..`    MOV      r0,#0x461d
        0x08005418:    f6c00000    ....    MOVT     r0,#0x800
        0x0800541c:    f2400200    @...    MOVW     r2,#0
        0x08005420:    f6c00200    ....    MOVT     r2,#0x800
        0x08005424:    f7fbf802    ....    BL       __cxa_atexit ; 0x800042c
        0x08005428:    b002        ..      ADD      sp,sp,#8
        0x0800542a:    bd80        ..      POP      {r7,pc}
    __cxx_global_var_init.4
        0x0800542c:    b580        ..      PUSH     {r7,lr}
        0x0800542e:    b082        ..      SUB      sp,sp,#8
        0x08005430:    f64010b4    @...    MOV      r0,#0x9b4
        0x08005434:    f2c20000    ....    MOVT     r0,#0x2000
        0x08005438:    9001        ..      STR      r0,[sp,#4]
        0x0800543a:    f7ffff4f    ..O.    BL       _ZN8DWTDelayC1Ev ; 0x80052dc
        0x0800543e:    9901        ..      LDR      r1,[sp,#4]
        0x08005440:    f24520fd    E..     MOV      r0,#0x52fd
        0x08005444:    f6c00000    ....    MOVT     r0,#0x800
        0x08005448:    f2400200    @...    MOVW     r2,#0
        0x0800544c:    f6c00200    ....    MOVT     r2,#0x800
        0x08005450:    f7faffec    ....    BL       __cxa_atexit ; 0x800042c
        0x08005454:    b002        ..      ADD      sp,sp,#8
        0x08005456:    bd80        ..      POP      {r7,pc}
    __cxx_global_var_init.5
        0x08005458:    b580        ..      PUSH     {r7,lr}
        0x0800545a:    b082        ..      SUB      sp,sp,#8
        0x0800545c:    f6442044    D.D     MOV      r0,#0x4a44
        0x08005460:    f2c20000    ....    MOVT     r0,#0x2000
        0x08005464:    9001        ..      STR      r0,[sp,#4]
        0x08005466:    f7fffebf    ....    BL       _ZN7SystickC1Ev ; 0x80051e8
        0x0800546a:    9901        ..      LDR      r1,[sp,#4]
        0x0800546c:    f24510fd    E...    MOV      r0,#0x51fd
        0x08005470:    f6c00000    ....    MOVT     r0,#0x800
        0x08005474:    f2400200    @...    MOVW     r2,#0
        0x08005478:    f6c00200    ....    MOVT     r2,#0x800
        0x0800547c:    f7faffd6    ....    BL       __cxa_atexit ; 0x800042c
        0x08005480:    b002        ..      ADD      sp,sp,#8
        0x08005482:    bd80        ..      POP      {r7,pc}
    _shell_init
        0x08005484:    b580        ..      PUSH     {r7,lr}
        0x08005486:    b082        ..      SUB      sp,sp,#8
        0x08005488:    9001        ..      STR      r0,[sp,#4]
        0x0800548a:    f248500e    H..P    MOV      r0,#0x850e
        0x0800548e:    f6c00000    ....    MOVT     r0,#0x800
        0x08005492:    f7faff7b    ..{.    BL       printf ; 0x800038c
        0x08005496:    f2483063    H.c0    MOV      r0,#0x8363
        0x0800549a:    f6c00000    ....    MOVT     r0,#0x800
        0x0800549e:    f7faff75    ..u.    BL       printf ; 0x800038c
        0x080054a2:    f2484006    H..@    MOV      r0,#0x8406
        0x080054a6:    f6c00000    ....    MOVT     r0,#0x800
        0x080054aa:    f7faff6f    ..o.    BL       printf ; 0x800038c
        0x080054ae:    f248405a    H.Z@    MOV      r0,#0x845a
        0x080054b2:    f6c00000    ....    MOVT     r0,#0x800
        0x080054b6:    f7faff69    ..i.    BL       printf ; 0x800038c
        0x080054ba:    f2484084    H..@    MOV      r0,#0x8484
        0x080054be:    f6c00000    ....    MOVT     r0,#0x800
        0x080054c2:    f7faff63    ..c.    BL       printf ; 0x800038c
        0x080054c6:    f2484030    H.0@    MOV      r0,#0x8430
        0x080054ca:    f6c00000    ....    MOVT     r0,#0x800
        0x080054ce:    f7faff5d    ..].    BL       printf ; 0x800038c
        0x080054d2:    f24840ae    H..@    MOV      r0,#0x84ae
        0x080054d6:    f6c00000    ....    MOVT     r0,#0x800
        0x080054da:    f7faff57    ..W.    BL       printf ; 0x800038c
        0x080054de:    f2485007    H..P    MOV      r0,#0x8507
        0x080054e2:    f6c00000    ....    MOVT     r0,#0x800
        0x080054e6:    f7faff51    ..Q.    BL       printf ; 0x800038c
        0x080054ea:    f24840df    H..@    MOV      r0,#0x84df
        0x080054ee:    f6c00000    ....    MOVT     r0,#0x800
        0x080054f2:    f7faff4b    ..K.    BL       printf ; 0x800038c
        0x080054f6:    f24830a9    H..0    MOV      r0,#0x83a9
        0x080054fa:    f6c00000    ....    MOVT     r0,#0x800
        0x080054fe:    f7faff45    ..E.    BL       printf ; 0x800038c
        0x08005502:    f24830be    H..0    MOV      r0,#0x83be
        0x08005506:    f6c00000    ....    MOVT     r0,#0x800
        0x0800550a:    f7faff3f    ..?.    BL       printf ; 0x800038c
        0x0800550e:    f24830d7    H..0    MOV      r0,#0x83d7
        0x08005512:    f6c00000    ....    MOVT     r0,#0x800
        0x08005516:    f248116e    H.n.    MOV      r1,#0x816e
        0x0800551a:    f6c00100    ....    MOVT     r1,#0x800
        0x0800551e:    f2485209    H..R    MOV      r2,#0x8509
        0x08005522:    f6c00200    ....    MOVT     r2,#0x800
        0x08005526:    f7faff31    ..1.    BL       printf ; 0x800038c
        0x0800552a:    9901        ..      LDR      r1,[sp,#4]
        0x0800552c:    f2483060    H.`0    MOV      r0,#0x8360
        0x08005530:    f6c00000    ....    MOVT     r0,#0x800
        0x08005534:    f7faff2a    ..*.    BL       printf ; 0x800038c
        0x08005538:    9801        ..      LDR      r0,[sp,#4]
        0x0800553a:    3024        $0      ADDS     r0,r0,#0x24
        0x0800553c:    f001f878    ..x.    BL       shell_his_queue_init ; 0x8006630
        0x08005540:    9801        ..      LDR      r0,[sp,#4]
        0x08005542:    3024        $0      ADDS     r0,r0,#0x24
        0x08005544:    f24841d8    H..A    MOV      r1,#0x84d8
        0x08005548:    f6c00100    ....    MOVT     r1,#0x800
        0x0800554c:    f000ffb8    ....    BL       shell_his_queue_add_cmd ; 0x80064c0
        0x08005550:    9901        ..      LDR      r1,[sp,#4]
        0x08005552:    2001        .       MOVS     r0,#1
        0x08005554:    8548        H.      STRH     r0,[r1,#0x2a]
        0x08005556:    b002        ..      ADD      sp,sp,#8
        0x08005558:    bd80        ..      POP      {r7,pc}
        0x0800555a:    0000        ..      MOVS     r0,r0
    ansi_clear_current_line
        0x0800555c:    b081        ..      SUB      sp,sp,#4
        0x0800555e:    9000        ..      STR      r0,[sp,#0]
        0x08005560:    9900        ..      LDR      r1,[sp,#0]
        0x08005562:    2000        .       MOVS     r0,#0
        0x08005564:    6048        H`      STR      r0,[r1,#4]
        0x08005566:    9a00        ..      LDR      r2,[sp,#0]
        0x08005568:    f64f71ff    O..q    MOV      r1,#0xffff
        0x0800556c:    8011        ..      STRH     r1,[r2,#0]
        0x0800556e:    9900        ..      LDR      r1,[sp,#0]
        0x08005570:    684a        Jh      LDR      r2,[r1,#4]
        0x08005572:    4411        .D      ADD      r1,r1,r2
        0x08005574:    7208        .r      STRB     r0,[r1,#8]
        0x08005576:    b001        ..      ADD      sp,sp,#4
        0x08005578:    4770        pG      BX       lr
        0x0800557a:    0000        ..      MOVS     r0,r0
    ansi_get_char
        0x0800557c:    b580        ..      PUSH     {r7,lr}
        0x0800557e:    b084        ..      SUB      sp,sp,#0x10
        0x08005580:    f88d000f    ....    STRB     r0,[sp,#0xf]
        0x08005584:    9102        ..      STR      r1,[sp,#8]
        0x08005586:    f04f30ff    O..0    MOV      r0,#0xffffffff
        0x0800558a:    9001        ..      STR      r0,[sp,#4]
        0x0800558c:    f89d000f    ....    LDRB     r0,[sp,#0xf]
        0x08005590:    287f        .(      CMP      r0,#0x7f
        0x08005592:    d104        ..      BNE      0x800559e ; ansi_get_char + 34
        0x08005594:    e7ff        ..      B        0x8005596 ; ansi_get_char + 26
        0x08005596:    2008        .       MOVS     r0,#8
        0x08005598:    f88d000f    ....    STRB     r0,[sp,#0xf]
        0x0800559c:    e7ff        ..      B        0x800559e ; ansi_get_char + 34
        0x0800559e:    9802        ..      LDR      r0,[sp,#8]
        0x080055a0:    f8900081    ....    LDRB     r0,[r0,#0x81]
        0x080055a4:    2800        .(      CMP      r0,#0
        0x080055a6:    d141        A.      BNE      0x800562c ; ansi_get_char + 176
        0x080055a8:    e7ff        ..      B        0x80055aa ; ansi_get_char + 46
        0x080055aa:    f89d000f    ....    LDRB     r0,[sp,#0xf]
        0x080055ae:    f6477190    G..q    MOV      r1,#0x7f90
        0x080055b2:    f6c00100    ....    MOVT     r1,#0x800
        0x080055b6:    f000f8b1    ....    BL       ansi_search_char ; 0x800571c
        0x080055ba:    9001        ..      STR      r0,[sp,#4]
        0x080055bc:    9801        ..      LDR      r0,[sp,#4]
        0x080055be:    2800        .(      CMP      r0,#0
        0x080055c0:    d414        ..      BMI      0x80055ec ; ansi_get_char + 112
        0x080055c2:    e7ff        ..      B        0x80055c4 ; ansi_get_char + 72
        0x080055c4:    9901        ..      LDR      r1,[sp,#4]
        0x080055c6:    f6477098    G..p    MOV      r0,#0x7f98
        0x080055ca:    f6c00000    ....    MOVT     r0,#0x800
        0x080055ce:    f8500021    P.!.    LDR      r0,[r0,r1,LSL #2]
        0x080055d2:    b150        P.      CBZ      r0,0x80055ea ; ansi_get_char + 110
        0x080055d4:    e7ff        ..      B        0x80055d6 ; ansi_get_char + 90
        0x080055d6:    9901        ..      LDR      r1,[sp,#4]
        0x080055d8:    f6477098    G..p    MOV      r0,#0x7f98
        0x080055dc:    f6c00000    ....    MOVT     r0,#0x800
        0x080055e0:    f8501021    P.!.    LDR      r1,[r0,r1,LSL #2]
        0x080055e4:    9802        ..      LDR      r0,[sp,#8]
        0x080055e6:    4788        .G      BLX      r1
        0x080055e8:    e7ff        ..      B        0x80055ea ; ansi_get_char + 110
        0x080055ea:    e01e        ..      B        0x800562a ; ansi_get_char + 174
        0x080055ec:    f89d000f    ....    LDRB     r0,[sp,#0xf]
        0x080055f0:    281b        .(      CMP      r0,#0x1b
        0x080055f2:    d113        ..      BNE      0x800561c ; ansi_get_char + 160
        0x080055f4:    e7ff        ..      B        0x80055f6 ; ansi_get_char + 122
        0x080055f6:    9902        ..      LDR      r1,[sp,#8]
        0x080055f8:    2002        .       MOVS     r0,#2
        0x080055fa:    f8810081    ....    STRB     r0,[r1,#0x81]
        0x080055fe:    f89d000f    ....    LDRB     r0,[sp,#0xf]
        0x08005602:    9902        ..      LDR      r1,[sp,#8]
        0x08005604:    f8912080    ...     LDRB     r2,[r1,#0x80]
        0x08005608:    4411        .D      ADD      r1,r1,r2
        0x0800560a:    f881006c    ..l.    STRB     r0,[r1,#0x6c]
        0x0800560e:    9902        ..      LDR      r1,[sp,#8]
        0x08005610:    f8910080    ....    LDRB     r0,[r1,#0x80]
        0x08005614:    3001        .0      ADDS     r0,#1
        0x08005616:    f8810080    ....    STRB     r0,[r1,#0x80]
        0x0800561a:    e005        ..      B        0x8005628 ; ansi_get_char + 172
        0x0800561c:    9802        ..      LDR      r0,[sp,#8]
        0x0800561e:    f89d100f    ....    LDRB     r1,[sp,#0xf]
        0x08005622:    f000fb2b    ..+.    BL       nr_ansi_common_char_slover ; 0x8005c7c
        0x08005626:    e7ff        ..      B        0x8005628 ; ansi_get_char + 172
        0x08005628:    e7ff        ..      B        0x800562a ; ansi_get_char + 174
        0x0800562a:    e05d        ].      B        0x80056e8 ; ansi_get_char + 364
        0x0800562c:    9802        ..      LDR      r0,[sp,#8]
        0x0800562e:    f8900081    ....    LDRB     r0,[r0,#0x81]
        0x08005632:    2802        .(      CMP      r0,#2
        0x08005634:    d152        R.      BNE      0x80056dc ; ansi_get_char + 352
        0x08005636:    e7ff        ..      B        0x8005638 ; ansi_get_char + 188
        0x08005638:    f89d000f    ....    LDRB     r0,[sp,#0xf]
        0x0800563c:    9902        ..      LDR      r1,[sp,#8]
        0x0800563e:    f8912080    ...     LDRB     r2,[r1,#0x80]
        0x08005642:    4411        .D      ADD      r1,r1,r2
        0x08005644:    f881006c    ..l.    STRB     r0,[r1,#0x6c]
        0x08005648:    f89d000f    ....    LDRB     r0,[sp,#0xf]
        0x0800564c:    2861        a(      CMP      r0,#0x61
        0x0800564e:    db05        ..      BLT      0x800565c ; ansi_get_char + 224
        0x08005650:    e7ff        ..      B        0x8005652 ; ansi_get_char + 214
        0x08005652:    f89d000f    ....    LDRB     r0,[sp,#0xf]
        0x08005656:    287b        {(      CMP      r0,#0x7b
        0x08005658:    db0f        ..      BLT      0x800567a ; ansi_get_char + 254
        0x0800565a:    e7ff        ..      B        0x800565c ; ansi_get_char + 224
        0x0800565c:    f89d000f    ....    LDRB     r0,[sp,#0xf]
        0x08005660:    2841        A(      CMP      r0,#0x41
        0x08005662:    db05        ..      BLT      0x8005670 ; ansi_get_char + 244
        0x08005664:    e7ff        ..      B        0x8005666 ; ansi_get_char + 234
        0x08005666:    f89d000f    ....    LDRB     r0,[sp,#0xf]
        0x0800566a:    285b        [(      CMP      r0,#0x5b
        0x0800566c:    db05        ..      BLT      0x800567a ; ansi_get_char + 254
        0x0800566e:    e7ff        ..      B        0x8005670 ; ansi_get_char + 244
        0x08005670:    f89d000f    ....    LDRB     r0,[sp,#0xf]
        0x08005674:    287e        ~(      CMP      r0,#0x7e
        0x08005676:    d11a        ..      BNE      0x80056ae ; ansi_get_char + 306
        0x08005678:    e7ff        ..      B        0x800567a ; ansi_get_char + 254
        0x0800567a:    f89d000f    ....    LDRB     r0,[sp,#0xf]
        0x0800567e:    f6477128    G.(q    MOV      r1,#0x7f28
        0x08005682:    f6c00100    ....    MOVT     r1,#0x800
        0x08005686:    f000f849    ..I.    BL       ansi_search_char ; 0x800571c
        0x0800568a:    9001        ..      STR      r0,[sp,#4]
        0x0800568c:    9901        ..      LDR      r1,[sp,#4]
        0x0800568e:    f6477040    G.@p    MOV      r0,#0x7f40
        0x08005692:    f6c00000    ....    MOVT     r0,#0x800
        0x08005696:    f8501021    P.!.    LDR      r1,[r0,r1,LSL #2]
        0x0800569a:    9802        ..      LDR      r0,[sp,#8]
        0x0800569c:    4788        .G      BLX      r1
        0x0800569e:    9902        ..      LDR      r1,[sp,#8]
        0x080056a0:    2000        .       MOVS     r0,#0
        0x080056a2:    f8810080    ....    STRB     r0,[r1,#0x80]
        0x080056a6:    9902        ..      LDR      r1,[sp,#8]
        0x080056a8:    f8810081    ....    STRB     r0,[r1,#0x81]
        0x080056ac:    e015        ..      B        0x80056da ; ansi_get_char + 350
        0x080056ae:    9802        ..      LDR      r0,[sp,#8]
        0x080056b0:    f8900080    ....    LDRB     r0,[r0,#0x80]
        0x080056b4:    2813        .(      CMP      r0,#0x13
        0x080056b6:    db08        ..      BLT      0x80056ca ; ansi_get_char + 334
        0x080056b8:    e7ff        ..      B        0x80056ba ; ansi_get_char + 318
        0x080056ba:    9902        ..      LDR      r1,[sp,#8]
        0x080056bc:    2000        .       MOVS     r0,#0
        0x080056be:    f8810080    ....    STRB     r0,[r1,#0x80]
        0x080056c2:    9902        ..      LDR      r1,[sp,#8]
        0x080056c4:    f8810081    ....    STRB     r0,[r1,#0x81]
        0x080056c8:    e006        ..      B        0x80056d8 ; ansi_get_char + 348
        0x080056ca:    9902        ..      LDR      r1,[sp,#8]
        0x080056cc:    f8910080    ....    LDRB     r0,[r1,#0x80]
        0x080056d0:    3001        .0      ADDS     r0,#1
        0x080056d2:    f8810080    ....    STRB     r0,[r1,#0x80]
        0x080056d6:    e7ff        ..      B        0x80056d8 ; ansi_get_char + 348
        0x080056d8:    e7ff        ..      B        0x80056da ; ansi_get_char + 350
        0x080056da:    e004        ..      B        0x80056e6 ; ansi_get_char + 362
        0x080056dc:    9902        ..      LDR      r1,[sp,#8]
        0x080056de:    2000        .       MOVS     r0,#0
        0x080056e0:    f8810081    ....    STRB     r0,[r1,#0x81]
        0x080056e4:    e7ff        ..      B        0x80056e6 ; ansi_get_char + 362
        0x080056e6:    e7ff        ..      B        0x80056e8 ; ansi_get_char + 364
        0x080056e8:    f89d000f    ....    LDRB     r0,[sp,#0xf]
        0x080056ec:    b004        ..      ADD      sp,sp,#0x10
        0x080056ee:    bd80        ..      POP      {r7,pc}
    ansi_init
        0x080056f0:    b081        ..      SUB      sp,sp,#4
        0x080056f2:    9000        ..      STR      r0,[sp,#0]
        0x080056f4:    9900        ..      LDR      r1,[sp,#0]
        0x080056f6:    2000        .       MOVS     r0,#0
        0x080056f8:    6048        H`      STR      r0,[r1,#4]
        0x080056fa:    9a00        ..      LDR      r2,[sp,#0]
        0x080056fc:    f64f71ff    O..q    MOV      r1,#0xffff
        0x08005700:    8011        ..      STRH     r1,[r2,#0]
        0x08005702:    9900        ..      LDR      r1,[sp,#0]
        0x08005704:    684a        Jh      LDR      r2,[r1,#4]
        0x08005706:    4411        .D      ADD      r1,r1,r2
        0x08005708:    7208        .r      STRB     r0,[r1,#8]
        0x0800570a:    9900        ..      LDR      r1,[sp,#0]
        0x0800570c:    f8810080    ....    STRB     r0,[r1,#0x80]
        0x08005710:    9900        ..      LDR      r1,[sp,#0]
        0x08005712:    f8810081    ....    STRB     r0,[r1,#0x81]
        0x08005716:    b001        ..      ADD      sp,sp,#4
        0x08005718:    4770        pG      BX       lr
        0x0800571a:    0000        ..      MOVS     r0,r0
    ansi_search_char
        0x0800571c:    b085        ..      SUB      sp,sp,#0x14
        0x0800571e:    f88d000f    ....    STRB     r0,[sp,#0xf]
        0x08005722:    9102        ..      STR      r1,[sp,#8]
        0x08005724:    2000        .       MOVS     r0,#0
        0x08005726:    9001        ..      STR      r0,[sp,#4]
        0x08005728:    e7ff        ..      B        0x800572a ; ansi_search_char + 14
        0x0800572a:    9802        ..      LDR      r0,[sp,#8]
        0x0800572c:    9901        ..      LDR      r1,[sp,#4]
        0x0800572e:    5c41        A\      LDRB     r1,[r0,r1]
        0x08005730:    f89d200f    ...     LDRB     r2,[sp,#0xf]
        0x08005734:    2000        .       MOVS     r0,#0
        0x08005736:    4291        .B      CMP      r1,r2
        0x08005738:    9000        ..      STR      r0,[sp,#0]
        0x0800573a:    d008        ..      BEQ      0x800574e ; ansi_search_char + 50
        0x0800573c:    e7ff        ..      B        0x800573e ; ansi_search_char + 34
        0x0800573e:    9802        ..      LDR      r0,[sp,#8]
        0x08005740:    9901        ..      LDR      r1,[sp,#4]
        0x08005742:    5c40        @\      LDRB     r0,[r0,r1]
        0x08005744:    2800        .(      CMP      r0,#0
        0x08005746:    bf18        ..      IT       NE
        0x08005748:    2001        .       MOVNE    r0,#1
        0x0800574a:    9000        ..      STR      r0,[sp,#0]
        0x0800574c:    e7ff        ..      B        0x800574e ; ansi_search_char + 50
        0x0800574e:    9800        ..      LDR      r0,[sp,#0]
        0x08005750:    07c0        ..      LSLS     r0,r0,#31
        0x08005752:    b128        (.      CBZ      r0,0x8005760 ; ansi_search_char + 68
        0x08005754:    e7ff        ..      B        0x8005756 ; ansi_search_char + 58
        0x08005756:    e7ff        ..      B        0x8005758 ; ansi_search_char + 60
        0x08005758:    9801        ..      LDR      r0,[sp,#4]
        0x0800575a:    3001        .0      ADDS     r0,#1
        0x0800575c:    9001        ..      STR      r0,[sp,#4]
        0x0800575e:    e7e4        ..      B        0x800572a ; ansi_search_char + 14
        0x08005760:    9802        ..      LDR      r0,[sp,#8]
        0x08005762:    9901        ..      LDR      r1,[sp,#4]
        0x08005764:    5c40        @\      LDRB     r0,[r0,r1]
        0x08005766:    b118        ..      CBZ      r0,0x8005770 ; ansi_search_char + 84
        0x08005768:    e7ff        ..      B        0x800576a ; ansi_search_char + 78
        0x0800576a:    9801        ..      LDR      r0,[sp,#4]
        0x0800576c:    9004        ..      STR      r0,[sp,#0x10]
        0x0800576e:    e003        ..      B        0x8005778 ; ansi_search_char + 92
        0x08005770:    f04f30ff    O..0    MOV      r0,#0xffffffff
        0x08005774:    9004        ..      STR      r0,[sp,#0x10]
        0x08005776:    e7ff        ..      B        0x8005778 ; ansi_search_char + 92
        0x08005778:    9804        ..      LDR      r0,[sp,#0x10]
        0x0800577a:    b005        ..      ADD      sp,sp,#0x14
        0x0800577c:    4770        pG      BX       lr
        0x0800577e:    0000        ..      MOVS     r0,r0
    ansi_show_str
        0x08005780:    b580        ..      PUSH     {r7,lr}
        0x08005782:    b084        ..      SUB      sp,sp,#0x10
        0x08005784:    9003        ..      STR      r0,[sp,#0xc]
        0x08005786:    9102        ..      STR      r1,[sp,#8]
        0x08005788:    2000        .       MOVS     r0,#0
        0x0800578a:    9001        ..      STR      r0,[sp,#4]
        0x0800578c:    e7ff        ..      B        0x800578e ; ansi_show_str + 14
        0x0800578e:    9801        ..      LDR      r0,[sp,#4]
        0x08005790:    9902        ..      LDR      r1,[sp,#8]
        0x08005792:    4288        .B      CMP      r0,r1
        0x08005794:    d20e        ..      BCS      0x80057b4 ; ansi_show_str + 52
        0x08005796:    e7ff        ..      B        0x8005798 ; ansi_show_str + 24
        0x08005798:    9803        ..      LDR      r0,[sp,#0xc]
        0x0800579a:    9901        ..      LDR      r1,[sp,#4]
        0x0800579c:    5c40        @\      LDRB     r0,[r0,r1]
        0x0800579e:    f24011bc    @...    MOVW     r1,#0x1bc
        0x080057a2:    f2c20100    ....    MOVT     r1,#0x2000
        0x080057a6:    f7fafe3f    ..?.    BL       putc ; 0x8000428
        0x080057aa:    e7ff        ..      B        0x80057ac ; ansi_show_str + 44
        0x080057ac:    9801        ..      LDR      r0,[sp,#4]
        0x080057ae:    3001        .0      ADDS     r0,#1
        0x080057b0:    9001        ..      STR      r0,[sp,#4]
        0x080057b2:    e7ec        ..      B        0x800578e ; ansi_show_str + 14
        0x080057b4:    b004        ..      ADD      sp,sp,#0x10
        0x080057b6:    bd80        ..      POP      {r7,pc}
    fputc
        0x080057b8:    b580        ..      PUSH     {r7,lr}
        0x080057ba:    b082        ..      SUB      sp,sp,#8
        0x080057bc:    9001        ..      STR      r0,[sp,#4]
        0x080057be:    9100        ..      STR      r1,[sp,#0]
        0x080057c0:    f89d1004    ....    LDRB     r1,[sp,#4]
        0x080057c4:    f6440000    D...    MOVW     r0,#0x4800
        0x080057c8:    f2c40000    ....    MOVT     r0,#0x4000
        0x080057cc:    f7fdfff2    ....    BL       USART_SendData ; 0x80037b4
        0x080057d0:    e7ff        ..      B        0x80057d2 ; fputc + 26
        0x080057d2:    f6440000    D...    MOVW     r0,#0x4800
        0x080057d6:    f2c40000    ....    MOVT     r0,#0x4000
        0x080057da:    2180        .!      MOVS     r1,#0x80
        0x080057dc:    f7fdfed6    ....    BL       USART_GetFlagStatus ; 0x800358c
        0x080057e0:    b908        ..      CBNZ     r0,0x80057e6 ; fputc + 46
        0x080057e2:    e7ff        ..      B        0x80057e4 ; fputc + 44
        0x080057e4:    e7f5        ..      B        0x80057d2 ; fputc + 26
        0x080057e6:    9801        ..      LDR      r0,[sp,#4]
        0x080057e8:    b002        ..      ADD      sp,sp,#8
        0x080057ea:    bd80        ..      POP      {r7,pc}
    hexdump
        0x080057ec:    b580        ..      PUSH     {r7,lr}
        0x080057ee:    b0a0        ..      SUB      sp,sp,#0x80
        0x080057f0:    901e        ..      STR      r0,[sp,#0x78]
        0x080057f2:    911d        ..      STR      r1,[sp,#0x74]
        0x080057f4:    e7ff        ..      B        0x80057f6 ; hexdump + 10
        0x080057f6:    9b1e        ..      LDR      r3,[sp,#0x78]
        0x080057f8:    981d        ..      LDR      r0,[sp,#0x74]
        0x080057fa:    4669        iF      MOV      r1,sp
        0x080057fc:    6008        .`      STR      r0,[r1,#0]
        0x080057fe:    f24821fb    H..!    MOV      r1,#0x82fb
        0x08005802:    f6c00100    ....    MOVT     r1,#0x800
        0x08005806:    f248323a    H.:2    MOV      r2,#0x833a
        0x0800580a:    f6c00200    ....    MOVT     r2,#0x800
        0x0800580e:    2000        .       MOVS     r0,#0
        0x08005810:    f7fdfaa0    ....    BL       SEGGER_RTT_printf ; 0x8002d54
        0x08005814:    e7ff        ..      B        0x8005816 ; hexdump + 42
        0x08005816:    9a1e        ..      LDR      r2,[sp,#0x78]
        0x08005818:    9b1d        ..      LDR      r3,[sp,#0x74]
        0x0800581a:    f24820fb    H..     MOV      r0,#0x82fb
        0x0800581e:    f6c00000    ....    MOVT     r0,#0x800
        0x08005822:    f248313a    H.:1    MOV      r1,#0x833a
        0x08005826:    f6c00100    ....    MOVT     r1,#0x800
        0x0800582a:    f7fafdaf    ....    BL       printf ; 0x800038c
        0x0800582e:    981d        ..      LDR      r0,[sp,#0x74]
        0x08005830:    2801        .(      CMP      r0,#1
        0x08005832:    db05        ..      BLT      0x8005840 ; hexdump + 84
        0x08005834:    e7ff        ..      B        0x8005836 ; hexdump + 74
        0x08005836:    981d        ..      LDR      r0,[sp,#0x74]
        0x08005838:    f5b07f80    ....    CMP      r0,#0x100
        0x0800583c:    dd04        ..      BLE      0x8005848 ; hexdump + 92
        0x0800583e:    e7ff        ..      B        0x8005840 ; hexdump + 84
        0x08005840:    f04f30ff    O..0    MOV      r0,#0xffffffff
        0x08005844:    901f        ..      STR      r0,[sp,#0x7c]
        0x08005846:    e16a        j.      B        0x8005b1e ; hexdump + 818
        0x08005848:    f2483029    H.)0    MOV      r0,#0x8329
        0x0800584c:    f6c00000    ....    MOVT     r0,#0x800
        0x08005850:    901c        ..      STR      r0,[sp,#0x70]
        0x08005852:    2000        .       MOVS     r0,#0
        0x08005854:    901b        ..      STR      r0,[sp,#0x6c]
        0x08005856:    f88d006b    ..k.    STRB     r0,[sp,#0x6b]
        0x0800585a:    901b        ..      STR      r0,[sp,#0x6c]
        0x0800585c:    e7ff        ..      B        0x800585e ; hexdump + 114
        0x0800585e:    981b        ..      LDR      r0,[sp,#0x6c]
        0x08005860:    991d        ..      LDR      r1,[sp,#0x74]
        0x08005862:    17ca        ..      ASRS     r2,r1,#31
        0x08005864:    eb017112    ...q    ADD      r1,r1,r2,LSR #28
        0x08005868:    f021010f    !...    BIC      r1,r1,#0xf
        0x0800586c:    4288        .B      CMP      r0,r1
        0x0800586e:    f280809d    ....    BGE.W    0x80059ac ; hexdump + 448
        0x08005872:    e7ff        ..      B        0x8005874 ; hexdump + 136
        0x08005874:    2000        .       MOVS     r0,#0
        0x08005876:    9009        ..      STR      r0,[sp,#0x24]
        0x08005878:    e7ff        ..      B        0x800587a ; hexdump + 142
        0x0800587a:    9809        ..      LDR      r0,[sp,#0x24]
        0x0800587c:    280f        .(      CMP      r0,#0xf
        0x0800587e:    dc6e        n.      BGT      0x800595e ; hexdump + 370
        0x08005880:    e7ff        ..      B        0x8005882 ; hexdump + 150
        0x08005882:    981e        ..      LDR      r0,[sp,#0x78]
        0x08005884:    991b        ..      LDR      r1,[sp,#0x6c]
        0x08005886:    9a09        ..      LDR      r2,[sp,#0x24]
        0x08005888:    4411        .D      ADD      r1,r1,r2
        0x0800588a:    5c40        @\      LDRB     r0,[r0,r1]
        0x0800588c:    f88d006b    ..k.    STRB     r0,[sp,#0x6b]
        0x08005890:    9809        ..      LDR      r0,[sp,#0x24]
        0x08005892:    eb000040    ..@.    ADD      r0,r0,r0,LSL #1
        0x08005896:    9008        ..      STR      r0,[sp,#0x20]
        0x08005898:    981c        ..      LDR      r0,[sp,#0x70]
        0x0800589a:    f89d106b    ..k.    LDRB     r1,[sp,#0x6b]
        0x0800589e:    0909        ..      LSRS     r1,r1,#4
        0x080058a0:    5c40        @\      LDRB     r0,[r0,r1]
        0x080058a2:    9a08        ..      LDR      r2,[sp,#0x20]
        0x080058a4:    1c51        Q.      ADDS     r1,r2,#1
        0x080058a6:    9108        ..      STR      r1,[sp,#0x20]
        0x080058a8:    f10d0129    ..).    ADD      r1,sp,#0x29
        0x080058ac:    5488        .T      STRB     r0,[r1,r2]
        0x080058ae:    981c        ..      LDR      r0,[sp,#0x70]
        0x080058b0:    f89d206b    ..k     LDRB     r2,[sp,#0x6b]
        0x080058b4:    f002020f    ....    AND      r2,r2,#0xf
        0x080058b8:    5c80        .\      LDRB     r0,[r0,r2]
        0x080058ba:    9a08        ..      LDR      r2,[sp,#0x20]
        0x080058bc:    1c53        S.      ADDS     r3,r2,#1
        0x080058be:    9308        ..      STR      r3,[sp,#0x20]
        0x080058c0:    5488        .T      STRB     r0,[r1,r2]
        0x080058c2:    9909        ..      LDR      r1,[sp,#0x24]
        0x080058c4:    2000        .       MOVS     r0,#0
        0x080058c6:    2909        .)      CMP      r1,#9
        0x080058c8:    9002        ..      STR      r0,[sp,#8]
        0x080058ca:    dc0d        ..      BGT      0x80058e8 ; hexdump + 252
        0x080058cc:    e7ff        ..      B        0x80058ce ; hexdump + 226
        0x080058ce:    9809        ..      LDR      r0,[sp,#0x24]
        0x080058d0:    3001        .0      ADDS     r0,#1
        0x080058d2:    17c1        ..      ASRS     r1,r0,#31
        0x080058d4:    eb007151    ..Qq    ADD      r1,r0,r1,LSR #29
        0x080058d8:    f0210107    !...    BIC      r1,r1,#7
        0x080058dc:    1a40        @.      SUBS     r0,r0,r1
        0x080058de:    fab0f080    ....    CLZ      r0,r0
        0x080058e2:    0940        @.      LSRS     r0,r0,#5
        0x080058e4:    9002        ..      STR      r0,[sp,#8]
        0x080058e6:    e7ff        ..      B        0x80058e8 ; hexdump + 252
        0x080058e8:    9802        ..      LDR      r0,[sp,#8]
        0x080058ea:    07c1        ..      LSLS     r1,r0,#31
        0x080058ec:    2020                MOVS     r0,#0x20
        0x080058ee:    2900        .)      CMP      r1,#0
        0x080058f0:    bf18        ..      IT       NE
        0x080058f2:    2009        .       MOVNE    r0,#9
        0x080058f4:    9a08        ..      LDR      r2,[sp,#0x20]
        0x080058f6:    1c51        Q.      ADDS     r1,r2,#1
        0x080058f8:    9108        ..      STR      r1,[sp,#0x20]
        0x080058fa:    f10d0129    ..).    ADD      r1,sp,#0x29
        0x080058fe:    5488        .T      STRB     r0,[r1,r2]
        0x08005900:    f89d006b    ..k.    LDRB     r0,[sp,#0x6b]
        0x08005904:    2820         (      CMP      r0,#0x20
        0x08005906:    db18        ..      BLT      0x800593a ; hexdump + 334
        0x08005908:    e7ff        ..      B        0x800590a ; hexdump + 286
        0x0800590a:    f89d006b    ..k.    LDRB     r0,[sp,#0x6b]
        0x0800590e:    b1a0        ..      CBZ      r0,0x800593a ; hexdump + 334
        0x08005910:    e7ff        ..      B        0x8005912 ; hexdump + 294
        0x08005912:    f89d006b    ..k.    LDRB     r0,[sp,#0x6b]
        0x08005916:    2809        .(      CMP      r0,#9
        0x08005918:    d00f        ..      BEQ      0x800593a ; hexdump + 334
        0x0800591a:    e7ff        ..      B        0x800591c ; hexdump + 304
        0x0800591c:    f89d006b    ..k.    LDRB     r0,[sp,#0x6b]
        0x08005920:    280d        .(      CMP      r0,#0xd
        0x08005922:    d00a        ..      BEQ      0x800593a ; hexdump + 334
        0x08005924:    e7ff        ..      B        0x8005926 ; hexdump + 314
        0x08005926:    f89d006b    ..k.    LDRB     r0,[sp,#0x6b]
        0x0800592a:    280a        .(      CMP      r0,#0xa
        0x0800592c:    d005        ..      BEQ      0x800593a ; hexdump + 334
        0x0800592e:    e7ff        ..      B        0x8005930 ; hexdump + 324
        0x08005930:    f89d006b    ..k.    LDRB     r0,[sp,#0x6b]
        0x08005934:    2808        .(      CMP      r0,#8
        0x08005936:    d106        ..      BNE      0x8005946 ; hexdump + 346
        0x08005938:    e7ff        ..      B        0x800593a ; hexdump + 334
        0x0800593a:    9a09        ..      LDR      r2,[sp,#0x24]
        0x0800593c:    f10d015a    ..Z.    ADD      r1,sp,#0x5a
        0x08005940:    202e        .       MOVS     r0,#0x2e
        0x08005942:    5488        .T      STRB     r0,[r1,r2]
        0x08005944:    e006        ..      B        0x8005954 ; hexdump + 360
        0x08005946:    f89d006b    ..k.    LDRB     r0,[sp,#0x6b]
        0x0800594a:    9a09        ..      LDR      r2,[sp,#0x24]
        0x0800594c:    f10d015a    ..Z.    ADD      r1,sp,#0x5a
        0x08005950:    5488        .T      STRB     r0,[r1,r2]
        0x08005952:    e7ff        ..      B        0x8005954 ; hexdump + 360
        0x08005954:    e7ff        ..      B        0x8005956 ; hexdump + 362
        0x08005956:    9809        ..      LDR      r0,[sp,#0x24]
        0x08005958:    3001        .0      ADDS     r0,#1
        0x0800595a:    9009        ..      STR      r0,[sp,#0x24]
        0x0800595c:    e78d        ..      B        0x800587a ; hexdump + 142
        0x0800595e:    2000        .       MOVS     r0,#0
        0x08005960:    f88d0059    ..Y.    STRB     r0,[sp,#0x59]
        0x08005964:    9a09        ..      LDR      r2,[sp,#0x24]
        0x08005966:    f10d015a    ..Z.    ADD      r1,sp,#0x5a
        0x0800596a:    5488        .T      STRB     r0,[r1,r2]
        0x0800596c:    e7ff        ..      B        0x800596e ; hexdump + 386
        0x0800596e:    9a1b        ..      LDR      r2,[sp,#0x6c]
        0x08005970:    4669        iF      MOV      r1,sp
        0x08005972:    f10d005a    ..Z.    ADD      r0,sp,#0x5a
        0x08005976:    6008        .`      STR      r0,[r1,#0]
        0x08005978:    f248311c    H..1    MOV      r1,#0x831c
        0x0800597c:    f6c00100    ....    MOVT     r1,#0x800
        0x08005980:    2000        .       MOVS     r0,#0
        0x08005982:    f10d0329    ..).    ADD      r3,sp,#0x29
        0x08005986:    f7fdf9e5    ....    BL       SEGGER_RTT_printf ; 0x8002d54
        0x0800598a:    e7ff        ..      B        0x800598c ; hexdump + 416
        0x0800598c:    991b        ..      LDR      r1,[sp,#0x6c]
        0x0800598e:    f248300e    H..0    MOV      r0,#0x830e
        0x08005992:    f6c00000    ....    MOVT     r0,#0x800
        0x08005996:    f10d0229    ..).    ADD      r2,sp,#0x29
        0x0800599a:    f10d035a    ..Z.    ADD      r3,sp,#0x5a
        0x0800599e:    f7fafcf5    ....    BL       printf ; 0x800038c
        0x080059a2:    e7ff        ..      B        0x80059a4 ; hexdump + 440
        0x080059a4:    981b        ..      LDR      r0,[sp,#0x6c]
        0x080059a6:    3010        .0      ADDS     r0,r0,#0x10
        0x080059a8:    901b        ..      STR      r0,[sp,#0x6c]
        0x080059aa:    e758        X.      B        0x800585e ; hexdump + 114
        0x080059ac:    981d        ..      LDR      r0,[sp,#0x74]
        0x080059ae:    17c1        ..      ASRS     r1,r0,#31
        0x080059b0:    eb007111    ...q    ADD      r1,r0,r1,LSR #28
        0x080059b4:    f021010f    !...    BIC      r1,r1,#0xf
        0x080059b8:    1a40        @.      SUBS     r0,r0,r1
        0x080059ba:    9007        ..      STR      r0,[sp,#0x1c]
        0x080059bc:    9807        ..      LDR      r0,[sp,#0x1c]
        0x080059be:    2800        .(      CMP      r0,#0
        0x080059c0:    dc03        ..      BGT      0x80059ca ; hexdump + 478
        0x080059c2:    e7ff        ..      B        0x80059c4 ; hexdump + 472
        0x080059c4:    2000        .       MOVS     r0,#0
        0x080059c6:    901f        ..      STR      r0,[sp,#0x7c]
        0x080059c8:    e0a9        ..      B        0x8005b1e ; hexdump + 818
        0x080059ca:    2000        .       MOVS     r0,#0
        0x080059cc:    9006        ..      STR      r0,[sp,#0x18]
        0x080059ce:    981b        ..      LDR      r0,[sp,#0x6c]
        0x080059d0:    9005        ..      STR      r0,[sp,#0x14]
        0x080059d2:    e7ff        ..      B        0x80059d4 ; hexdump + 488
        0x080059d4:    981b        ..      LDR      r0,[sp,#0x6c]
        0x080059d6:    991d        ..      LDR      r1,[sp,#0x74]
        0x080059d8:    4288        .B      CMP      r0,r1
        0x080059da:    da55        U.      BGE      0x8005a88 ; hexdump + 668
        0x080059dc:    e7ff        ..      B        0x80059de ; hexdump + 498
        0x080059de:    981e        ..      LDR      r0,[sp,#0x78]
        0x080059e0:    991b        ..      LDR      r1,[sp,#0x6c]
        0x080059e2:    5c40        @\      LDRB     r0,[r0,r1]
        0x080059e4:    f88d006b    ..k.    STRB     r0,[sp,#0x6b]
        0x080059e8:    9806        ..      LDR      r0,[sp,#0x18]
        0x080059ea:    eb000040    ..@.    ADD      r0,r0,r0,LSL #1
        0x080059ee:    9004        ..      STR      r0,[sp,#0x10]
        0x080059f0:    981c        ..      LDR      r0,[sp,#0x70]
        0x080059f2:    f89d106b    ..k.    LDRB     r1,[sp,#0x6b]
        0x080059f6:    0909        ..      LSRS     r1,r1,#4
        0x080059f8:    5c40        @\      LDRB     r0,[r0,r1]
        0x080059fa:    9a04        ..      LDR      r2,[sp,#0x10]
        0x080059fc:    1c51        Q.      ADDS     r1,r2,#1
        0x080059fe:    9104        ..      STR      r1,[sp,#0x10]
        0x08005a00:    f10d0129    ..).    ADD      r1,sp,#0x29
        0x08005a04:    5488        .T      STRB     r0,[r1,r2]
        0x08005a06:    981c        ..      LDR      r0,[sp,#0x70]
        0x08005a08:    f89d206b    ..k     LDRB     r2,[sp,#0x6b]
        0x08005a0c:    f002020f    ....    AND      r2,r2,#0xf
        0x08005a10:    5c80        .\      LDRB     r0,[r0,r2]
        0x08005a12:    9a04        ..      LDR      r2,[sp,#0x10]
        0x08005a14:    1c53        S.      ADDS     r3,r2,#1
        0x08005a16:    9304        ..      STR      r3,[sp,#0x10]
        0x08005a18:    5488        .T      STRB     r0,[r1,r2]
        0x08005a1a:    9a04        ..      LDR      r2,[sp,#0x10]
        0x08005a1c:    1c50        P.      ADDS     r0,r2,#1
        0x08005a1e:    9004        ..      STR      r0,[sp,#0x10]
        0x08005a20:    2020                MOVS     r0,#0x20
        0x08005a22:    5488        .T      STRB     r0,[r1,r2]
        0x08005a24:    f89d006b    ..k.    LDRB     r0,[sp,#0x6b]
        0x08005a28:    2820         (      CMP      r0,#0x20
        0x08005a2a:    db18        ..      BLT      0x8005a5e ; hexdump + 626
        0x08005a2c:    e7ff        ..      B        0x8005a2e ; hexdump + 578
        0x08005a2e:    f89d006b    ..k.    LDRB     r0,[sp,#0x6b]
        0x08005a32:    b1a0        ..      CBZ      r0,0x8005a5e ; hexdump + 626
        0x08005a34:    e7ff        ..      B        0x8005a36 ; hexdump + 586
        0x08005a36:    f89d006b    ..k.    LDRB     r0,[sp,#0x6b]
        0x08005a3a:    2809        .(      CMP      r0,#9
        0x08005a3c:    d00f        ..      BEQ      0x8005a5e ; hexdump + 626
        0x08005a3e:    e7ff        ..      B        0x8005a40 ; hexdump + 596
        0x08005a40:    f89d006b    ..k.    LDRB     r0,[sp,#0x6b]
        0x08005a44:    280d        .(      CMP      r0,#0xd
        0x08005a46:    d00a        ..      BEQ      0x8005a5e ; hexdump + 626
        0x08005a48:    e7ff        ..      B        0x8005a4a ; hexdump + 606
        0x08005a4a:    f89d006b    ..k.    LDRB     r0,[sp,#0x6b]
        0x08005a4e:    280a        .(      CMP      r0,#0xa
        0x08005a50:    d005        ..      BEQ      0x8005a5e ; hexdump + 626
        0x08005a52:    e7ff        ..      B        0x8005a54 ; hexdump + 616
        0x08005a54:    f89d006b    ..k.    LDRB     r0,[sp,#0x6b]
        0x08005a58:    2808        .(      CMP      r0,#8
        0x08005a5a:    d106        ..      BNE      0x8005a6a ; hexdump + 638
        0x08005a5c:    e7ff        ..      B        0x8005a5e ; hexdump + 626
        0x08005a5e:    9a06        ..      LDR      r2,[sp,#0x18]
        0x08005a60:    f10d015a    ..Z.    ADD      r1,sp,#0x5a
        0x08005a64:    202e        .       MOVS     r0,#0x2e
        0x08005a66:    5488        .T      STRB     r0,[r1,r2]
        0x08005a68:    e006        ..      B        0x8005a78 ; hexdump + 652
        0x08005a6a:    f89d006b    ..k.    LDRB     r0,[sp,#0x6b]
        0x08005a6e:    9a06        ..      LDR      r2,[sp,#0x18]
        0x08005a70:    f10d015a    ..Z.    ADD      r1,sp,#0x5a
        0x08005a74:    5488        .T      STRB     r0,[r1,r2]
        0x08005a76:    e7ff        ..      B        0x8005a78 ; hexdump + 652
        0x08005a78:    9806        ..      LDR      r0,[sp,#0x18]
        0x08005a7a:    3001        .0      ADDS     r0,#1
        0x08005a7c:    9006        ..      STR      r0,[sp,#0x18]
        0x08005a7e:    e7ff        ..      B        0x8005a80 ; hexdump + 660
        0x08005a80:    981b        ..      LDR      r0,[sp,#0x6c]
        0x08005a82:    3001        .0      ADDS     r0,#1
        0x08005a84:    901b        ..      STR      r0,[sp,#0x6c]
        0x08005a86:    e7a5        ..      B        0x80059d4 ; hexdump + 488
        0x08005a88:    9807        ..      LDR      r0,[sp,#0x1c]
        0x08005a8a:    eb000240    ..@.    ADD      r2,r0,r0,LSL #1
        0x08005a8e:    f10d0129    ..).    ADD      r1,sp,#0x29
        0x08005a92:    2000        .       MOVS     r0,#0
        0x08005a94:    5488        .T      STRB     r0,[r1,r2]
        0x08005a96:    9a06        ..      LDR      r2,[sp,#0x18]
        0x08005a98:    f10d015a    ..Z.    ADD      r1,sp,#0x5a
        0x08005a9c:    5488        .T      STRB     r0,[r1,r2]
        0x08005a9e:    9807        ..      LDR      r0,[sp,#0x1c]
        0x08005aa0:    9006        ..      STR      r0,[sp,#0x18]
        0x08005aa2:    e7ff        ..      B        0x8005aa4 ; hexdump + 696
        0x08005aa4:    9806        ..      LDR      r0,[sp,#0x18]
        0x08005aa6:    280f        .(      CMP      r0,#0xf
        0x08005aa8:    dc18        ..      BGT      0x8005adc ; hexdump + 752
        0x08005aaa:    e7ff        ..      B        0x8005aac ; hexdump + 704
        0x08005aac:    9806        ..      LDR      r0,[sp,#0x18]
        0x08005aae:    eb000040    ..@.    ADD      r0,r0,r0,LSL #1
        0x08005ab2:    9003        ..      STR      r0,[sp,#0xc]
        0x08005ab4:    9a03        ..      LDR      r2,[sp,#0xc]
        0x08005ab6:    1c50        P.      ADDS     r0,r2,#1
        0x08005ab8:    9003        ..      STR      r0,[sp,#0xc]
        0x08005aba:    f10d0129    ..).    ADD      r1,sp,#0x29
        0x08005abe:    2020                MOVS     r0,#0x20
        0x08005ac0:    5488        .T      STRB     r0,[r1,r2]
        0x08005ac2:    9a03        ..      LDR      r2,[sp,#0xc]
        0x08005ac4:    1c53        S.      ADDS     r3,r2,#1
        0x08005ac6:    9303        ..      STR      r3,[sp,#0xc]
        0x08005ac8:    5488        .T      STRB     r0,[r1,r2]
        0x08005aca:    9a03        ..      LDR      r2,[sp,#0xc]
        0x08005acc:    1c53        S.      ADDS     r3,r2,#1
        0x08005ace:    9303        ..      STR      r3,[sp,#0xc]
        0x08005ad0:    5488        .T      STRB     r0,[r1,r2]
        0x08005ad2:    e7ff        ..      B        0x8005ad4 ; hexdump + 744
        0x08005ad4:    9806        ..      LDR      r0,[sp,#0x18]
        0x08005ad6:    3001        .0      ADDS     r0,#1
        0x08005ad8:    9006        ..      STR      r0,[sp,#0x18]
        0x08005ada:    e7e3        ..      B        0x8005aa4 ; hexdump + 696
        0x08005adc:    2000        .       MOVS     r0,#0
        0x08005ade:    f88d0059    ..Y.    STRB     r0,[sp,#0x59]
        0x08005ae2:    e7ff        ..      B        0x8005ae4 ; hexdump + 760
        0x08005ae4:    9a05        ..      LDR      r2,[sp,#0x14]
        0x08005ae6:    4669        iF      MOV      r1,sp
        0x08005ae8:    f10d005a    ..Z.    ADD      r0,sp,#0x5a
        0x08005aec:    6008        .`      STR      r0,[r1,#0]
        0x08005aee:    f248311c    H..1    MOV      r1,#0x831c
        0x08005af2:    f6c00100    ....    MOVT     r1,#0x800
        0x08005af6:    2000        .       MOVS     r0,#0
        0x08005af8:    f10d0329    ..).    ADD      r3,sp,#0x29
        0x08005afc:    f7fdf92a    ..*.    BL       SEGGER_RTT_printf ; 0x8002d54
        0x08005b00:    e7ff        ..      B        0x8005b02 ; hexdump + 790
        0x08005b02:    9905        ..      LDR      r1,[sp,#0x14]
        0x08005b04:    f248300e    H..0    MOV      r0,#0x830e
        0x08005b08:    f6c00000    ....    MOVT     r0,#0x800
        0x08005b0c:    f10d0229    ..).    ADD      r2,sp,#0x29
        0x08005b10:    f10d035a    ..Z.    ADD      r3,sp,#0x5a
        0x08005b14:    f7fafc3a    ..:.    BL       printf ; 0x800038c
        0x08005b18:    2000        .       MOVS     r0,#0
        0x08005b1a:    901f        ..      STR      r0,[sp,#0x7c]
        0x08005b1c:    e7ff        ..      B        0x8005b1e ; hexdump + 818
        0x08005b1e:    981f        ..      LDR      r0,[sp,#0x7c]
        0x08005b20:    b020         .      ADD      sp,sp,#0x80
        0x08005b22:    bd80        ..      POP      {r7,pc}
    init_event
        0x08005b24:    b580        ..      PUSH     {r7,lr}
        0x08005b26:    b084        ..      SUB      sp,sp,#0x10
        0x08005b28:    9003        ..      STR      r0,[sp,#0xc]
        0x08005b2a:    9102        ..      STR      r1,[sp,#8]
        0x08005b2c:    9803        ..      LDR      r0,[sp,#0xc]
        0x08005b2e:    68c0        .h      LDR      r0,[r0,#0xc]
        0x08005b30:    b950        P.      CBNZ     r0,0x8005b48 ; init_event + 36
        0x08005b32:    e7ff        ..      B        0x8005b34 ; init_event + 16
        0x08005b34:    2000        .       MOVS     r0,#0
        0x08005b36:    f7fafc17    ....    BL       time ; 0x8000368
        0x08005b3a:    9001        ..      STR      r0,[sp,#4]
        0x08005b3c:    a801        ..      ADD      r0,sp,#4
        0x08005b3e:    f7fafd55    ..U.    BL       localtime ; 0x80005ec
        0x08005b42:    9903        ..      LDR      r1,[sp,#0xc]
        0x08005b44:    60c8        .`      STR      r0,[r1,#0xc]
        0x08005b46:    e7ff        ..      B        0x8005b48 ; init_event + 36
        0x08005b48:    9802        ..      LDR      r0,[sp,#8]
        0x08005b4a:    9903        ..      LDR      r1,[sp,#0xc]
        0x08005b4c:    6108        .a      STR      r0,[r1,#0x10]
        0x08005b4e:    b004        ..      ADD      sp,sp,#0x10
        0x08005b50:    bd80        ..      POP      {r7,pc}
        0x08005b52:    0000        ..      MOVS     r0,r0
    lock
        0x08005b54:    b580        ..      PUSH     {r7,lr}
        0x08005b56:    f2403034    @.40    MOVW     r0,#0x334
        0x08005b5a:    f2c20000    ....    MOVT     r0,#0x2000
        0x08005b5e:    6840        @h      LDR      r0,[r0,#4]
        0x08005b60:    b148        H.      CBZ      r0,0x8005b76 ; lock + 34
        0x08005b62:    e7ff        ..      B        0x8005b64 ; lock + 16
        0x08005b64:    f2403034    @.40    MOVW     r0,#0x334
        0x08005b68:    f2c20000    ....    MOVT     r0,#0x2000
        0x08005b6c:    6801        .h      LDR      r1,[r0,#0]
        0x08005b6e:    6842        Bh      LDR      r2,[r0,#4]
        0x08005b70:    2001        .       MOVS     r0,#1
        0x08005b72:    4790        .G      BLX      r2
        0x08005b74:    e7ff        ..      B        0x8005b76 ; lock + 34
        0x08005b76:    bd80        ..      POP      {r7,pc}
    log_log
        0x08005b78:    b580        ..      PUSH     {r7,lr}
        0x08005b7a:    b090        ..      SUB      sp,sp,#0x40
        0x08005b7c:    900f        ..      STR      r0,[sp,#0x3c]
        0x08005b7e:    910e        ..      STR      r1,[sp,#0x38]
        0x08005b80:    920d        ..      STR      r2,[sp,#0x34]
        0x08005b82:    930c        ..      STR      r3,[sp,#0x30]
        0x08005b84:    2000        .       MOVS     r0,#0
        0x08005b86:    9005        ..      STR      r0,[sp,#0x14]
        0x08005b88:    990c        ..      LDR      r1,[sp,#0x30]
        0x08005b8a:    9106        ..      STR      r1,[sp,#0x18]
        0x08005b8c:    990e        ..      LDR      r1,[sp,#0x38]
        0x08005b8e:    9107        ..      STR      r1,[sp,#0x1c]
        0x08005b90:    9008        ..      STR      r0,[sp,#0x20]
        0x08005b92:    9009        ..      STR      r0,[sp,#0x24]
        0x08005b94:    980d        ..      LDR      r0,[sp,#0x34]
        0x08005b96:    900a        ..      STR      r0,[sp,#0x28]
        0x08005b98:    980f        ..      LDR      r0,[sp,#0x3c]
        0x08005b9a:    900b        ..      STR      r0,[sp,#0x2c]
        0x08005b9c:    f7ffffda    ....    BL       lock ; 0x8005b54
        0x08005ba0:    f2403034    @.40    MOVW     r0,#0x334
        0x08005ba4:    f2c20000    ....    MOVT     r0,#0x2000
        0x08005ba8:    7b00        .{      LDRB     r0,[r0,#0xc]
        0x08005baa:    07c0        ..      LSLS     r0,r0,#31
        0x08005bac:    b9b8        ..      CBNZ     r0,0x8005bde ; log_log + 102
        0x08005bae:    e7ff        ..      B        0x8005bb0 ; log_log + 56
        0x08005bb0:    980f        ..      LDR      r0,[sp,#0x3c]
        0x08005bb2:    f2403134    @.41    MOVW     r1,#0x334
        0x08005bb6:    f2c20100    ....    MOVT     r1,#0x2000
        0x08005bba:    6889        .h      LDR      r1,[r1,#8]
        0x08005bbc:    4288        .B      CMP      r0,r1
        0x08005bbe:    db0e        ..      BLT      0x8005bde ; log_log + 102
        0x08005bc0:    e7ff        ..      B        0x8005bc2 ; log_log + 74
        0x08005bc2:    f2402110    @..!    MOVW     r1,#0x210
        0x08005bc6:    f2c20100    ....    MOVT     r1,#0x2000
        0x08005bca:    a805        ..      ADD      r0,sp,#0x14
        0x08005bcc:    9002        ..      STR      r0,[sp,#8]
        0x08005bce:    f7ffffa9    ....    BL       init_event ; 0x8005b24
        0x08005bd2:    9802        ..      LDR      r0,[sp,#8]
        0x08005bd4:    a912        ..      ADD      r1,sp,#0x48
        0x08005bd6:    9105        ..      STR      r1,[sp,#0x14]
        0x08005bd8:    f000fee0    ....    BL       stdout_callback ; 0x800699c
        0x08005bdc:    e7ff        ..      B        0x8005bde ; log_log + 102
        0x08005bde:    2000        .       MOVS     r0,#0
        0x08005be0:    9004        ..      STR      r0,[sp,#0x10]
        0x08005be2:    e7ff        ..      B        0x8005be4 ; log_log + 108
        0x08005be4:    9904        ..      LDR      r1,[sp,#0x10]
        0x08005be6:    2000        .       MOVS     r0,#0
        0x08005be8:    291f        .)      CMP      r1,#0x1f
        0x08005bea:    9001        ..      STR      r0,[sp,#4]
        0x08005bec:    dc0f        ..      BGT      0x8005c0e ; log_log + 150
        0x08005bee:    e7ff        ..      B        0x8005bf0 ; log_log + 120
        0x08005bf0:    9804        ..      LDR      r0,[sp,#0x10]
        0x08005bf2:    eb000140    ..@.    ADD      r1,r0,r0,LSL #1
        0x08005bf6:    f2403034    @.40    MOVW     r0,#0x334
        0x08005bfa:    f2c20000    ....    MOVT     r0,#0x2000
        0x08005bfe:    eb000081    ....    ADD      r0,r0,r1,LSL #2
        0x08005c02:    6900        .i      LDR      r0,[r0,#0x10]
        0x08005c04:    2800        .(      CMP      r0,#0
        0x08005c06:    bf18        ..      IT       NE
        0x08005c08:    2001        .       MOVNE    r0,#1
        0x08005c0a:    9001        ..      STR      r0,[sp,#4]
        0x08005c0c:    e7ff        ..      B        0x8005c0e ; log_log + 150
        0x08005c0e:    9801        ..      LDR      r0,[sp,#4]
        0x08005c10:    07c0        ..      LSLS     r0,r0,#31
        0x08005c12:    b318        ..      CBZ      r0,0x8005c5c ; log_log + 228
        0x08005c14:    e7ff        ..      B        0x8005c16 ; log_log + 158
        0x08005c16:    9804        ..      LDR      r0,[sp,#0x10]
        0x08005c18:    eb000140    ..@.    ADD      r1,r0,r0,LSL #1
        0x08005c1c:    f2403034    @.40    MOVW     r0,#0x334
        0x08005c20:    f2c20000    ....    MOVT     r0,#0x2000
        0x08005c24:    eb000081    ....    ADD      r0,r0,r1,LSL #2
        0x08005c28:    3010        .0      ADDS     r0,r0,#0x10
        0x08005c2a:    9003        ..      STR      r0,[sp,#0xc]
        0x08005c2c:    980f        ..      LDR      r0,[sp,#0x3c]
        0x08005c2e:    9903        ..      LDR      r1,[sp,#0xc]
        0x08005c30:    6889        .h      LDR      r1,[r1,#8]
        0x08005c32:    4288        .B      CMP      r0,r1
        0x08005c34:    db0d        ..      BLT      0x8005c52 ; log_log + 218
        0x08005c36:    e7ff        ..      B        0x8005c38 ; log_log + 192
        0x08005c38:    9803        ..      LDR      r0,[sp,#0xc]
        0x08005c3a:    6841        Ah      LDR      r1,[r0,#4]
        0x08005c3c:    a805        ..      ADD      r0,sp,#0x14
        0x08005c3e:    9000        ..      STR      r0,[sp,#0]
        0x08005c40:    f7ffff70    ..p.    BL       init_event ; 0x8005b24
        0x08005c44:    9800        ..      LDR      r0,[sp,#0]
        0x08005c46:    a912        ..      ADD      r1,sp,#0x48
        0x08005c48:    9105        ..      STR      r1,[sp,#0x14]
        0x08005c4a:    9903        ..      LDR      r1,[sp,#0xc]
        0x08005c4c:    6809        .h      LDR      r1,[r1,#0]
        0x08005c4e:    4788        .G      BLX      r1
        0x08005c50:    e7ff        ..      B        0x8005c52 ; log_log + 218
        0x08005c52:    e7ff        ..      B        0x8005c54 ; log_log + 220
        0x08005c54:    9804        ..      LDR      r0,[sp,#0x10]
        0x08005c56:    3001        .0      ADDS     r0,#1
        0x08005c58:    9004        ..      STR      r0,[sp,#0x10]
        0x08005c5a:    e7c3        ..      B        0x8005be4 ; log_log + 108
        0x08005c5c:    f000fedc    ....    BL       unlock ; 0x8006a18
        0x08005c60:    b010        ..      ADD      sp,sp,#0x40
        0x08005c62:    bd80        ..      POP      {r7,pc}
    main
        0x08005c64:    b580        ..      PUSH     {r7,lr}
        0x08005c66:    b082        ..      SUB      sp,sp,#8
        0x08005c68:    2000        .       MOVS     r0,#0
        0x08005c6a:    9001        ..      STR      r0,[sp,#4]
        0x08005c6c:    f7fefa7c    ..|.    BL       _Z5setupv ; 0x8004168
        0x08005c70:    e7ff        ..      B        0x8005c72 ; main + 14
        0x08005c72:    f7fefa71    ..q.    BL       _Z4loopv ; 0x8004158
        0x08005c76:    e7fc        ..      B        0x8005c72 ; main + 14
    memory_init
        0x08005c78:    4770        pG      BX       lr
        0x08005c7a:    0000        ..      MOVS     r0,r0
    nr_ansi_common_char_slover
        0x08005c7c:    b580        ..      PUSH     {r7,lr}
        0x08005c7e:    b084        ..      SUB      sp,sp,#0x10
        0x08005c80:    9003        ..      STR      r0,[sp,#0xc]
        0x08005c82:    f88d100b    ....    STRB     r1,[sp,#0xb]
        0x08005c86:    9803        ..      LDR      r0,[sp,#0xc]
        0x08005c88:    6840        @h      LDR      r0,[r0,#4]
        0x08005c8a:    2861        a(      CMP      r0,#0x61
        0x08005c8c:    d849        I.      BHI      0x8005d22 ; nr_ansi_common_char_slover + 166
        0x08005c8e:    e7ff        ..      B        0x8005c90 ; nr_ansi_common_char_slover + 20
        0x08005c90:    9903        ..      LDR      r1,[sp,#0xc]
        0x08005c92:    f9b10000    ....    LDRSH    r0,[r1,#0]
        0x08005c96:    6849        Ih      LDR      r1,[r1,#4]
        0x08005c98:    4288        .B      CMP      r0,r1
        0x08005c9a:    d216        ..      BCS      0x8005cca ; nr_ansi_common_char_slover + 78
        0x08005c9c:    e7ff        ..      B        0x8005c9e ; nr_ansi_common_char_slover + 34
        0x08005c9e:    9803        ..      LDR      r0,[sp,#0xc]
        0x08005ca0:    6840        @h      LDR      r0,[r0,#4]
        0x08005ca2:    9001        ..      STR      r0,[sp,#4]
        0x08005ca4:    e7ff        ..      B        0x8005ca6 ; nr_ansi_common_char_slover + 42
        0x08005ca6:    9801        ..      LDR      r0,[sp,#4]
        0x08005ca8:    9903        ..      LDR      r1,[sp,#0xc]
        0x08005caa:    f9b11000    ....    LDRSH    r1,[r1,#0]
        0x08005cae:    4288        .B      CMP      r0,r1
        0x08005cb0:    d90a        ..      BLS      0x8005cc8 ; nr_ansi_common_char_slover + 76
        0x08005cb2:    e7ff        ..      B        0x8005cb4 ; nr_ansi_common_char_slover + 56
        0x08005cb4:    9803        ..      LDR      r0,[sp,#0xc]
        0x08005cb6:    9901        ..      LDR      r1,[sp,#4]
        0x08005cb8:    4401        .D      ADD      r1,r1,r0
        0x08005cba:    79c8        .y      LDRB     r0,[r1,#7]
        0x08005cbc:    7208        .r      STRB     r0,[r1,#8]
        0x08005cbe:    e7ff        ..      B        0x8005cc0 ; nr_ansi_common_char_slover + 68
        0x08005cc0:    9801        ..      LDR      r0,[sp,#4]
        0x08005cc2:    3801        .8      SUBS     r0,#1
        0x08005cc4:    9001        ..      STR      r0,[sp,#4]
        0x08005cc6:    e7ee        ..      B        0x8005ca6 ; nr_ansi_common_char_slover + 42
        0x08005cc8:    e7ff        ..      B        0x8005cca ; nr_ansi_common_char_slover + 78
        0x08005cca:    9903        ..      LDR      r1,[sp,#0xc]
        0x08005ccc:    8808        ..      LDRH     r0,[r1,#0]
        0x08005cce:    3001        .0      ADDS     r0,#1
        0x08005cd0:    8008        ..      STRH     r0,[r1,#0]
        0x08005cd2:    9903        ..      LDR      r1,[sp,#0xc]
        0x08005cd4:    6848        Hh      LDR      r0,[r1,#4]
        0x08005cd6:    3001        .0      ADDS     r0,#1
        0x08005cd8:    6048        H`      STR      r0,[r1,#4]
        0x08005cda:    f89d000b    ....    LDRB     r0,[sp,#0xb]
        0x08005cde:    9903        ..      LDR      r1,[sp,#0xc]
        0x08005ce0:    f9b12000    ...     LDRSH    r2,[r1,#0]
        0x08005ce4:    4411        .D      ADD      r1,r1,r2
        0x08005ce6:    7208        .r      STRB     r0,[r1,#8]
        0x08005ce8:    9803        ..      LDR      r0,[sp,#0xc]
        0x08005cea:    6841        Ah      LDR      r1,[r0,#4]
        0x08005cec:    4401        .D      ADD      r1,r1,r0
        0x08005cee:    2000        .       MOVS     r0,#0
        0x08005cf0:    7208        .r      STRB     r0,[r1,#8]
        0x08005cf2:    9903        ..      LDR      r1,[sp,#0xc]
        0x08005cf4:    f9b10000    ....    LDRSH    r0,[r1,#0]
        0x08005cf8:    3001        .0      ADDS     r0,#1
        0x08005cfa:    6849        Ih      LDR      r1,[r1,#4]
        0x08005cfc:    4288        .B      CMP      r0,r1
        0x08005cfe:    d207        ..      BCS      0x8005d10 ; nr_ansi_common_char_slover + 148
        0x08005d00:    e7ff        ..      B        0x8005d02 ; nr_ansi_common_char_slover + 134
        0x08005d02:    f2483042    H.B0    MOV      r0,#0x8342
        0x08005d06:    f6c00000    ....    MOVT     r0,#0x800
        0x08005d0a:    f7fafb3f    ..?.    BL       printf ; 0x800038c
        0x08005d0e:    e7ff        ..      B        0x8005d10 ; nr_ansi_common_char_slover + 148
        0x08005d10:    f89d000b    ....    LDRB     r0,[sp,#0xb]
        0x08005d14:    f24011bc    @...    MOVW     r1,#0x1bc
        0x08005d18:    f2c20100    ....    MOVT     r1,#0x2000
        0x08005d1c:    f7fafb84    ....    BL       putc ; 0x8000428
        0x08005d20:    e014        ..      B        0x8005d4c ; nr_ansi_common_char_slover + 208
        0x08005d22:    9903        ..      LDR      r1,[sp,#0xc]
        0x08005d24:    2061        a       MOVS     r0,#0x61
        0x08005d26:    6048        H`      STR      r0,[r1,#4]
        0x08005d28:    9903        ..      LDR      r1,[sp,#0xc]
        0x08005d2a:    f9b10000    ....    LDRSH    r0,[r1,#0]
        0x08005d2e:    6849        Ih      LDR      r1,[r1,#4]
        0x08005d30:    4288        .B      CMP      r0,r1
        0x08005d32:    d305        ..      BCC      0x8005d40 ; nr_ansi_common_char_slover + 196
        0x08005d34:    e7ff        ..      B        0x8005d36 ; nr_ansi_common_char_slover + 186
        0x08005d36:    9903        ..      LDR      r1,[sp,#0xc]
        0x08005d38:    6848        Hh      LDR      r0,[r1,#4]
        0x08005d3a:    3801        .8      SUBS     r0,#1
        0x08005d3c:    8008        ..      STRH     r0,[r1,#0]
        0x08005d3e:    e7ff        ..      B        0x8005d40 ; nr_ansi_common_char_slover + 196
        0x08005d40:    9803        ..      LDR      r0,[sp,#0xc]
        0x08005d42:    6841        Ah      LDR      r1,[r0,#4]
        0x08005d44:    4401        .D      ADD      r1,r1,r0
        0x08005d46:    2000        .       MOVS     r0,#0
        0x08005d48:    7208        .r      STRB     r0,[r1,#8]
        0x08005d4a:    e7ff        ..      B        0x8005d4c ; nr_ansi_common_char_slover + 208
        0x08005d4c:    b004        ..      ADD      sp,sp,#0x10
        0x08005d4e:    bd80        ..      POP      {r7,pc}
    nr_ansi_ctrl_common_slover
        0x08005d50:    b580        ..      PUSH     {r7,lr}
        0x08005d52:    b082        ..      SUB      sp,sp,#8
        0x08005d54:    9001        ..      STR      r0,[sp,#4]
        0x08005d56:    2000        .       MOVS     r0,#0
        0x08005d58:    9000        ..      STR      r0,[sp,#0]
        0x08005d5a:    e7ff        ..      B        0x8005d5c ; nr_ansi_ctrl_common_slover + 12
        0x08005d5c:    9800        ..      LDR      r0,[sp,#0]
        0x08005d5e:    9901        ..      LDR      r1,[sp,#4]
        0x08005d60:    f8911080    ....    LDRB     r1,[r1,#0x80]
        0x08005d64:    4288        .B      CMP      r0,r1
        0x08005d66:    d210        ..      BCS      0x8005d8a ; nr_ansi_ctrl_common_slover + 58
        0x08005d68:    e7ff        ..      B        0x8005d6a ; nr_ansi_ctrl_common_slover + 26
        0x08005d6a:    9801        ..      LDR      r0,[sp,#4]
        0x08005d6c:    9900        ..      LDR      r1,[sp,#0]
        0x08005d6e:    4408        .D      ADD      r0,r0,r1
        0x08005d70:    f890006c    ..l.    LDRB     r0,[r0,#0x6c]
        0x08005d74:    f24011bc    @...    MOVW     r1,#0x1bc
        0x08005d78:    f2c20100    ....    MOVT     r1,#0x2000
        0x08005d7c:    f7fafb54    ..T.    BL       putc ; 0x8000428
        0x08005d80:    e7ff        ..      B        0x8005d82 ; nr_ansi_ctrl_common_slover + 50
        0x08005d82:    9800        ..      LDR      r0,[sp,#0]
        0x08005d84:    3001        .0      ADDS     r0,#1
        0x08005d86:    9000        ..      STR      r0,[sp,#0]
        0x08005d88:    e7e8        ..      B        0x8005d5c ; nr_ansi_ctrl_common_slover + 12
        0x08005d8a:    b002        ..      ADD      sp,sp,#8
        0x08005d8c:    bd80        ..      POP      {r7,pc}
        0x08005d8e:    0000        ..      MOVS     r0,r0
    nr_ansi_in__
        0x08005d90:    b580        ..      PUSH     {r7,lr}
        0x08005d92:    b082        ..      SUB      sp,sp,#8
        0x08005d94:    9001        ..      STR      r0,[sp,#4]
        0x08005d96:    9801        ..      LDR      r0,[sp,#4]
        0x08005d98:    f890006e    ..n.    LDRB     r0,[r0,#0x6e]
        0x08005d9c:    2833        3(      CMP      r0,#0x33
        0x08005d9e:    d12b        +.      BNE      0x8005df8 ; nr_ansi_in__ + 104
        0x08005da0:    e7ff        ..      B        0x8005da2 ; nr_ansi_in__ + 18
        0x08005da2:    9801        ..      LDR      r0,[sp,#4]
        0x08005da4:    f9b00000    ....    LDRSH    r0,[r0,#0]
        0x08005da8:    3001        .0      ADDS     r0,#1
        0x08005daa:    9000        ..      STR      r0,[sp,#0]
        0x08005dac:    e7ff        ..      B        0x8005dae ; nr_ansi_in__ + 30
        0x08005dae:    9800        ..      LDR      r0,[sp,#0]
        0x08005db0:    9901        ..      LDR      r1,[sp,#4]
        0x08005db2:    6849        Ih      LDR      r1,[r1,#4]
        0x08005db4:    4288        .B      CMP      r0,r1
        0x08005db6:    d20a        ..      BCS      0x8005dce ; nr_ansi_in__ + 62
        0x08005db8:    e7ff        ..      B        0x8005dba ; nr_ansi_in__ + 42
        0x08005dba:    9801        ..      LDR      r0,[sp,#4]
        0x08005dbc:    9900        ..      LDR      r1,[sp,#0]
        0x08005dbe:    4401        .D      ADD      r1,r1,r0
        0x08005dc0:    7a48        Hz      LDRB     r0,[r1,#9]
        0x08005dc2:    7208        .r      STRB     r0,[r1,#8]
        0x08005dc4:    e7ff        ..      B        0x8005dc6 ; nr_ansi_in__ + 54
        0x08005dc6:    9800        ..      LDR      r0,[sp,#0]
        0x08005dc8:    3001        .0      ADDS     r0,#1
        0x08005dca:    9000        ..      STR      r0,[sp,#0]
        0x08005dcc:    e7ef        ..      B        0x8005dae ; nr_ansi_in__ + 30
        0x08005dce:    9801        ..      LDR      r0,[sp,#4]
        0x08005dd0:    f9b01000    ....    LDRSH    r1,[r0,#0]
        0x08005dd4:    f9b00004    ....    LDRSH    r0,[r0,#4]
        0x08005dd8:    4288        .B      CMP      r0,r1
        0x08005dda:    dd0c        ..      BLE      0x8005df6 ; nr_ansi_in__ + 102
        0x08005ddc:    e7ff        ..      B        0x8005dde ; nr_ansi_in__ + 78
        0x08005dde:    9901        ..      LDR      r1,[sp,#4]
        0x08005de0:    6848        Hh      LDR      r0,[r1,#4]
        0x08005de2:    3801        .8      SUBS     r0,#1
        0x08005de4:    6048        H`      STR      r0,[r1,#4]
        0x08005de6:    f248305b    H.[0    MOV      r0,#0x835b
        0x08005dea:    f6c00000    ....    MOVT     r0,#0x800
        0x08005dee:    2104        .!      MOVS     r1,#4
        0x08005df0:    f7fffcc6    ....    BL       ansi_show_str ; 0x8005780
        0x08005df4:    e7ff        ..      B        0x8005df6 ; nr_ansi_in__ + 102
        0x08005df6:    e7ff        ..      B        0x8005df8 ; nr_ansi_in__ + 104
        0x08005df8:    b002        ..      ADD      sp,sp,#8
        0x08005dfa:    bd80        ..      POP      {r7,pc}
    nr_ansi_in_backspace
        0x08005dfc:    b580        ..      PUSH     {r7,lr}
        0x08005dfe:    b082        ..      SUB      sp,sp,#8
        0x08005e00:    9001        ..      STR      r0,[sp,#4]
        0x08005e02:    9801        ..      LDR      r0,[sp,#4]
        0x08005e04:    f9b00000    ....    LDRSH    r0,[r0,#0]
        0x08005e08:    2800        .(      CMP      r0,#0
        0x08005e0a:    d42b        +.      BMI      0x8005e64 ; nr_ansi_in_backspace + 104
        0x08005e0c:    e7ff        ..      B        0x8005e0e ; nr_ansi_in_backspace + 18
        0x08005e0e:    9801        ..      LDR      r0,[sp,#4]
        0x08005e10:    f9b00000    ....    LDRSH    r0,[r0,#0]
        0x08005e14:    9000        ..      STR      r0,[sp,#0]
        0x08005e16:    e7ff        ..      B        0x8005e18 ; nr_ansi_in_backspace + 28
        0x08005e18:    9800        ..      LDR      r0,[sp,#0]
        0x08005e1a:    9901        ..      LDR      r1,[sp,#4]
        0x08005e1c:    6849        Ih      LDR      r1,[r1,#4]
        0x08005e1e:    4288        .B      CMP      r0,r1
        0x08005e20:    d20a        ..      BCS      0x8005e38 ; nr_ansi_in_backspace + 60
        0x08005e22:    e7ff        ..      B        0x8005e24 ; nr_ansi_in_backspace + 40
        0x08005e24:    9801        ..      LDR      r0,[sp,#4]
        0x08005e26:    9900        ..      LDR      r1,[sp,#0]
        0x08005e28:    4401        .D      ADD      r1,r1,r0
        0x08005e2a:    7a48        Hz      LDRB     r0,[r1,#9]
        0x08005e2c:    7208        .r      STRB     r0,[r1,#8]
        0x08005e2e:    e7ff        ..      B        0x8005e30 ; nr_ansi_in_backspace + 52
        0x08005e30:    9800        ..      LDR      r0,[sp,#0]
        0x08005e32:    3001        .0      ADDS     r0,#1
        0x08005e34:    9000        ..      STR      r0,[sp,#0]
        0x08005e36:    e7ef        ..      B        0x8005e18 ; nr_ansi_in_backspace + 28
        0x08005e38:    9901        ..      LDR      r1,[sp,#4]
        0x08005e3a:    8808        ..      LDRH     r0,[r1,#0]
        0x08005e3c:    3801        .8      SUBS     r0,#1
        0x08005e3e:    8008        ..      STRH     r0,[r1,#0]
        0x08005e40:    9901        ..      LDR      r1,[sp,#4]
        0x08005e42:    6848        Hh      LDR      r0,[r1,#4]
        0x08005e44:    3801        .8      SUBS     r0,#1
        0x08005e46:    6048        H`      STR      r0,[r1,#4]
        0x08005e48:    f24011bc    @...    MOVW     r1,#0x1bc
        0x08005e4c:    f2c20100    ....    MOVT     r1,#0x2000
        0x08005e50:    2008        .       MOVS     r0,#8
        0x08005e52:    f7fafae9    ....    BL       putc ; 0x8000428
        0x08005e56:    f248305b    H.[0    MOV      r0,#0x835b
        0x08005e5a:    f6c00000    ....    MOVT     r0,#0x800
        0x08005e5e:    f7fafa95    ....    BL       printf ; 0x800038c
        0x08005e62:    e7ff        ..      B        0x8005e64 ; nr_ansi_in_backspace + 104
        0x08005e64:    b002        ..      ADD      sp,sp,#8
        0x08005e66:    bd80        ..      POP      {r7,pc}
    nr_ansi_in_down
        0x08005e68:    b580        ..      PUSH     {r7,lr}
        0x08005e6a:    b084        ..      SUB      sp,sp,#0x10
        0x08005e6c:    9003        ..      STR      r0,[sp,#0xc]
        0x08005e6e:    f2400028    @.(.    MOVW     r0,#0x28
        0x08005e72:    f2c20000    ....    MOVT     r0,#0x2000
        0x08005e76:    8d40        @.      LDRH     r0,[r0,#0x2a]
        0x08005e78:    2801        .(      CMP      r0,#1
        0x08005e7a:    db45        E.      BLT      0x8005f08 ; nr_ansi_in_down + 160
        0x08005e7c:    e7ff        ..      B        0x8005e7e ; nr_ansi_in_down + 22
        0x08005e7e:    9803        ..      LDR      r0,[sp,#0xc]
        0x08005e80:    f9b00000    ....    LDRSH    r0,[r0,#0]
        0x08005e84:    1c41        A.      ADDS     r1,r0,#1
        0x08005e86:    f2483051    H.Q0    MOV      r0,#0x8351
        0x08005e8a:    f6c00000    ....    MOVT     r0,#0x800
        0x08005e8e:    f7fafa7d    ..}.    BL       printf ; 0x800038c
        0x08005e92:    f2483057    H.W0    MOV      r0,#0x8357
        0x08005e96:    f6c00000    ....    MOVT     r0,#0x800
        0x08005e9a:    f7fafa77    ..w.    BL       printf ; 0x800038c
        0x08005e9e:    f2400028    @.(.    MOVW     r0,#0x28
        0x08005ea2:    f2c20000    ....    MOVT     r0,#0x2000
        0x08005ea6:    9002        ..      STR      r0,[sp,#8]
        0x08005ea8:    8d41        A.      LDRH     r1,[r0,#0x2a]
        0x08005eaa:    3024        $0      ADDS     r0,r0,#0x24
        0x08005eac:    9a03        ..      LDR      r2,[sp,#0xc]
        0x08005eae:    3208        .2      ADDS     r2,r2,#8
        0x08005eb0:    f000fa4a    ..J.    BL       shell_his_copy_queue_item ; 0x8006348
        0x08005eb4:    9803        ..      LDR      r0,[sp,#0xc]
        0x08005eb6:    3008        .0      ADDS     r0,r0,#8
        0x08005eb8:    f7fafaf3    ....    BL       strlen ; 0x80004a2
        0x08005ebc:    9903        ..      LDR      r1,[sp,#0xc]
        0x08005ebe:    6048        H`      STR      r0,[r1,#4]
        0x08005ec0:    9903        ..      LDR      r1,[sp,#0xc]
        0x08005ec2:    6848        Hh      LDR      r0,[r1,#4]
        0x08005ec4:    3801        .8      SUBS     r0,#1
        0x08005ec6:    8008        ..      STRH     r0,[r1,#0]
        0x08005ec8:    9903        ..      LDR      r1,[sp,#0xc]
        0x08005eca:    f1010008    ....    ADD      r0,r1,#8
        0x08005ece:    6849        Ih      LDR      r1,[r1,#4]
        0x08005ed0:    f7fffc56    ..V.    BL       ansi_show_str ; 0x8005780
        0x08005ed4:    9902        ..      LDR      r1,[sp,#8]
        0x08005ed6:    8d48        H.      LDRH     r0,[r1,#0x2a]
        0x08005ed8:    3001        .0      ADDS     r0,#1
        0x08005eda:    8548        H.      STRH     r0,[r1,#0x2a]
        0x08005edc:    8d48        H.      LDRH     r0,[r1,#0x2a]
        0x08005ede:    8d09        ..      LDRH     r1,[r1,#0x28]
        0x08005ee0:    4288        .B      CMP      r0,r1
        0x08005ee2:    dd03        ..      BLE      0x8005eec ; nr_ansi_in_down + 132
        0x08005ee4:    e7ff        ..      B        0x8005ee6 ; nr_ansi_in_down + 126
        0x08005ee6:    2001        .       MOVS     r0,#1
        0x08005ee8:    9001        ..      STR      r0,[sp,#4]
        0x08005eea:    e006        ..      B        0x8005efa ; nr_ansi_in_down + 146
        0x08005eec:    f2400028    @.(.    MOVW     r0,#0x28
        0x08005ef0:    f2c20000    ....    MOVT     r0,#0x2000
        0x08005ef4:    8d40        @.      LDRH     r0,[r0,#0x2a]
        0x08005ef6:    9001        ..      STR      r0,[sp,#4]
        0x08005ef8:    e7ff        ..      B        0x8005efa ; nr_ansi_in_down + 146
        0x08005efa:    9801        ..      LDR      r0,[sp,#4]
        0x08005efc:    f2400128    @.(.    MOVW     r1,#0x28
        0x08005f00:    f2c20100    ....    MOVT     r1,#0x2000
        0x08005f04:    8548        H.      STRH     r0,[r1,#0x2a]
        0x08005f06:    e7ff        ..      B        0x8005f08 ; nr_ansi_in_down + 160
        0x08005f08:    b004        ..      ADD      sp,sp,#0x10
        0x08005f0a:    bd80        ..      POP      {r7,pc}
    nr_ansi_in_enter
        0x08005f0c:    b580        ..      PUSH     {r7,lr}
        0x08005f0e:    b082        ..      SUB      sp,sp,#8
        0x08005f10:    9001        ..      STR      r0,[sp,#4]
        0x08005f12:    9901        ..      LDR      r1,[sp,#4]
        0x08005f14:    f64f70ff    O..p    MOV      r0,#0xffff
        0x08005f18:    8008        ..      STRH     r0,[r1,#0]
        0x08005f1a:    9901        ..      LDR      r1,[sp,#4]
        0x08005f1c:    2000        .       MOVS     r0,#0
        0x08005f1e:    6048        H`      STR      r0,[r1,#4]
        0x08005f20:    f2400128    @.(.    MOVW     r1,#0x28
        0x08005f24:    f2c20100    ....    MOVT     r1,#0x2000
        0x08005f28:    8d08        ..      LDRH     r0,[r1,#0x28]
        0x08005f2a:    8548        H.      STRH     r0,[r1,#0x2a]
        0x08005f2c:    f24011bc    @...    MOVW     r1,#0x1bc
        0x08005f30:    f2c20100    ....    MOVT     r1,#0x2000
        0x08005f34:    9100        ..      STR      r1,[sp,#0]
        0x08005f36:    200d        .       MOVS     r0,#0xd
        0x08005f38:    f7fafa76    ..v.    BL       putc ; 0x8000428
        0x08005f3c:    9900        ..      LDR      r1,[sp,#0]
        0x08005f3e:    200a        .       MOVS     r0,#0xa
        0x08005f40:    f7fafa72    ..r.    BL       putc ; 0x8000428
        0x08005f44:    b002        ..      ADD      sp,sp,#8
        0x08005f46:    bd80        ..      POP      {r7,pc}
    nr_ansi_in_left
        0x08005f48:    b580        ..      PUSH     {r7,lr}
        0x08005f4a:    b082        ..      SUB      sp,sp,#8
        0x08005f4c:    9001        ..      STR      r0,[sp,#4]
        0x08005f4e:    9801        ..      LDR      r0,[sp,#4]
        0x08005f50:    f9b00000    ....    LDRSH    r0,[r0,#0]
        0x08005f54:    2800        .(      CMP      r0,#0
        0x08005f56:    d40b        ..      BMI      0x8005f70 ; nr_ansi_in_left + 40
        0x08005f58:    e7ff        ..      B        0x8005f5a ; nr_ansi_in_left + 18
        0x08005f5a:    9901        ..      LDR      r1,[sp,#4]
        0x08005f5c:    8808        ..      LDRH     r0,[r1,#0]
        0x08005f5e:    3801        .8      SUBS     r0,#1
        0x08005f60:    8008        ..      STRH     r0,[r1,#0]
        0x08005f62:    f248304c    H.L0    MOV      r0,#0x834c
        0x08005f66:    f6c00000    ....    MOVT     r0,#0x800
        0x08005f6a:    f7fafa0f    ....    BL       printf ; 0x800038c
        0x08005f6e:    e7ff        ..      B        0x8005f70 ; nr_ansi_in_left + 40
        0x08005f70:    b002        ..      ADD      sp,sp,#8
        0x08005f72:    bd80        ..      POP      {r7,pc}
    nr_ansi_in_newline
        0x08005f74:    b580        ..      PUSH     {r7,lr}
        0x08005f76:    b082        ..      SUB      sp,sp,#8
        0x08005f78:    9001        ..      STR      r0,[sp,#4]
        0x08005f7a:    9901        ..      LDR      r1,[sp,#4]
        0x08005f7c:    f64f70ff    O..p    MOV      r0,#0xffff
        0x08005f80:    8008        ..      STRH     r0,[r1,#0]
        0x08005f82:    9901        ..      LDR      r1,[sp,#4]
        0x08005f84:    2000        .       MOVS     r0,#0
        0x08005f86:    6048        H`      STR      r0,[r1,#4]
        0x08005f88:    f2400128    @.(.    MOVW     r1,#0x28
        0x08005f8c:    f2c20100    ....    MOVT     r1,#0x2000
        0x08005f90:    8d08        ..      LDRH     r0,[r1,#0x28]
        0x08005f92:    8548        H.      STRH     r0,[r1,#0x2a]
        0x08005f94:    f24011bc    @...    MOVW     r1,#0x1bc
        0x08005f98:    f2c20100    ....    MOVT     r1,#0x2000
        0x08005f9c:    200a        .       MOVS     r0,#0xa
        0x08005f9e:    f7fafa43    ..C.    BL       putc ; 0x8000428
        0x08005fa2:    b002        ..      ADD      sp,sp,#8
        0x08005fa4:    bd80        ..      POP      {r7,pc}
        0x08005fa6:    0000        ..      MOVS     r0,r0
    nr_ansi_in_right
        0x08005fa8:    b580        ..      PUSH     {r7,lr}
        0x08005faa:    b082        ..      SUB      sp,sp,#8
        0x08005fac:    9001        ..      STR      r0,[sp,#4]
        0x08005fae:    9901        ..      LDR      r1,[sp,#4]
        0x08005fb0:    f9b10000    ....    LDRSH    r0,[r1,#0]
        0x08005fb4:    6849        Ih      LDR      r1,[r1,#4]
        0x08005fb6:    3901        .9      SUBS     r1,#1
        0x08005fb8:    4288        .B      CMP      r0,r1
        0x08005fba:    da0b        ..      BGE      0x8005fd4 ; nr_ansi_in_right + 44
        0x08005fbc:    e7ff        ..      B        0x8005fbe ; nr_ansi_in_right + 22
        0x08005fbe:    9901        ..      LDR      r1,[sp,#4]
        0x08005fc0:    8808        ..      LDRH     r0,[r1,#0]
        0x08005fc2:    3001        .0      ADDS     r0,#1
        0x08005fc4:    8008        ..      STRH     r0,[r1,#0]
        0x08005fc6:    f2483047    H.G0    MOV      r0,#0x8347
        0x08005fca:    f6c00000    ....    MOVT     r0,#0x800
        0x08005fce:    f7faf9dd    ....    BL       printf ; 0x800038c
        0x08005fd2:    e7ff        ..      B        0x8005fd4 ; nr_ansi_in_right + 44
        0x08005fd4:    b002        ..      ADD      sp,sp,#8
        0x08005fd6:    bd80        ..      POP      {r7,pc}
    nr_ansi_in_tab
        0x08005fd8:    b580        ..      PUSH     {r7,lr}
        0x08005fda:    b084        ..      SUB      sp,sp,#0x10
        0x08005fdc:    9003        ..      STR      r0,[sp,#0xc]
        0x08005fde:    9803        ..      LDR      r0,[sp,#0xc]
        0x08005fe0:    f1000108    ....    ADD      r1,r0,#8
        0x08005fe4:    f2400028    @.(.    MOVW     r0,#0x28
        0x08005fe8:    f2c20000    ....    MOVT     r0,#0x2000
        0x08005fec:    f000f94e    ..N.    BL       shell_cmd_complete ; 0x800628c
        0x08005ff0:    9001        ..      STR      r0,[sp,#4]
        0x08005ff2:    9801        ..      LDR      r0,[sp,#4]
        0x08005ff4:    2800        .(      CMP      r0,#0
        0x08005ff6:    d06c        l.      BEQ      0x80060d2 ; nr_ansi_in_tab + 250
        0x08005ff8:    e7ff        ..      B        0x8005ffa ; nr_ansi_in_tab + 34
        0x08005ffa:    9803        ..      LDR      r0,[sp,#0xc]
        0x08005ffc:    6840        @h      LDR      r0,[r0,#4]
        0x08005ffe:    2800        .(      CMP      r0,#0
        0x08006000:    d141        A.      BNE      0x8006086 ; nr_ansi_in_tab + 174
        0x08006002:    e7ff        ..      B        0x8006004 ; nr_ansi_in_tab + 44
        0x08006004:    f24840d5    H..@    MOV      r0,#0x84d5
        0x08006008:    f6c00000    ....    MOVT     r0,#0x800
        0x0800600c:    f7faf9be    ....    BL       printf ; 0x800038c
        0x08006010:    2000        .       MOVS     r0,#0
        0x08006012:    f88d000b    ....    STRB     r0,[sp,#0xb]
        0x08006016:    e7ff        ..      B        0x8006018 ; nr_ansi_in_tab + 64
        0x08006018:    f2400028    @.(.    MOVW     r0,#0x28
        0x0800601c:    f2c20000    ....    MOVT     r0,#0x2000
        0x08006020:    6a00        .j      LDR      r0,[r0,#0x20]
        0x08006022:    f89d100b    ....    LDRB     r1,[sp,#0xb]
        0x08006026:    eb010181    ....    ADD      r1,r1,r1,LSL #2
        0x0800602a:    eb000081    ....    ADD      r0,r0,r1,LSL #2
        0x0800602e:    68c0        .h      LDR      r0,[r0,#0xc]
        0x08006030:    b1f0        ..      CBZ      r0,0x8006070 ; nr_ansi_in_tab + 152
        0x08006032:    e7ff        ..      B        0x8006034 ; nr_ansi_in_tab + 92
        0x08006034:    f2400028    @.(.    MOVW     r0,#0x28
        0x08006038:    f2c20000    ....    MOVT     r0,#0x2000
        0x0800603c:    6a00        .j      LDR      r0,[r0,#0x20]
        0x0800603e:    f89d100b    ....    LDRB     r1,[sp,#0xb]
        0x08006042:    eb010181    ....    ADD      r1,r1,r1,LSL #2
        0x08006046:    eb000181    ....    ADD      r1,r0,r1,LSL #2
        0x0800604a:    f2483060    H.`0    MOV      r0,#0x8360
        0x0800604e:    f6c00000    ....    MOVT     r0,#0x800
        0x08006052:    f7faf99b    ....    BL       printf ; 0x800038c
        0x08006056:    f24840d5    H..@    MOV      r0,#0x84d5
        0x0800605a:    f6c00000    ....    MOVT     r0,#0x800
        0x0800605e:    f7faf995    ....    BL       printf ; 0x800038c
        0x08006062:    e7ff        ..      B        0x8006064 ; nr_ansi_in_tab + 140
        0x08006064:    f89d000b    ....    LDRB     r0,[sp,#0xb]
        0x08006068:    3001        .0      ADDS     r0,#1
        0x0800606a:    f88d000b    ....    STRB     r0,[sp,#0xb]
        0x0800606e:    e7d3        ..      B        0x8006018 ; nr_ansi_in_tab + 64
        0x08006070:    f2483060    H.`0    MOV      r0,#0x8360
        0x08006074:    f6c00000    ....    MOVT     r0,#0x800
        0x08006078:    f2400128    @.(.    MOVW     r1,#0x28
        0x0800607c:    f2c20100    ....    MOVT     r1,#0x2000
        0x08006080:    f7faf984    ....    BL       printf ; 0x800038c
        0x08006084:    e024        $.      B        0x80060d0 ; nr_ansi_in_tab + 248
        0x08006086:    9803        ..      LDR      r0,[sp,#0xc]
        0x08006088:    f9b00000    ....    LDRSH    r0,[r0,#0]
        0x0800608c:    1c41        A.      ADDS     r1,r0,#1
        0x0800608e:    f2483051    H.Q0    MOV      r0,#0x8351
        0x08006092:    f6c00000    ....    MOVT     r0,#0x800
        0x08006096:    f7faf979    ..y.    BL       printf ; 0x800038c
        0x0800609a:    f2483057    H.W0    MOV      r0,#0x8357
        0x0800609e:    f6c00000    ....    MOVT     r0,#0x800
        0x080060a2:    f7faf973    ..s.    BL       printf ; 0x800038c
        0x080060a6:    9801        ..      LDR      r0,[sp,#4]
        0x080060a8:    f7faf9fb    ....    BL       strlen ; 0x80004a2
        0x080060ac:    9903        ..      LDR      r1,[sp,#0xc]
        0x080060ae:    6048        H`      STR      r0,[r1,#4]
        0x080060b0:    9903        ..      LDR      r1,[sp,#0xc]
        0x080060b2:    6848        Hh      LDR      r0,[r1,#4]
        0x080060b4:    3801        .8      SUBS     r0,#1
        0x080060b6:    8008        ..      STRH     r0,[r1,#0]
        0x080060b8:    9803        ..      LDR      r0,[sp,#0xc]
        0x080060ba:    3008        .0      ADDS     r0,r0,#8
        0x080060bc:    9901        ..      LDR      r1,[sp,#4]
        0x080060be:    f7faf9cc    ....    BL       strcpy ; 0x800045a
        0x080060c2:    9903        ..      LDR      r1,[sp,#0xc]
        0x080060c4:    f1010008    ....    ADD      r0,r1,#8
        0x080060c8:    6849        Ih      LDR      r1,[r1,#4]
        0x080060ca:    f7fffb59    ..Y.    BL       ansi_show_str ; 0x8005780
        0x080060ce:    e7ff        ..      B        0x80060d0 ; nr_ansi_in_tab + 248
        0x080060d0:    e7ff        ..      B        0x80060d2 ; nr_ansi_in_tab + 250
        0x080060d2:    b004        ..      ADD      sp,sp,#0x10
        0x080060d4:    bd80        ..      POP      {r7,pc}
        0x080060d6:    0000        ..      MOVS     r0,r0
    nr_ansi_in_up
        0x080060d8:    b580        ..      PUSH     {r7,lr}
        0x080060da:    b084        ..      SUB      sp,sp,#0x10
        0x080060dc:    9003        ..      STR      r0,[sp,#0xc]
        0x080060de:    f2400028    @.(.    MOVW     r0,#0x28
        0x080060e2:    f2c20000    ....    MOVT     r0,#0x2000
        0x080060e6:    8d40        @.      LDRH     r0,[r0,#0x2a]
        0x080060e8:    2801        .(      CMP      r0,#1
        0x080060ea:    db47        G.      BLT      0x800617c ; nr_ansi_in_up + 164
        0x080060ec:    e7ff        ..      B        0x80060ee ; nr_ansi_in_up + 22
        0x080060ee:    9803        ..      LDR      r0,[sp,#0xc]
        0x080060f0:    f9b00000    ....    LDRSH    r0,[r0,#0]
        0x080060f4:    1c41        A.      ADDS     r1,r0,#1
        0x080060f6:    f2483051    H.Q0    MOV      r0,#0x8351
        0x080060fa:    f6c00000    ....    MOVT     r0,#0x800
        0x080060fe:    f7faf945    ..E.    BL       printf ; 0x800038c
        0x08006102:    f2483057    H.W0    MOV      r0,#0x8357
        0x08006106:    f6c00000    ....    MOVT     r0,#0x800
        0x0800610a:    f7faf93f    ..?.    BL       printf ; 0x800038c
        0x0800610e:    f2400028    @.(.    MOVW     r0,#0x28
        0x08006112:    f2c20000    ....    MOVT     r0,#0x2000
        0x08006116:    9002        ..      STR      r0,[sp,#8]
        0x08006118:    8d41        A.      LDRH     r1,[r0,#0x2a]
        0x0800611a:    3024        $0      ADDS     r0,r0,#0x24
        0x0800611c:    9a03        ..      LDR      r2,[sp,#0xc]
        0x0800611e:    3208        .2      ADDS     r2,r2,#8
        0x08006120:    f000f912    ....    BL       shell_his_copy_queue_item ; 0x8006348
        0x08006124:    9803        ..      LDR      r0,[sp,#0xc]
        0x08006126:    3008        .0      ADDS     r0,r0,#8
        0x08006128:    f7faf9bb    ....    BL       strlen ; 0x80004a2
        0x0800612c:    9903        ..      LDR      r1,[sp,#0xc]
        0x0800612e:    6048        H`      STR      r0,[r1,#4]
        0x08006130:    9903        ..      LDR      r1,[sp,#0xc]
        0x08006132:    6848        Hh      LDR      r0,[r1,#4]
        0x08006134:    3801        .8      SUBS     r0,#1
        0x08006136:    8008        ..      STRH     r0,[r1,#0]
        0x08006138:    9903        ..      LDR      r1,[sp,#0xc]
        0x0800613a:    f1010008    ....    ADD      r0,r1,#8
        0x0800613e:    6849        Ih      LDR      r1,[r1,#4]
        0x08006140:    f7fffb1e    ....    BL       ansi_show_str ; 0x8005780
        0x08006144:    9802        ..      LDR      r0,[sp,#8]
        0x08006146:    8d41        A.      LDRH     r1,[r0,#0x2a]
        0x08006148:    3901        .9      SUBS     r1,#1
        0x0800614a:    8541        A.      STRH     r1,[r0,#0x2a]
        0x0800614c:    8d40        @.      LDRH     r0,[r0,#0x2a]
        0x0800614e:    b938        8.      CBNZ     r0,0x8006160 ; nr_ansi_in_up + 136
        0x08006150:    e7ff        ..      B        0x8006152 ; nr_ansi_in_up + 122
        0x08006152:    f2400028    @.(.    MOVW     r0,#0x28
        0x08006156:    f2c20000    ....    MOVT     r0,#0x2000
        0x0800615a:    8d00        ..      LDRH     r0,[r0,#0x28]
        0x0800615c:    9001        ..      STR      r0,[sp,#4]
        0x0800615e:    e006        ..      B        0x800616e ; nr_ansi_in_up + 150
        0x08006160:    f2400028    @.(.    MOVW     r0,#0x28
        0x08006164:    f2c20000    ....    MOVT     r0,#0x2000
        0x08006168:    8d40        @.      LDRH     r0,[r0,#0x2a]
        0x0800616a:    9001        ..      STR      r0,[sp,#4]
        0x0800616c:    e7ff        ..      B        0x800616e ; nr_ansi_in_up + 150
        0x0800616e:    9801        ..      LDR      r0,[sp,#4]
        0x08006170:    f2400128    @.(.    MOVW     r1,#0x28
        0x08006174:    f2c20100    ....    MOVT     r1,#0x2000
        0x08006178:    8548        H.      STRH     r0,[r1,#0x2a]
        0x0800617a:    e7ff        ..      B        0x800617c ; nr_ansi_in_up + 164
        0x0800617c:    b004        ..      ADD      sp,sp,#0x10
        0x0800617e:    bd80        ..      POP      {r7,pc}
    nr_shell_strtok
        0x08006180:    b08f        ..      SUB      sp,sp,#0x3c
        0x08006182:    900d        ..      STR      r0,[sp,#0x34]
        0x08006184:    910c        ..      STR      r1,[sp,#0x30]
        0x08006186:    980c        ..      LDR      r0,[sp,#0x30]
        0x08006188:    900a        ..      STR      r0,[sp,#0x28]
        0x0800618a:    2000        .       MOVS     r0,#0
        0x0800618c:    9001        ..      STR      r0,[sp,#4]
        0x0800618e:    e7ff        ..      B        0x8006190 ; nr_shell_strtok + 16
        0x08006190:    9801        ..      LDR      r0,[sp,#4]
        0x08006192:    281f        .(      CMP      r0,#0x1f
        0x08006194:    dc09        ..      BGT      0x80061aa ; nr_shell_strtok + 42
        0x08006196:    e7ff        ..      B        0x8006198 ; nr_shell_strtok + 24
        0x08006198:    9a01        ..      LDR      r2,[sp,#4]
        0x0800619a:    a902        ..      ADD      r1,sp,#8
        0x0800619c:    2000        .       MOVS     r0,#0
        0x0800619e:    5488        .T      STRB     r0,[r1,r2]
        0x080061a0:    e7ff        ..      B        0x80061a2 ; nr_shell_strtok + 34
        0x080061a2:    9801        ..      LDR      r0,[sp,#4]
        0x080061a4:    3001        .0      ADDS     r0,#1
        0x080061a6:    9001        ..      STR      r0,[sp,#4]
        0x080061a8:    e7f2        ..      B        0x8006190 ; nr_shell_strtok + 16
        0x080061aa:    e7ff        ..      B        0x80061ac ; nr_shell_strtok + 44
        0x080061ac:    980a        ..      LDR      r0,[sp,#0x28]
        0x080061ae:    7800        .x      LDRB     r0,[r0,#0]
        0x080061b0:    f0000207    ....    AND      r2,r0,#7
        0x080061b4:    2101        .!      MOVS     r1,#1
        0x080061b6:    fa01f302    ....    LSL      r3,r1,r2
        0x080061ba:    08c2        ..      LSRS     r2,r0,#3
        0x080061bc:    a902        ..      ADD      r1,sp,#8
        0x080061be:    5c88        .\      LDRB     r0,[r1,r2]
        0x080061c0:    4318        .C      ORRS     r0,r0,r3
        0x080061c2:    5488        .T      STRB     r0,[r1,r2]
        0x080061c4:    e7ff        ..      B        0x80061c6 ; nr_shell_strtok + 70
        0x080061c6:    980a        ..      LDR      r0,[sp,#0x28]
        0x080061c8:    1c41        A.      ADDS     r1,r0,#1
        0x080061ca:    910a        ..      STR      r1,[sp,#0x28]
        0x080061cc:    7800        .x      LDRB     r0,[r0,#0]
        0x080061ce:    2800        .(      CMP      r0,#0
        0x080061d0:    d1ec        ..      BNE      0x80061ac ; nr_shell_strtok + 44
        0x080061d2:    e7ff        ..      B        0x80061d4 ; nr_shell_strtok + 84
        0x080061d4:    980d        ..      LDR      r0,[sp,#0x34]
        0x080061d6:    b118        ..      CBZ      r0,0x80061e0 ; nr_shell_strtok + 96
        0x080061d8:    e7ff        ..      B        0x80061da ; nr_shell_strtok + 90
        0x080061da:    980d        ..      LDR      r0,[sp,#0x34]
        0x080061dc:    900b        ..      STR      r0,[sp,#0x2c]
        0x080061de:    e006        ..      B        0x80061ee ; nr_shell_strtok + 110
        0x080061e0:    f6402040    @.@     MOVW     r0,#0xa40
        0x080061e4:    f2c20000    ....    MOVT     r0,#0x2000
        0x080061e8:    6800        .h      LDR      r0,[r0,#0]
        0x080061ea:    900b        ..      STR      r0,[sp,#0x2c]
        0x080061ec:    e7ff        ..      B        0x80061ee ; nr_shell_strtok + 110
        0x080061ee:    e7ff        ..      B        0x80061f0 ; nr_shell_strtok + 112
        0x080061f0:    980b        ..      LDR      r0,[sp,#0x2c]
        0x080061f2:    7800        .x      LDRB     r0,[r0,#0]
        0x080061f4:    08c2        ..      LSRS     r2,r0,#3
        0x080061f6:    a902        ..      ADD      r1,sp,#8
        0x080061f8:    5c89        .\      LDRB     r1,[r1,r2]
        0x080061fa:    f0000207    ....    AND      r2,r0,#7
        0x080061fe:    2000        .       MOVS     r0,#0
        0x08006200:    40d1        .@      LSRS     r1,r1,r2
        0x08006202:    07c9        ..      LSLS     r1,r1,#31
        0x08006204:    9000        ..      STR      r0,[sp,#0]
        0x08006206:    b139        9.      CBZ      r1,0x8006218 ; nr_shell_strtok + 152
        0x08006208:    e7ff        ..      B        0x800620a ; nr_shell_strtok + 138
        0x0800620a:    980b        ..      LDR      r0,[sp,#0x2c]
        0x0800620c:    7800        .x      LDRB     r0,[r0,#0]
        0x0800620e:    2800        .(      CMP      r0,#0
        0x08006210:    bf18        ..      IT       NE
        0x08006212:    2001        .       MOVNE    r0,#1
        0x08006214:    9000        ..      STR      r0,[sp,#0]
        0x08006216:    e7ff        ..      B        0x8006218 ; nr_shell_strtok + 152
        0x08006218:    9800        ..      LDR      r0,[sp,#0]
        0x0800621a:    07c0        ..      LSLS     r0,r0,#31
        0x0800621c:    b120         .      CBZ      r0,0x8006228 ; nr_shell_strtok + 168
        0x0800621e:    e7ff        ..      B        0x8006220 ; nr_shell_strtok + 160
        0x08006220:    980b        ..      LDR      r0,[sp,#0x2c]
        0x08006222:    3001        .0      ADDS     r0,#1
        0x08006224:    900b        ..      STR      r0,[sp,#0x2c]
        0x08006226:    e7e3        ..      B        0x80061f0 ; nr_shell_strtok + 112
        0x08006228:    980b        ..      LDR      r0,[sp,#0x2c]
        0x0800622a:    900d        ..      STR      r0,[sp,#0x34]
        0x0800622c:    e7ff        ..      B        0x800622e ; nr_shell_strtok + 174
        0x0800622e:    980b        ..      LDR      r0,[sp,#0x2c]
        0x08006230:    7800        .x      LDRB     r0,[r0,#0]
        0x08006232:    b1b0        ..      CBZ      r0,0x8006262 ; nr_shell_strtok + 226
        0x08006234:    e7ff        ..      B        0x8006236 ; nr_shell_strtok + 182
        0x08006236:    980b        ..      LDR      r0,[sp,#0x2c]
        0x08006238:    7801        .x      LDRB     r1,[r0,#0]
        0x0800623a:    08ca        ..      LSRS     r2,r1,#3
        0x0800623c:    a802        ..      ADD      r0,sp,#8
        0x0800623e:    5c80        .\      LDRB     r0,[r0,r2]
        0x08006240:    f0010107    ....    AND      r1,r1,#7
        0x08006244:    40c8        .@      LSRS     r0,r0,r1
        0x08006246:    07c0        ..      LSLS     r0,r0,#31
        0x08006248:    b130        0.      CBZ      r0,0x8006258 ; nr_shell_strtok + 216
        0x0800624a:    e7ff        ..      B        0x800624c ; nr_shell_strtok + 204
        0x0800624c:    990b        ..      LDR      r1,[sp,#0x2c]
        0x0800624e:    1c48        H.      ADDS     r0,r1,#1
        0x08006250:    900b        ..      STR      r0,[sp,#0x2c]
        0x08006252:    2000        .       MOVS     r0,#0
        0x08006254:    7008        .p      STRB     r0,[r1,#0]
        0x08006256:    e004        ..      B        0x8006262 ; nr_shell_strtok + 226
        0x08006258:    e7ff        ..      B        0x800625a ; nr_shell_strtok + 218
        0x0800625a:    980b        ..      LDR      r0,[sp,#0x2c]
        0x0800625c:    3001        .0      ADDS     r0,#1
        0x0800625e:    900b        ..      STR      r0,[sp,#0x2c]
        0x08006260:    e7e5        ..      B        0x800622e ; nr_shell_strtok + 174
        0x08006262:    980b        ..      LDR      r0,[sp,#0x2c]
        0x08006264:    f6402140    @.@!    MOVW     r1,#0xa40
        0x08006268:    f2c20100    ....    MOVT     r1,#0x2000
        0x0800626c:    6008        .`      STR      r0,[r1,#0]
        0x0800626e:    980d        ..      LDR      r0,[sp,#0x34]
        0x08006270:    990b        ..      LDR      r1,[sp,#0x2c]
        0x08006272:    4288        .B      CMP      r0,r1
        0x08006274:    d103        ..      BNE      0x800627e ; nr_shell_strtok + 254
        0x08006276:    e7ff        ..      B        0x8006278 ; nr_shell_strtok + 248
        0x08006278:    2000        .       MOVS     r0,#0
        0x0800627a:    900e        ..      STR      r0,[sp,#0x38]
        0x0800627c:    e002        ..      B        0x8006284 ; nr_shell_strtok + 260
        0x0800627e:    980d        ..      LDR      r0,[sp,#0x34]
        0x08006280:    900e        ..      STR      r0,[sp,#0x38]
        0x08006282:    e7ff        ..      B        0x8006284 ; nr_shell_strtok + 260
        0x08006284:    980e        ..      LDR      r0,[sp,#0x38]
        0x08006286:    b00f        ..      ADD      sp,sp,#0x3c
        0x08006288:    4770        pG      BX       lr
        0x0800628a:    0000        ..      MOVS     r0,r0
    shell_cmd_complete
        0x0800628c:    b580        ..      PUSH     {r7,lr}
        0x0800628e:    b086        ..      SUB      sp,sp,#0x18
        0x08006290:    9005        ..      STR      r0,[sp,#0x14]
        0x08006292:    9104        ..      STR      r1,[sp,#0x10]
        0x08006294:    2000        .       MOVS     r0,#0
        0x08006296:    9003        ..      STR      r0,[sp,#0xc]
        0x08006298:    9001        ..      STR      r0,[sp,#4]
        0x0800629a:    21ff        .!      MOVS     r1,#0xff
        0x0800629c:    f88d1003    ....    STRB     r1,[sp,#3]
        0x080062a0:    f88d000b    ....    STRB     r0,[sp,#0xb]
        0x080062a4:    e7ff        ..      B        0x80062a6 ; shell_cmd_complete + 26
        0x080062a6:    9805        ..      LDR      r0,[sp,#0x14]
        0x080062a8:    6a00        .j      LDR      r0,[r0,#0x20]
        0x080062aa:    f89d100b    ....    LDRB     r1,[sp,#0xb]
        0x080062ae:    eb010181    ....    ADD      r1,r1,r1,LSL #2
        0x080062b2:    f8100021    ..!.    LDRB     r0,[r0,r1,LSL #2]
        0x080062b6:    2800        .(      CMP      r0,#0
        0x080062b8:    d042        B.      BEQ      0x8006340 ; shell_cmd_complete + 180
        0x080062ba:    e7ff        ..      B        0x80062bc ; shell_cmd_complete + 48
        0x080062bc:    2000        .       MOVS     r0,#0
        0x080062be:    9003        ..      STR      r0,[sp,#0xc]
        0x080062c0:    9805        ..      LDR      r0,[sp,#0x14]
        0x080062c2:    6a00        .j      LDR      r0,[r0,#0x20]
        0x080062c4:    f89d100b    ....    LDRB     r1,[sp,#0xb]
        0x080062c8:    eb010181    ....    ADD      r1,r1,r1,LSL #2
        0x080062cc:    eb000081    ....    ADD      r0,r0,r1,LSL #2
        0x080062d0:    9904        ..      LDR      r1,[sp,#0x10]
        0x080062d2:    f7faf8b0    ....    BL       strstr ; 0x8000436
        0x080062d6:    9003        ..      STR      r0,[sp,#0xc]
        0x080062d8:    9803        ..      LDR      r0,[sp,#0xc]
        0x080062da:    b350        P.      CBZ      r0,0x8006332 ; shell_cmd_complete + 166
        0x080062dc:    e7ff        ..      B        0x80062de ; shell_cmd_complete + 82
        0x080062de:    9803        ..      LDR      r0,[sp,#0xc]
        0x080062e0:    9905        ..      LDR      r1,[sp,#0x14]
        0x080062e2:    6a09        .j      LDR      r1,[r1,#0x20]
        0x080062e4:    f89d200b    ...     LDRB     r2,[sp,#0xb]
        0x080062e8:    eb020282    ....    ADD      r2,r2,r2,LSL #2
        0x080062ec:    eb010182    ....    ADD      r1,r1,r2,LSL #2
        0x080062f0:    1a40        @.      SUBS     r0,r0,r1
        0x080062f2:    f89d1003    ....    LDRB     r1,[sp,#3]
        0x080062f6:    4288        .B      CMP      r0,r1
        0x080062f8:    d21b        ..      BCS      0x8006332 ; shell_cmd_complete + 166
        0x080062fa:    e7ff        ..      B        0x80062fc ; shell_cmd_complete + 112
        0x080062fc:    9803        ..      LDR      r0,[sp,#0xc]
        0x080062fe:    9905        ..      LDR      r1,[sp,#0x14]
        0x08006300:    6a09        .j      LDR      r1,[r1,#0x20]
        0x08006302:    f89d200b    ...     LDRB     r2,[sp,#0xb]
        0x08006306:    eb020282    ....    ADD      r2,r2,r2,LSL #2
        0x0800630a:    eb010182    ....    ADD      r1,r1,r2,LSL #2
        0x0800630e:    1a40        @.      SUBS     r0,r0,r1
        0x08006310:    f88d0003    ....    STRB     r0,[sp,#3]
        0x08006314:    9805        ..      LDR      r0,[sp,#0x14]
        0x08006316:    6a00        .j      LDR      r0,[r0,#0x20]
        0x08006318:    f89d100b    ....    LDRB     r1,[sp,#0xb]
        0x0800631c:    eb010181    ....    ADD      r1,r1,r1,LSL #2
        0x08006320:    eb000081    ....    ADD      r0,r0,r1,LSL #2
        0x08006324:    9001        ..      STR      r0,[sp,#4]
        0x08006326:    f89d0003    ....    LDRB     r0,[sp,#3]
        0x0800632a:    b908        ..      CBNZ     r0,0x8006330 ; shell_cmd_complete + 164
        0x0800632c:    e7ff        ..      B        0x800632e ; shell_cmd_complete + 162
        0x0800632e:    e007        ..      B        0x8006340 ; shell_cmd_complete + 180
        0x08006330:    e7ff        ..      B        0x8006332 ; shell_cmd_complete + 166
        0x08006332:    e7ff        ..      B        0x8006334 ; shell_cmd_complete + 168
        0x08006334:    f89d000b    ....    LDRB     r0,[sp,#0xb]
        0x08006338:    3001        .0      ADDS     r0,#1
        0x0800633a:    f88d000b    ....    STRB     r0,[sp,#0xb]
        0x0800633e:    e7b2        ..      B        0x80062a6 ; shell_cmd_complete + 26
        0x08006340:    9801        ..      LDR      r0,[sp,#4]
        0x08006342:    b006        ..      ADD      sp,sp,#0x18
        0x08006344:    bd80        ..      POP      {r7,pc}
        0x08006346:    0000        ..      MOVS     r0,r0
    shell_his_copy_queue_item
        0x08006348:    b087        ..      SUB      sp,sp,#0x1c
        0x0800634a:    9006        ..      STR      r0,[sp,#0x18]
        0x0800634c:    f8ad1016    ....    STRH     r1,[sp,#0x16]
        0x08006350:    9204        ..      STR      r2,[sp,#0x10]
        0x08006352:    f8bd0016    ....    LDRH     r0,[sp,#0x16]
        0x08006356:    9906        ..      LDR      r1,[sp,#0x18]
        0x08006358:    8889        ..      LDRH     r1,[r1,#4]
        0x0800635a:    4288        .B      CMP      r0,r1
        0x0800635c:    f30080ae    ....    BGT.W    0x80064bc ; shell_his_copy_queue_item + 372
        0x08006360:    e7ff        ..      B        0x8006362 ; shell_his_copy_queue_item + 26
        0x08006362:    9806        ..      LDR      r0,[sp,#0x18]
        0x08006364:    8800        ..      LDRH     r0,[r0,#0]
        0x08006366:    f8bd1016    ....    LDRH     r1,[sp,#0x16]
        0x0800636a:    4408        .D      ADD      r0,r0,r1
        0x0800636c:    3801        .8      SUBS     r0,#1
        0x0800636e:    f8ad000e    ....    STRH     r0,[sp,#0xe]
        0x08006372:    f8bd000e    ....    LDRH     r0,[sp,#0xe]
        0x08006376:    280b        .(      CMP      r0,#0xb
        0x08006378:    db05        ..      BLT      0x8006386 ; shell_his_copy_queue_item + 62
        0x0800637a:    e7ff        ..      B        0x800637c ; shell_his_copy_queue_item + 52
        0x0800637c:    f8bd000e    ....    LDRH     r0,[sp,#0xe]
        0x08006380:    380b        .8      SUBS     r0,r0,#0xb
        0x08006382:    9001        ..      STR      r0,[sp,#4]
        0x08006384:    e003        ..      B        0x800638e ; shell_his_copy_queue_item + 70
        0x08006386:    f8bd000e    ....    LDRH     r0,[sp,#0xe]
        0x0800638a:    9001        ..      STR      r0,[sp,#4]
        0x0800638c:    e7ff        ..      B        0x800638e ; shell_his_copy_queue_item + 70
        0x0800638e:    9801        ..      LDR      r0,[sp,#4]
        0x08006390:    f8ad000e    ....    STRH     r0,[sp,#0xe]
        0x08006394:    9806        ..      LDR      r0,[sp,#0x18]
        0x08006396:    f8bd100e    ....    LDRH     r1,[sp,#0xe]
        0x0800639a:    4408        .D      ADD      r0,r0,r1
        0x0800639c:    7b80        .{      LDRB     r0,[r0,#0xe]
        0x0800639e:    f8ad000c    ....    STRH     r0,[sp,#0xc]
        0x080063a2:    f8bd000e    ....    LDRH     r0,[sp,#0xe]
        0x080063a6:    3001        .0      ADDS     r0,#1
        0x080063a8:    f8ad000e    ....    STRH     r0,[sp,#0xe]
        0x080063ac:    f8bd000e    ....    LDRH     r0,[sp,#0xe]
        0x080063b0:    280b        .(      CMP      r0,#0xb
        0x080063b2:    db03        ..      BLT      0x80063bc ; shell_his_copy_queue_item + 116
        0x080063b4:    e7ff        ..      B        0x80063b6 ; shell_his_copy_queue_item + 110
        0x080063b6:    2000        .       MOVS     r0,#0
        0x080063b8:    9000        ..      STR      r0,[sp,#0]
        0x080063ba:    e003        ..      B        0x80063c4 ; shell_his_copy_queue_item + 124
        0x080063bc:    f8bd000e    ....    LDRH     r0,[sp,#0xe]
        0x080063c0:    9000        ..      STR      r0,[sp,#0]
        0x080063c2:    e7ff        ..      B        0x80063c4 ; shell_his_copy_queue_item + 124
        0x080063c4:    9800        ..      LDR      r0,[sp,#0]
        0x080063c6:    f8ad000e    ....    STRH     r0,[sp,#0xe]
        0x080063ca:    9806        ..      LDR      r0,[sp,#0x18]
        0x080063cc:    f8bd100e    ....    LDRH     r1,[sp,#0xe]
        0x080063d0:    4408        .D      ADD      r0,r0,r1
        0x080063d2:    7b80        .{      LDRB     r0,[r0,#0xe]
        0x080063d4:    f8ad000a    ....    STRH     r0,[sp,#0xa]
        0x080063d8:    f8bd000c    ....    LDRH     r0,[sp,#0xc]
        0x080063dc:    f8bd100a    ....    LDRH     r1,[sp,#0xa]
        0x080063e0:    4288        .B      CMP      r0,r1
        0x080063e2:    da26        &.      BGE      0x8006432 ; shell_his_copy_queue_item + 234
        0x080063e4:    e7ff        ..      B        0x80063e6 ; shell_his_copy_queue_item + 158
        0x080063e6:    f8bd000c    ....    LDRH     r0,[sp,#0xc]
        0x080063ea:    f8ad0008    ....    STRH     r0,[sp,#8]
        0x080063ee:    e7ff        ..      B        0x80063f0 ; shell_his_copy_queue_item + 168
        0x080063f0:    f8bd0008    ....    LDRH     r0,[sp,#8]
        0x080063f4:    f8bd100a    ....    LDRH     r1,[sp,#0xa]
        0x080063f8:    4288        .B      CMP      r0,r1
        0x080063fa:    da11        ..      BGE      0x8006420 ; shell_his_copy_queue_item + 216
        0x080063fc:    e7ff        ..      B        0x80063fe ; shell_his_copy_queue_item + 182
        0x080063fe:    9806        ..      LDR      r0,[sp,#0x18]
        0x08006400:    f8bd2008    ...     LDRH     r2,[sp,#8]
        0x08006404:    4410        .D      ADD      r0,r0,r2
        0x08006406:    7e40        @~      LDRB     r0,[r0,#0x19]
        0x08006408:    9904        ..      LDR      r1,[sp,#0x10]
        0x0800640a:    f8bd300c    ...0    LDRH     r3,[sp,#0xc]
        0x0800640e:    1ad2        ..      SUBS     r2,r2,r3
        0x08006410:    5488        .T      STRB     r0,[r1,r2]
        0x08006412:    e7ff        ..      B        0x8006414 ; shell_his_copy_queue_item + 204
        0x08006414:    f8bd0008    ....    LDRH     r0,[sp,#8]
        0x08006418:    3001        .0      ADDS     r0,#1
        0x0800641a:    f8ad0008    ....    STRH     r0,[sp,#8]
        0x0800641e:    e7e7        ..      B        0x80063f0 ; shell_his_copy_queue_item + 168
        0x08006420:    9904        ..      LDR      r1,[sp,#0x10]
        0x08006422:    f8bd0008    ....    LDRH     r0,[sp,#8]
        0x08006426:    f8bd200c    ...     LDRH     r2,[sp,#0xc]
        0x0800642a:    1a82        ..      SUBS     r2,r0,r2
        0x0800642c:    2000        .       MOVS     r0,#0
        0x0800642e:    5488        .T      STRB     r0,[r1,r2]
        0x08006430:    e043        C.      B        0x80064ba ; shell_his_copy_queue_item + 370
        0x08006432:    f8bd000c    ....    LDRH     r0,[sp,#0xc]
        0x08006436:    f8ad0008    ....    STRH     r0,[sp,#8]
        0x0800643a:    e7ff        ..      B        0x800643c ; shell_his_copy_queue_item + 244
        0x0800643c:    f8bd0008    ....    LDRH     r0,[sp,#8]
        0x08006440:    28fd        .(      CMP      r0,#0xfd
        0x08006442:    dc11        ..      BGT      0x8006468 ; shell_his_copy_queue_item + 288
        0x08006444:    e7ff        ..      B        0x8006446 ; shell_his_copy_queue_item + 254
        0x08006446:    9806        ..      LDR      r0,[sp,#0x18]
        0x08006448:    f8bd2008    ...     LDRH     r2,[sp,#8]
        0x0800644c:    4410        .D      ADD      r0,r0,r2
        0x0800644e:    7e40        @~      LDRB     r0,[r0,#0x19]
        0x08006450:    9904        ..      LDR      r1,[sp,#0x10]
        0x08006452:    f8bd300c    ...0    LDRH     r3,[sp,#0xc]
        0x08006456:    1ad2        ..      SUBS     r2,r2,r3
        0x08006458:    5488        .T      STRB     r0,[r1,r2]
        0x0800645a:    e7ff        ..      B        0x800645c ; shell_his_copy_queue_item + 276
        0x0800645c:    f8bd0008    ....    LDRH     r0,[sp,#8]
        0x08006460:    3001        .0      ADDS     r0,#1
        0x08006462:    f8ad0008    ....    STRH     r0,[sp,#8]
        0x08006466:    e7e9        ..      B        0x800643c ; shell_his_copy_queue_item + 244
        0x08006468:    2000        .       MOVS     r0,#0
        0x0800646a:    f8ad0008    ....    STRH     r0,[sp,#8]
        0x0800646e:    e7ff        ..      B        0x8006470 ; shell_his_copy_queue_item + 296
        0x08006470:    f8bd0008    ....    LDRH     r0,[sp,#8]
        0x08006474:    f8bd100a    ....    LDRH     r1,[sp,#0xa]
        0x08006478:    4288        .B      CMP      r0,r1
        0x0800647a:    da13        ..      BGE      0x80064a4 ; shell_his_copy_queue_item + 348
        0x0800647c:    e7ff        ..      B        0x800647e ; shell_his_copy_queue_item + 310
        0x0800647e:    9806        ..      LDR      r0,[sp,#0x18]
        0x08006480:    f8bd1008    ....    LDRH     r1,[sp,#8]
        0x08006484:    4408        .D      ADD      r0,r0,r1
        0x08006486:    7e40        @~      LDRB     r0,[r0,#0x19]
        0x08006488:    9a04        ..      LDR      r2,[sp,#0x10]
        0x0800648a:    f8bd300c    ...0    LDRH     r3,[sp,#0xc]
        0x0800648e:    1ac9        ..      SUBS     r1,r1,r3
        0x08006490:    4411        .D      ADD      r1,r1,r2
        0x08006492:    f88100fe    ....    STRB     r0,[r1,#0xfe]
        0x08006496:    e7ff        ..      B        0x8006498 ; shell_his_copy_queue_item + 336
        0x08006498:    f8bd0008    ....    LDRH     r0,[sp,#8]
        0x0800649c:    3001        .0      ADDS     r0,#1
        0x0800649e:    f8ad0008    ....    STRH     r0,[sp,#8]
        0x080064a2:    e7e5        ..      B        0x8006470 ; shell_his_copy_queue_item + 296
        0x080064a4:    9904        ..      LDR      r1,[sp,#0x10]
        0x080064a6:    f8bd0008    ....    LDRH     r0,[sp,#8]
        0x080064aa:    f8bd200c    ...     LDRH     r2,[sp,#0xc]
        0x080064ae:    1a80        ..      SUBS     r0,r0,r2
        0x080064b0:    4401        .D      ADD      r1,r1,r0
        0x080064b2:    2000        .       MOVS     r0,#0
        0x080064b4:    f88100fe    ....    STRB     r0,[r1,#0xfe]
        0x080064b8:    e7ff        ..      B        0x80064ba ; shell_his_copy_queue_item + 370
        0x080064ba:    e7ff        ..      B        0x80064bc ; shell_his_copy_queue_item + 372
        0x080064bc:    b007        ..      ADD      sp,sp,#0x1c
        0x080064be:    4770        pG      BX       lr
    shell_his_queue_add_cmd
        0x080064c0:    b580        ..      PUSH     {r7,lr}
        0x080064c2:    b088        ..      SUB      sp,sp,#0x20
        0x080064c4:    9007        ..      STR      r0,[sp,#0x1c]
        0x080064c6:    9106        ..      STR      r1,[sp,#0x18]
        0x080064c8:    9806        ..      LDR      r0,[sp,#0x18]
        0x080064ca:    f7f9ffea    ....    BL       strlen ; 0x80004a2
        0x080064ce:    f8ad0016    ....    STRH     r0,[sp,#0x16]
        0x080064d2:    f8bd0016    ....    LDRH     r0,[sp,#0x16]
        0x080064d6:    28fe        .(      CMP      r0,#0xfe
        0x080064d8:    db01        ..      BLT      0x80064de ; shell_his_queue_add_cmd + 30
        0x080064da:    e7ff        ..      B        0x80064dc ; shell_his_queue_add_cmd + 28
        0x080064dc:    e0a5        ..      B        0x800662a ; shell_his_queue_add_cmd + 362
        0x080064de:    e7ff        ..      B        0x80064e0 ; shell_his_queue_add_cmd + 32
        0x080064e0:    f8bd1016    ....    LDRH     r1,[sp,#0x16]
        0x080064e4:    9807        ..      LDR      r0,[sp,#0x1c]
        0x080064e6:    8980        ..      LDRH     r0,[r0,#0xc]
        0x080064e8:    f1c002fd    ....    RSB      r2,r0,#0xfd
        0x080064ec:    2001        .       MOVS     r0,#1
        0x080064ee:    4291        .B      CMP      r1,r2
        0x080064f0:    9004        ..      STR      r0,[sp,#0x10]
        0x080064f2:    dc08        ..      BGT      0x8006506 ; shell_his_queue_add_cmd + 70
        0x080064f4:    e7ff        ..      B        0x80064f6 ; shell_his_queue_add_cmd + 54
        0x080064f6:    9807        ..      LDR      r0,[sp,#0x1c]
        0x080064f8:    8880        ..      LDRH     r0,[r0,#4]
        0x080064fa:    380a        .8      SUBS     r0,r0,#0xa
        0x080064fc:    fab0f080    ....    CLZ      r0,r0
        0x08006500:    0940        @.      LSRS     r0,r0,#5
        0x08006502:    9004        ..      STR      r0,[sp,#0x10]
        0x08006504:    e7ff        ..      B        0x8006506 ; shell_his_queue_add_cmd + 70
        0x08006506:    9804        ..      LDR      r0,[sp,#0x10]
        0x08006508:    07c0        ..      LSLS     r0,r0,#31
        0x0800650a:    b3d8        ..      CBZ      r0,0x8006584 ; shell_his_queue_add_cmd + 196
        0x0800650c:    e7ff        ..      B        0x800650e ; shell_his_queue_add_cmd + 78
        0x0800650e:    9907        ..      LDR      r1,[sp,#0x1c]
        0x08006510:    8808        ..      LDRH     r0,[r1,#0]
        0x08006512:    3001        .0      ADDS     r0,#1
        0x08006514:    8008        ..      STRH     r0,[r1,#0]
        0x08006516:    9807        ..      LDR      r0,[sp,#0x1c]
        0x08006518:    8800        ..      LDRH     r0,[r0,#0]
        0x0800651a:    280b        .(      CMP      r0,#0xb
        0x0800651c:    db03        ..      BLT      0x8006526 ; shell_his_queue_add_cmd + 102
        0x0800651e:    e7ff        ..      B        0x8006520 ; shell_his_queue_add_cmd + 96
        0x08006520:    2000        .       MOVS     r0,#0
        0x08006522:    9003        ..      STR      r0,[sp,#0xc]
        0x08006524:    e003        ..      B        0x800652e ; shell_his_queue_add_cmd + 110
        0x08006526:    9807        ..      LDR      r0,[sp,#0x1c]
        0x08006528:    8800        ..      LDRH     r0,[r0,#0]
        0x0800652a:    9003        ..      STR      r0,[sp,#0xc]
        0x0800652c:    e7ff        ..      B        0x800652e ; shell_his_queue_add_cmd + 110
        0x0800652e:    9803        ..      LDR      r0,[sp,#0xc]
        0x08006530:    9907        ..      LDR      r1,[sp,#0x1c]
        0x08006532:    8008        ..      STRH     r0,[r1,#0]
        0x08006534:    9907        ..      LDR      r1,[sp,#0x1c]
        0x08006536:    8888        ..      LDRH     r0,[r1,#4]
        0x08006538:    3801        .8      SUBS     r0,#1
        0x0800653a:    8088        ..      STRH     r0,[r1,#4]
        0x0800653c:    9907        ..      LDR      r1,[sp,#0x1c]
        0x0800653e:    8908        ..      LDRH     r0,[r1,#8]
        0x08006540:    880a        ..      LDRH     r2,[r1,#0]
        0x08006542:    4411        .D      ADD      r1,r1,r2
        0x08006544:    7b89        .{      LDRB     r1,[r1,#0xe]
        0x08006546:    4288        .B      CMP      r0,r1
        0x08006548:    dc0a        ..      BGT      0x8006560 ; shell_his_queue_add_cmd + 160
        0x0800654a:    e7ff        ..      B        0x800654c ; shell_his_queue_add_cmd + 140
        0x0800654c:    9907        ..      LDR      r1,[sp,#0x1c]
        0x0800654e:    8808        ..      LDRH     r0,[r1,#0]
        0x08006550:    4408        .D      ADD      r0,r0,r1
        0x08006552:    7b83        .{      LDRB     r3,[r0,#0xe]
        0x08006554:    890a        ..      LDRH     r2,[r1,#8]
        0x08006556:    8988        ..      LDRH     r0,[r1,#0xc]
        0x08006558:    1ad2        ..      SUBS     r2,r2,r3
        0x0800655a:    4410        .D      ADD      r0,r0,r2
        0x0800655c:    8188        ..      STRH     r0,[r1,#0xc]
        0x0800655e:    e00b        ..      B        0x8006578 ; shell_his_queue_add_cmd + 184
        0x08006560:    9907        ..      LDR      r1,[sp,#0x1c]
        0x08006562:    8808        ..      LDRH     r0,[r1,#0]
        0x08006564:    4408        .D      ADD      r0,r0,r1
        0x08006566:    7b80        .{      LDRB     r0,[r0,#0xe]
        0x08006568:    890a        ..      LDRH     r2,[r1,#8]
        0x0800656a:    1a80        ..      SUBS     r0,r0,r2
        0x0800656c:    30fd        .0      ADDS     r0,r0,#0xfd
        0x0800656e:    898a        ..      LDRH     r2,[r1,#0xc]
        0x08006570:    43c0        .C      MVNS     r0,r0
        0x08006572:    4410        .D      ADD      r0,r0,r2
        0x08006574:    8188        ..      STRH     r0,[r1,#0xc]
        0x08006576:    e7ff        ..      B        0x8006578 ; shell_his_queue_add_cmd + 184
        0x08006578:    9907        ..      LDR      r1,[sp,#0x1c]
        0x0800657a:    8808        ..      LDRH     r0,[r1,#0]
        0x0800657c:    4408        .D      ADD      r0,r0,r1
        0x0800657e:    7b80        .{      LDRB     r0,[r0,#0xe]
        0x08006580:    8108        ..      STRH     r0,[r1,#8]
        0x08006582:    e7ad        ..      B        0x80064e0 ; shell_his_queue_add_cmd + 32
        0x08006584:    9907        ..      LDR      r1,[sp,#0x1c]
        0x08006586:    7a88        .z      LDRB     r0,[r1,#0xa]
        0x08006588:    884a        J.      LDRH     r2,[r1,#2]
        0x0800658a:    4411        .D      ADD      r1,r1,r2
        0x0800658c:    7388        .s      STRB     r0,[r1,#0xe]
        0x0800658e:    9907        ..      LDR      r1,[sp,#0x1c]
        0x08006590:    8848        H.      LDRH     r0,[r1,#2]
        0x08006592:    3001        .0      ADDS     r0,#1
        0x08006594:    8048        H.      STRH     r0,[r1,#2]
        0x08006596:    9807        ..      LDR      r0,[sp,#0x1c]
        0x08006598:    8840        @.      LDRH     r0,[r0,#2]
        0x0800659a:    280b        .(      CMP      r0,#0xb
        0x0800659c:    db03        ..      BLT      0x80065a6 ; shell_his_queue_add_cmd + 230
        0x0800659e:    e7ff        ..      B        0x80065a0 ; shell_his_queue_add_cmd + 224
        0x080065a0:    2000        .       MOVS     r0,#0
        0x080065a2:    9002        ..      STR      r0,[sp,#8]
        0x080065a4:    e003        ..      B        0x80065ae ; shell_his_queue_add_cmd + 238
        0x080065a6:    9807        ..      LDR      r0,[sp,#0x1c]
        0x080065a8:    8840        @.      LDRH     r0,[r0,#2]
        0x080065aa:    9002        ..      STR      r0,[sp,#8]
        0x080065ac:    e7ff        ..      B        0x80065ae ; shell_his_queue_add_cmd + 238
        0x080065ae:    9802        ..      LDR      r0,[sp,#8]
        0x080065b0:    9907        ..      LDR      r1,[sp,#0x1c]
        0x080065b2:    8048        H.      STRH     r0,[r1,#2]
        0x080065b4:    9907        ..      LDR      r1,[sp,#0x1c]
        0x080065b6:    8888        ..      LDRH     r0,[r1,#4]
        0x080065b8:    3001        .0      ADDS     r0,#1
        0x080065ba:    8088        ..      STRH     r0,[r1,#4]
        0x080065bc:    2000        .       MOVS     r0,#0
        0x080065be:    f8ad0014    ....    STRH     r0,[sp,#0x14]
        0x080065c2:    e7ff        ..      B        0x80065c4 ; shell_his_queue_add_cmd + 260
        0x080065c4:    f8bd0014    ....    LDRH     r0,[sp,#0x14]
        0x080065c8:    f8bd1016    ....    LDRH     r1,[sp,#0x16]
        0x080065cc:    4288        .B      CMP      r0,r1
        0x080065ce:    da26        &.      BGE      0x800661e ; shell_his_queue_add_cmd + 350
        0x080065d0:    e7ff        ..      B        0x80065d2 ; shell_his_queue_add_cmd + 274
        0x080065d2:    9806        ..      LDR      r0,[sp,#0x18]
        0x080065d4:    f8bd1014    ....    LDRH     r1,[sp,#0x14]
        0x080065d8:    5c40        @\      LDRB     r0,[r0,r1]
        0x080065da:    9907        ..      LDR      r1,[sp,#0x1c]
        0x080065dc:    894a        J.      LDRH     r2,[r1,#0xa]
        0x080065de:    4411        .D      ADD      r1,r1,r2
        0x080065e0:    7648        Hv      STRB     r0,[r1,#0x19]
        0x080065e2:    9907        ..      LDR      r1,[sp,#0x1c]
        0x080065e4:    8948        H.      LDRH     r0,[r1,#0xa]
        0x080065e6:    3001        .0      ADDS     r0,#1
        0x080065e8:    8148        H.      STRH     r0,[r1,#0xa]
        0x080065ea:    9807        ..      LDR      r0,[sp,#0x1c]
        0x080065ec:    8940        @.      LDRH     r0,[r0,#0xa]
        0x080065ee:    28fe        .(      CMP      r0,#0xfe
        0x080065f0:    db03        ..      BLT      0x80065fa ; shell_his_queue_add_cmd + 314
        0x080065f2:    e7ff        ..      B        0x80065f4 ; shell_his_queue_add_cmd + 308
        0x080065f4:    2000        .       MOVS     r0,#0
        0x080065f6:    9001        ..      STR      r0,[sp,#4]
        0x080065f8:    e003        ..      B        0x8006602 ; shell_his_queue_add_cmd + 322
        0x080065fa:    9807        ..      LDR      r0,[sp,#0x1c]
        0x080065fc:    8940        @.      LDRH     r0,[r0,#0xa]
        0x080065fe:    9001        ..      STR      r0,[sp,#4]
        0x08006600:    e7ff        ..      B        0x8006602 ; shell_his_queue_add_cmd + 322
        0x08006602:    9801        ..      LDR      r0,[sp,#4]
        0x08006604:    9907        ..      LDR      r1,[sp,#0x1c]
        0x08006606:    8148        H.      STRH     r0,[r1,#0xa]
        0x08006608:    9907        ..      LDR      r1,[sp,#0x1c]
        0x0800660a:    8988        ..      LDRH     r0,[r1,#0xc]
        0x0800660c:    3001        .0      ADDS     r0,#1
        0x0800660e:    8188        ..      STRH     r0,[r1,#0xc]
        0x08006610:    e7ff        ..      B        0x8006612 ; shell_his_queue_add_cmd + 338
        0x08006612:    f8bd0014    ....    LDRH     r0,[sp,#0x14]
        0x08006616:    3001        .0      ADDS     r0,#1
        0x08006618:    f8ad0014    ....    STRH     r0,[sp,#0x14]
        0x0800661c:    e7d2        ..      B        0x80065c4 ; shell_his_queue_add_cmd + 260
        0x0800661e:    9907        ..      LDR      r1,[sp,#0x1c]
        0x08006620:    7a88        .z      LDRB     r0,[r1,#0xa]
        0x08006622:    884a        J.      LDRH     r2,[r1,#2]
        0x08006624:    4411        .D      ADD      r1,r1,r2
        0x08006626:    7388        .s      STRB     r0,[r1,#0xe]
        0x08006628:    e7ff        ..      B        0x800662a ; shell_his_queue_add_cmd + 362
        0x0800662a:    b008        ..      ADD      sp,sp,#0x20
        0x0800662c:    bd80        ..      POP      {r7,pc}
        0x0800662e:    0000        ..      MOVS     r0,r0
    shell_his_queue_init
        0x08006630:    b081        ..      SUB      sp,sp,#4
        0x08006632:    9000        ..      STR      r0,[sp,#0]
        0x08006634:    9900        ..      LDR      r1,[sp,#0]
        0x08006636:    2000        .       MOVS     r0,#0
        0x08006638:    8008        ..      STRH     r0,[r1,#0]
        0x0800663a:    9900        ..      LDR      r1,[sp,#0]
        0x0800663c:    8048        H.      STRH     r0,[r1,#2]
        0x0800663e:    9900        ..      LDR      r1,[sp,#0]
        0x08006640:    8088        ..      STRH     r0,[r1,#4]
        0x08006642:    9900        ..      LDR      r1,[sp,#0]
        0x08006644:    8108        ..      STRH     r0,[r1,#8]
        0x08006646:    9900        ..      LDR      r1,[sp,#0]
        0x08006648:    8148        H.      STRH     r0,[r1,#0xa]
        0x0800664a:    9900        ..      LDR      r1,[sp,#0]
        0x0800664c:    8188        ..      STRH     r0,[r1,#0xc]
        0x0800664e:    b001        ..      ADD      sp,sp,#4
        0x08006650:    4770        pG      BX       lr
        0x08006652:    0000        ..      MOVS     r0,r0
    shell_his_queue_search_cmd
        0x08006654:    b580        ..      PUSH     {r7,lr}
        0x08006656:    b08a        ..      SUB      sp,sp,#0x28
        0x08006658:    9008        ..      STR      r0,[sp,#0x20]
        0x0800665a:    9107        ..      STR      r1,[sp,#0x1c]
        0x0800665c:    9808        ..      LDR      r0,[sp,#0x20]
        0x0800665e:    8800        ..      LDRH     r0,[r0,#0]
        0x08006660:    f8ad0014    ....    STRH     r0,[sp,#0x14]
        0x08006664:    2000        .       MOVS     r0,#0
        0x08006666:    f8ad000c    ....    STRH     r0,[sp,#0xc]
        0x0800666a:    9808        ..      LDR      r0,[sp,#0x20]
        0x0800666c:    8880        ..      LDRH     r0,[r0,#4]
        0x0800666e:    b928        (.      CBNZ     r0,0x800667c ; shell_his_queue_search_cmd + 40
        0x08006670:    e7ff        ..      B        0x8006672 ; shell_his_queue_search_cmd + 30
        0x08006672:    f8bd000c    ....    LDRH     r0,[sp,#0xc]
        0x08006676:    f8ad0026    ..&.    STRH     r0,[sp,#0x26]
        0x0800667a:    e0a5        ..      B        0x80067c8 ; shell_his_queue_search_cmd + 372
        0x0800667c:    9807        ..      LDR      r0,[sp,#0x1c]
        0x0800667e:    f7f9ff10    ....    BL       strlen ; 0x80004a2
        0x08006682:    f8ad001a    ....    STRH     r0,[sp,#0x1a]
        0x08006686:    2000        .       MOVS     r0,#0
        0x08006688:    f8ad0018    ....    STRH     r0,[sp,#0x18]
        0x0800668c:    e7ff        ..      B        0x800668e ; shell_his_queue_search_cmd + 58
        0x0800668e:    f8bd0018    ....    LDRH     r0,[sp,#0x18]
        0x08006692:    9908        ..      LDR      r1,[sp,#0x20]
        0x08006694:    8889        ..      LDRH     r1,[r1,#4]
        0x08006696:    4288        .B      CMP      r0,r1
        0x08006698:    f2808092    ....    BGE.W    0x80067c0 ; shell_his_queue_search_cmd + 364
        0x0800669c:    e7ff        ..      B        0x800669e ; shell_his_queue_search_cmd + 74
        0x0800669e:    9808        ..      LDR      r0,[sp,#0x20]
        0x080066a0:    f8bd1014    ....    LDRH     r1,[sp,#0x14]
        0x080066a4:    4408        .D      ADD      r0,r0,r1
        0x080066a6:    7b80        .{      LDRB     r0,[r0,#0xe]
        0x080066a8:    f8ad0012    ....    STRH     r0,[sp,#0x12]
        0x080066ac:    f8bd0014    ....    LDRH     r0,[sp,#0x14]
        0x080066b0:    3001        .0      ADDS     r0,#1
        0x080066b2:    f8ad0014    ....    STRH     r0,[sp,#0x14]
        0x080066b6:    f8bd0014    ....    LDRH     r0,[sp,#0x14]
        0x080066ba:    280b        .(      CMP      r0,#0xb
        0x080066bc:    db03        ..      BLT      0x80066c6 ; shell_his_queue_search_cmd + 114
        0x080066be:    e7ff        ..      B        0x80066c0 ; shell_his_queue_search_cmd + 108
        0x080066c0:    2000        .       MOVS     r0,#0
        0x080066c2:    9001        ..      STR      r0,[sp,#4]
        0x080066c4:    e003        ..      B        0x80066ce ; shell_his_queue_search_cmd + 122
        0x080066c6:    f8bd0014    ....    LDRH     r0,[sp,#0x14]
        0x080066ca:    9001        ..      STR      r0,[sp,#4]
        0x080066cc:    e7ff        ..      B        0x80066ce ; shell_his_queue_search_cmd + 122
        0x080066ce:    9801        ..      LDR      r0,[sp,#4]
        0x080066d0:    f8ad0014    ....    STRH     r0,[sp,#0x14]
        0x080066d4:    9808        ..      LDR      r0,[sp,#0x20]
        0x080066d6:    f8bd1014    ....    LDRH     r1,[sp,#0x14]
        0x080066da:    4408        .D      ADD      r0,r0,r1
        0x080066dc:    7b80        .{      LDRB     r0,[r0,#0xe]
        0x080066de:    f8ad0010    ....    STRH     r0,[sp,#0x10]
        0x080066e2:    f8bd0012    ....    LDRH     r0,[sp,#0x12]
        0x080066e6:    f8bd1010    ....    LDRH     r1,[sp,#0x10]
        0x080066ea:    4288        .B      CMP      r0,r1
        0x080066ec:    dc08        ..      BGT      0x8006700 ; shell_his_queue_search_cmd + 172
        0x080066ee:    e7ff        ..      B        0x80066f0 ; shell_his_queue_search_cmd + 156
        0x080066f0:    f8bd0010    ....    LDRH     r0,[sp,#0x10]
        0x080066f4:    f8bd1012    ....    LDRH     r1,[sp,#0x12]
        0x080066f8:    1a40        @.      SUBS     r0,r0,r1
        0x080066fa:    f8ad000e    ....    STRH     r0,[sp,#0xe]
        0x080066fe:    e008        ..      B        0x8006712 ; shell_his_queue_search_cmd + 190
        0x08006700:    f8bd1012    ....    LDRH     r1,[sp,#0x12]
        0x08006704:    f8bd0010    ....    LDRH     r0,[sp,#0x10]
        0x08006708:    1a40        @.      SUBS     r0,r0,r1
        0x0800670a:    30fe        .0      ADDS     r0,r0,#0xfe
        0x0800670c:    f8ad000e    ....    STRH     r0,[sp,#0xe]
        0x08006710:    e7ff        ..      B        0x8006712 ; shell_his_queue_search_cmd + 190
        0x08006712:    f8bd000e    ....    LDRH     r0,[sp,#0xe]
        0x08006716:    f8bd101a    ....    LDRH     r1,[sp,#0x1a]
        0x0800671a:    4288        .B      CMP      r0,r1
        0x0800671c:    d149        I.      BNE      0x80067b2 ; shell_his_queue_search_cmd + 350
        0x0800671e:    e7ff        ..      B        0x8006720 ; shell_his_queue_search_cmd + 204
        0x08006720:    f8bd0018    ....    LDRH     r0,[sp,#0x18]
        0x08006724:    3001        .0      ADDS     r0,#1
        0x08006726:    f8ad000c    ....    STRH     r0,[sp,#0xc]
        0x0800672a:    f8bd0012    ....    LDRH     r0,[sp,#0x12]
        0x0800672e:    f8ad000a    ....    STRH     r0,[sp,#0xa]
        0x08006732:    2000        .       MOVS     r0,#0
        0x08006734:    f8ad0016    ....    STRH     r0,[sp,#0x16]
        0x08006738:    e7ff        ..      B        0x800673a ; shell_his_queue_search_cmd + 230
        0x0800673a:    f8bd0016    ....    LDRH     r0,[sp,#0x16]
        0x0800673e:    f8bd101a    ....    LDRH     r1,[sp,#0x1a]
        0x08006742:    4288        .B      CMP      r0,r1
        0x08006744:    da2b        +.      BGE      0x800679e ; shell_his_queue_search_cmd + 330
        0x08006746:    e7ff        ..      B        0x8006748 ; shell_his_queue_search_cmd + 244
        0x08006748:    9808        ..      LDR      r0,[sp,#0x20]
        0x0800674a:    f8bd100a    ....    LDRH     r1,[sp,#0xa]
        0x0800674e:    4408        .D      ADD      r0,r0,r1
        0x08006750:    7e40        @~      LDRB     r0,[r0,#0x19]
        0x08006752:    9907        ..      LDR      r1,[sp,#0x1c]
        0x08006754:    f8bd2016    ...     LDRH     r2,[sp,#0x16]
        0x08006758:    5c89        .\      LDRB     r1,[r1,r2]
        0x0800675a:    4288        .B      CMP      r0,r1
        0x0800675c:    d004        ..      BEQ      0x8006768 ; shell_his_queue_search_cmd + 276
        0x0800675e:    e7ff        ..      B        0x8006760 ; shell_his_queue_search_cmd + 268
        0x08006760:    2000        .       MOVS     r0,#0
        0x08006762:    f8ad000c    ....    STRH     r0,[sp,#0xc]
        0x08006766:    e01a        ..      B        0x800679e ; shell_his_queue_search_cmd + 330
        0x08006768:    f8bd000a    ....    LDRH     r0,[sp,#0xa]
        0x0800676c:    3001        .0      ADDS     r0,#1
        0x0800676e:    f8ad000a    ....    STRH     r0,[sp,#0xa]
        0x08006772:    f8bd000a    ....    LDRH     r0,[sp,#0xa]
        0x08006776:    28fe        .(      CMP      r0,#0xfe
        0x08006778:    db03        ..      BLT      0x8006782 ; shell_his_queue_search_cmd + 302
        0x0800677a:    e7ff        ..      B        0x800677c ; shell_his_queue_search_cmd + 296
        0x0800677c:    2000        .       MOVS     r0,#0
        0x0800677e:    9000        ..      STR      r0,[sp,#0]
        0x08006780:    e003        ..      B        0x800678a ; shell_his_queue_search_cmd + 310
        0x08006782:    f8bd000a    ....    LDRH     r0,[sp,#0xa]
        0x08006786:    9000        ..      STR      r0,[sp,#0]
        0x08006788:    e7ff        ..      B        0x800678a ; shell_his_queue_search_cmd + 310
        0x0800678a:    9800        ..      LDR      r0,[sp,#0]
        0x0800678c:    f8ad000a    ....    STRH     r0,[sp,#0xa]
        0x08006790:    e7ff        ..      B        0x8006792 ; shell_his_queue_search_cmd + 318
        0x08006792:    f8bd0016    ....    LDRH     r0,[sp,#0x16]
        0x08006796:    3001        .0      ADDS     r0,#1
        0x08006798:    f8ad0016    ....    STRH     r0,[sp,#0x16]
        0x0800679c:    e7cd        ..      B        0x800673a ; shell_his_queue_search_cmd + 230
        0x0800679e:    f8bd000c    ....    LDRH     r0,[sp,#0xc]
        0x080067a2:    b128        (.      CBZ      r0,0x80067b0 ; shell_his_queue_search_cmd + 348
        0x080067a4:    e7ff        ..      B        0x80067a6 ; shell_his_queue_search_cmd + 338
        0x080067a6:    f8bd000c    ....    LDRH     r0,[sp,#0xc]
        0x080067aa:    f8ad0026    ..&.    STRH     r0,[sp,#0x26]
        0x080067ae:    e00b        ..      B        0x80067c8 ; shell_his_queue_search_cmd + 372
        0x080067b0:    e7ff        ..      B        0x80067b2 ; shell_his_queue_search_cmd + 350
        0x080067b2:    e7ff        ..      B        0x80067b4 ; shell_his_queue_search_cmd + 352
        0x080067b4:    f8bd0018    ....    LDRH     r0,[sp,#0x18]
        0x080067b8:    3001        .0      ADDS     r0,#1
        0x080067ba:    f8ad0018    ....    STRH     r0,[sp,#0x18]
        0x080067be:    e766        f.      B        0x800668e ; shell_his_queue_search_cmd + 58
        0x080067c0:    2000        .       MOVS     r0,#0
        0x080067c2:    f8ad0026    ..&.    STRH     r0,[sp,#0x26]
        0x080067c6:    e7ff        ..      B        0x80067c8 ; shell_his_queue_search_cmd + 372
        0x080067c8:    f8bd0026    ..&.    LDRH     r0,[sp,#0x26]
        0x080067cc:    b00a        ..      ADD      sp,sp,#0x28
        0x080067ce:    bd80        ..      POP      {r7,pc}
    shell_parser
        0x080067d0:    b580        ..      PUSH     {r7,lr}
        0x080067d2:    b0a2        ..      SUB      sp,sp,#0x88
        0x080067d4:    9021        !.      STR      r0,[sp,#0x84]
        0x080067d6:    9120         .      STR      r1,[sp,#0x80]
        0x080067d8:    2000        .       MOVS     r0,#0
        0x080067da:    f88d007f    ....    STRB     r0,[sp,#0x7f]
        0x080067de:    9820         .      LDR      r0,[sp,#0x80]
        0x080067e0:    9003        ..      STR      r0,[sp,#0xc]
        0x080067e2:    200a        .       MOVS     r0,#0xa
        0x080067e4:    f88d0007    ....    STRB     r0,[sp,#7]
        0x080067e8:    9821        !.      LDR      r0,[sp,#0x84]
        0x080067ea:    3024        $0      ADDS     r0,r0,#0x24
        0x080067ec:    9920         .      LDR      r1,[sp,#0x80]
        0x080067ee:    f7ffff31    ..1.    BL       shell_his_queue_search_cmd ; 0x8006654
        0x080067f2:    b950        P.      CBNZ     r0,0x800680a ; shell_parser + 58
        0x080067f4:    e7ff        ..      B        0x80067f6 ; shell_parser + 38
        0x080067f6:    9820         .      LDR      r0,[sp,#0x80]
        0x080067f8:    7800        .x      LDRB     r0,[r0,#0]
        0x080067fa:    b130        0.      CBZ      r0,0x800680a ; shell_parser + 58
        0x080067fc:    e7ff        ..      B        0x80067fe ; shell_parser + 46
        0x080067fe:    9821        !.      LDR      r0,[sp,#0x84]
        0x08006800:    3024        $0      ADDS     r0,r0,#0x24
        0x08006802:    9920         .      LDR      r1,[sp,#0x80]
        0x08006804:    f7fffe5c    ..\.    BL       shell_his_queue_add_cmd ; 0x80064c0
        0x08006808:    e7ff        ..      B        0x800680a ; shell_parser + 58
        0x0800680a:    9820         .      LDR      r0,[sp,#0x80]
        0x0800680c:    f7f9fe49    ..I.    BL       strlen ; 0x80004a2
        0x08006810:    2865        e(      CMP      r0,#0x65
        0x08006812:    d30e        ..      BCC      0x8006832 ; shell_parser + 98
        0x08006814:    e7ff        ..      B        0x8006816 ; shell_parser + 70
        0x08006816:    f248308d    H..0    MOV      r0,#0x838d
        0x0800681a:    f6c00000    ....    MOVT     r0,#0x800
        0x0800681e:    f7f9fdb5    ....    BL       printf ; 0x800038c
        0x08006822:    9921        !.      LDR      r1,[sp,#0x84]
        0x08006824:    f2483060    H.`0    MOV      r0,#0x8360
        0x08006828:    f6c00000    ....    MOVT     r0,#0x800
        0x0800682c:    f7f9fdae    ....    BL       printf ; 0x800038c
        0x08006830:    e080        ..      B        0x8006934 ; shell_parser + 356
        0x08006832:    9803        ..      LDR      r0,[sp,#0xc]
        0x08006834:    f2485126    H.&Q    MOV      r1,#0x8526
        0x08006838:    f6c00100    ....    MOVT     r1,#0x800
        0x0800683c:    f7fffca0    ....    BL       nr_shell_strtok ; 0x8006180
        0x08006840:    9003        ..      STR      r0,[sp,#0xc]
        0x08006842:    9821        !.      LDR      r0,[sp,#0x84]
        0x08006844:    9920         .      LDR      r1,[sp,#0x80]
        0x08006846:    f000f877    ..w.    BL       shell_search_cmd ; 0x8006938
        0x0800684a:    9002        ..      STR      r0,[sp,#8]
        0x0800684c:    9802        ..      LDR      r0,[sp,#8]
        0x0800684e:    b998        ..      CBNZ     r0,0x8006878 ; shell_parser + 168
        0x08006850:    e7ff        ..      B        0x8006852 ; shell_parser + 130
        0x08006852:    f7f9fd93    ....    BL       __rt_ctype_table ; 0x800037c
        0x08006856:    6800        .h      LDR      r0,[r0,#0]
        0x08006858:    9920         .      LDR      r1,[sp,#0x80]
        0x0800685a:    7809        .x      LDRB     r1,[r1,#0]
        0x0800685c:    5c40        @\      LDRB     r0,[r0,r1]
        0x0800685e:    f0100f98    ....    TST      r0,#0x98
        0x08006862:    d008        ..      BEQ      0x8006876 ; shell_parser + 166
        0x08006864:    e7ff        ..      B        0x8006866 ; shell_parser + 150
        0x08006866:    9903        ..      LDR      r1,[sp,#0xc]
        0x08006868:    f24830ef    H..0    MOV      r0,#0x83ef
        0x0800686c:    f6c00000    ....    MOVT     r0,#0x800
        0x08006870:    f7f9fd8c    ....    BL       printf ; 0x800038c
        0x08006874:    e7ff        ..      B        0x8006876 ; shell_parser + 166
        0x08006876:    e04b        K.      B        0x8006910 ; shell_parser + 320
        0x08006878:    f89d1007    ....    LDRB     r1,[sp,#7]
        0x0800687c:    f89d207f    ...     LDRB     r2,[sp,#0x7f]
        0x08006880:    f10d0011    ....    ADD      r0,sp,#0x11
        0x08006884:    5481        .T      STRB     r1,[r0,r2]
        0x08006886:    f89d1007    ....    LDRB     r1,[sp,#7]
        0x0800688a:    4408        .D      ADD      r0,r0,r1
        0x0800688c:    9920         .      LDR      r1,[sp,#0x80]
        0x0800688e:    f7f9fde4    ....    BL       strcpy ; 0x800045a
        0x08006892:    9820         .      LDR      r0,[sp,#0x80]
        0x08006894:    f7f9fe05    ....    BL       strlen ; 0x80004a2
        0x08006898:    f89d1007    ....    LDRB     r1,[sp,#7]
        0x0800689c:    4408        .D      ADD      r0,r0,r1
        0x0800689e:    3001        .0      ADDS     r0,#1
        0x080068a0:    f88d0007    ....    STRB     r0,[sp,#7]
        0x080068a4:    f89d007f    ....    LDRB     r0,[sp,#0x7f]
        0x080068a8:    3001        .0      ADDS     r0,#1
        0x080068aa:    f88d007f    ....    STRB     r0,[sp,#0x7f]
        0x080068ae:    f2485126    H.&Q    MOV      r1,#0x8526
        0x080068b2:    f6c00100    ....    MOVT     r1,#0x800
        0x080068b6:    2000        .       MOVS     r0,#0
        0x080068b8:    f7fffc62    ..b.    BL       nr_shell_strtok ; 0x8006180
        0x080068bc:    9003        ..      STR      r0,[sp,#0xc]
        0x080068be:    e7ff        ..      B        0x80068c0 ; shell_parser + 240
        0x080068c0:    9803        ..      LDR      r0,[sp,#0xc]
        0x080068c2:    b320         .      CBZ      r0,0x800690e ; shell_parser + 318
        0x080068c4:    e7ff        ..      B        0x80068c6 ; shell_parser + 246
        0x080068c6:    f89d1007    ....    LDRB     r1,[sp,#7]
        0x080068ca:    f89d207f    ...     LDRB     r2,[sp,#0x7f]
        0x080068ce:    f10d0011    ....    ADD      r0,sp,#0x11
        0x080068d2:    5481        .T      STRB     r1,[r0,r2]
        0x080068d4:    f89d1007    ....    LDRB     r1,[sp,#7]
        0x080068d8:    4408        .D      ADD      r0,r0,r1
        0x080068da:    9903        ..      LDR      r1,[sp,#0xc]
        0x080068dc:    f7f9fdbd    ....    BL       strcpy ; 0x800045a
        0x080068e0:    9803        ..      LDR      r0,[sp,#0xc]
        0x080068e2:    f7f9fdde    ....    BL       strlen ; 0x80004a2
        0x080068e6:    f89d1007    ....    LDRB     r1,[sp,#7]
        0x080068ea:    4408        .D      ADD      r0,r0,r1
        0x080068ec:    3001        .0      ADDS     r0,#1
        0x080068ee:    f88d0007    ....    STRB     r0,[sp,#7]
        0x080068f2:    f89d007f    ....    LDRB     r0,[sp,#0x7f]
        0x080068f6:    3001        .0      ADDS     r0,#1
        0x080068f8:    f88d007f    ....    STRB     r0,[sp,#0x7f]
        0x080068fc:    f2485126    H.&Q    MOV      r1,#0x8526
        0x08006900:    f6c00100    ....    MOVT     r1,#0x800
        0x08006904:    2000        .       MOVS     r0,#0
        0x08006906:    f7fffc3b    ..;.    BL       nr_shell_strtok ; 0x8006180
        0x0800690a:    9003        ..      STR      r0,[sp,#0xc]
        0x0800690c:    e7d8        ..      B        0x80068c0 ; shell_parser + 240
        0x0800690e:    e7ff        ..      B        0x8006910 ; shell_parser + 320
        0x08006910:    9802        ..      LDR      r0,[sp,#8]
        0x08006912:    b138        8.      CBZ      r0,0x8006924 ; shell_parser + 340
        0x08006914:    e7ff        ..      B        0x8006916 ; shell_parser + 326
        0x08006916:    9a02        ..      LDR      r2,[sp,#8]
        0x08006918:    f89d007f    ....    LDRB     r0,[sp,#0x7f]
        0x0800691c:    f10d0111    ....    ADD      r1,sp,#0x11
        0x08006920:    4790        .G      BLX      r2
        0x08006922:    e7ff        ..      B        0x8006924 ; shell_parser + 340
        0x08006924:    9921        !.      LDR      r1,[sp,#0x84]
        0x08006926:    f2483060    H.`0    MOV      r0,#0x8360
        0x0800692a:    f6c00000    ....    MOVT     r0,#0x800
        0x0800692e:    f7f9fd2d    ..-.    BL       printf ; 0x800038c
        0x08006932:    e7ff        ..      B        0x8006934 ; shell_parser + 356
        0x08006934:    b022        ".      ADD      sp,sp,#0x88
        0x08006936:    bd80        ..      POP      {r7,pc}
    shell_search_cmd
        0x08006938:    b580        ..      PUSH     {r7,lr}
        0x0800693a:    b084        ..      SUB      sp,sp,#0x10
        0x0800693c:    9002        ..      STR      r0,[sp,#8]
        0x0800693e:    9101        ..      STR      r1,[sp,#4]
        0x08006940:    2000        .       MOVS     r0,#0
        0x08006942:    9000        ..      STR      r0,[sp,#0]
        0x08006944:    e7ff        ..      B        0x8006946 ; shell_search_cmd + 14
        0x08006946:    9802        ..      LDR      r0,[sp,#8]
        0x08006948:    6a00        .j      LDR      r0,[r0,#0x20]
        0x0800694a:    9900        ..      LDR      r1,[sp,#0]
        0x0800694c:    eb010181    ....    ADD      r1,r1,r1,LSL #2
        0x08006950:    eb000081    ....    ADD      r0,r0,r1,LSL #2
        0x08006954:    68c0        .h      LDR      r0,[r0,#0xc]
        0x08006956:    b1d0        ..      CBZ      r0,0x800698e ; shell_search_cmd + 86
        0x08006958:    e7ff        ..      B        0x800695a ; shell_search_cmd + 34
        0x0800695a:    9801        ..      LDR      r0,[sp,#4]
        0x0800695c:    9902        ..      LDR      r1,[sp,#8]
        0x0800695e:    6a09        .j      LDR      r1,[r1,#0x20]
        0x08006960:    9a00        ..      LDR      r2,[sp,#0]
        0x08006962:    eb020282    ....    ADD      r2,r2,r2,LSL #2
        0x08006966:    eb010182    ....    ADD      r1,r1,r2,LSL #2
        0x0800696a:    f7f9fe01    ....    BL       strcmp ; 0x8000570
        0x0800696e:    b950        P.      CBNZ     r0,0x8006986 ; shell_search_cmd + 78
        0x08006970:    e7ff        ..      B        0x8006972 ; shell_search_cmd + 58
        0x08006972:    9802        ..      LDR      r0,[sp,#8]
        0x08006974:    6a00        .j      LDR      r0,[r0,#0x20]
        0x08006976:    9900        ..      LDR      r1,[sp,#0]
        0x08006978:    eb010181    ....    ADD      r1,r1,r1,LSL #2
        0x0800697c:    eb000081    ....    ADD      r0,r0,r1,LSL #2
        0x08006980:    68c0        .h      LDR      r0,[r0,#0xc]
        0x08006982:    9003        ..      STR      r0,[sp,#0xc]
        0x08006984:    e006        ..      B        0x8006994 ; shell_search_cmd + 92
        0x08006986:    9800        ..      LDR      r0,[sp,#0]
        0x08006988:    3001        .0      ADDS     r0,#1
        0x0800698a:    9000        ..      STR      r0,[sp,#0]
        0x0800698c:    e7db        ..      B        0x8006946 ; shell_search_cmd + 14
        0x0800698e:    2000        .       MOVS     r0,#0
        0x08006990:    9003        ..      STR      r0,[sp,#0xc]
        0x08006992:    e7ff        ..      B        0x8006994 ; shell_search_cmd + 92
        0x08006994:    9803        ..      LDR      r0,[sp,#0xc]
        0x08006996:    b004        ..      ADD      sp,sp,#0x10
        0x08006998:    bd80        ..      POP      {r7,pc}
        0x0800699a:    0000        ..      MOVS     r0,r0
    stdout_callback
        0x0800699c:    b580        ..      PUSH     {r7,lr}
        0x0800699e:    b088        ..      SUB      sp,sp,#0x20
        0x080069a0:    9007        ..      STR      r0,[sp,#0x1c]
        0x080069a2:    9807        ..      LDR      r0,[sp,#0x1c]
        0x080069a4:    68c3        .h      LDR      r3,[r0,#0xc]
        0x080069a6:    f248524a    H.JR    MOV      r2,#0x854a
        0x080069aa:    f6c00200    ....    MOVT     r2,#0x800
        0x080069ae:    a803        ..      ADD      r0,sp,#0xc
        0x080069b0:    9002        ..      STR      r0,[sp,#8]
        0x080069b2:    2110        .!      MOVS     r1,#0x10
        0x080069b4:    f7f9fe40    ..@.    BL       strftime ; 0x8000638
        0x080069b8:    9a02        ..      LDR      r2,[sp,#8]
        0x080069ba:    4601        .F      MOV      r1,r0
        0x080069bc:    2000        .       MOVS     r0,#0
        0x080069be:    5450        PT      STRB     r0,[r2,r1]
        0x080069c0:    9b07        ..      LDR      r3,[sp,#0x1c]
        0x080069c2:    6899        .h      LDR      r1,[r3,#8]
        0x080069c4:    6918        .i      LDR      r0,[r3,#0x10]
        0x080069c6:    f8d3e014    ....    LDR      lr,[r3,#0x14]
        0x080069ca:    f8d3c018    ....    LDR      r12,[r3,#0x18]
        0x080069ce:    f2400310    @...    MOVW     r3,#0x10
        0x080069d2:    f2c20300    ....    MOVT     r3,#0x2000
        0x080069d6:    f853302c    S.,0    LDR      r3,[r3,r12,LSL #2]
        0x080069da:    46ec        .F      MOV      r12,sp
        0x080069dc:    f8cce004    ....    STR      lr,[r12,#4]
        0x080069e0:    f8cc1000    ....    STR      r1,[r12,#0]
        0x080069e4:    f2485118    H..Q    MOV      r1,#0x8518
        0x080069e8:    f6c00100    ....    MOVT     r1,#0x800
        0x080069ec:    f7f9fcda    ....    BL       fprintf ; 0x80003a4
        0x080069f0:    9807        ..      LDR      r0,[sp,#0x1c]
        0x080069f2:    6802        .h      LDR      r2,[r0,#0]
        0x080069f4:    6841        Ah      LDR      r1,[r0,#4]
        0x080069f6:    6900        .i      LDR      r0,[r0,#0x10]
        0x080069f8:    f7f9fcde    ....    BL       vfprintf ; 0x80003b8
        0x080069fc:    9807        ..      LDR      r0,[sp,#0x1c]
        0x080069fe:    6900        .i      LDR      r0,[r0,#0x10]
        0x08006a00:    f2483127    H.'1    MOV      r1,#0x8327
        0x08006a04:    f6c00100    ....    MOVT     r1,#0x800
        0x08006a08:    f7f9fccc    ....    BL       fprintf ; 0x80003a4
        0x08006a0c:    9807        ..      LDR      r0,[sp,#0x1c]
        0x08006a0e:    6900        .i      LDR      r0,[r0,#0x10]
        0x08006a10:    f7f9fcf3    ....    BL       fflush ; 0x80003fa
        0x08006a14:    b008        ..      ADD      sp,sp,#0x20
        0x08006a16:    bd80        ..      POP      {r7,pc}
    unlock
        0x08006a18:    b580        ..      PUSH     {r7,lr}
        0x08006a1a:    f2403034    @.40    MOVW     r0,#0x334
        0x08006a1e:    f2c20000    ....    MOVT     r0,#0x2000
        0x08006a22:    6840        @h      LDR      r0,[r0,#4]
        0x08006a24:    b148        H.      CBZ      r0,0x8006a3a ; unlock + 34
        0x08006a26:    e7ff        ..      B        0x8006a28 ; unlock + 16
        0x08006a28:    f2403034    @.40    MOVW     r0,#0x334
        0x08006a2c:    f2c20000    ....    MOVT     r0,#0x2000
        0x08006a30:    6801        .h      LDR      r1,[r0,#0]
        0x08006a32:    6842        Bh      LDR      r2,[r0,#4]
        0x08006a34:    2000        .       MOVS     r0,#0
        0x08006a36:    4790        .G      BLX      r2
        0x08006a38:    e7ff        ..      B        0x8006a3a ; unlock + 34
        0x08006a3a:    bd80        ..      POP      {r7,pc}
    $t
    CL$$btod_d2e
    _btod_d2e
        0x08006a3c:    ea5f0c40    _.@.    LSLS     r12,r0,#1
        0x08006a40:    bf08        ..      IT       EQ
        0x08006a42:    f0910f00    ....    TEQEQ    r1,#0
        0x08006a46:    ea4f238c    O..#    LSL      r3,r12,#10
        0x08006a4a:    ea4f22c1    O.."    LSL      r2,r1,#11
        0x08006a4e:    ea435151    C.QQ    ORR      r1,r3,r1,LSR #21
        0x08006a52:    ea4f501c    O..P    LSR      r0,r12,#20
        0x08006a56:    bf18        ..      IT       NE
        0x08006a58:    f50040f0    ...@    ADDNE    r0,r0,#0x7800
        0x08006a5c:    ea4f0030    O.0.    RRX      r0,r0
        0x08006a60:    bf18        ..      IT       NE
        0x08006a62:    f0414100    A..A    ORRNE    r1,r1,#0x80000000
        0x08006a66:    ea5f5c6c    _.l\    ASRS     r12,r12,#21
        0x08006a6a:    f0008029    ..).    BEQ.W    _d2e_norm_op1 ; 0x8006ac0
        0x08006a6e:    f1bc3fff    ...?    CMP      r12,#0xffffffff
        0x08006a72:    bf08        ..      IT       EQ
        0x08006a74:    f0404080    @..@    ORREQ    r0,r0,#0x40000000
        0x08006a78:    4770        pG      BX       lr
    CL$$btod_d2e_denorm_low
    _d2e_denorm_low
        0x08006a7a:    0c13        ..      LSRS     r3,r2,#16
        0x08006a7c:    bf06        ..      ITTE     EQ
        0x08006a7e:    0412        ..      LSLEQ    r2,r2,#16
        0x08006a80:    f04f0c10    O...    MOVEQ    r12,#0x10
        0x08006a84:    f04f0c00    O...    MOVNE    r12,#0
        0x08006a88:    0e13        ..      LSRS     r3,r2,#24
        0x08006a8a:    bf04        ..      ITT      EQ
        0x08006a8c:    0212        ..      LSLEQ    r2,r2,#8
        0x08006a8e:    f10c0c08    ....    ADDEQ    r12,r12,#8
        0x08006a92:    0f13        ..      LSRS     r3,r2,#28
        0x08006a94:    bf04        ..      ITT      EQ
        0x08006a96:    0112        ..      LSLEQ    r2,r2,#4
        0x08006a98:    f10c0c04    ....    ADDEQ    r12,r12,#4
        0x08006a9c:    0f93        ..      LSRS     r3,r2,#30
        0x08006a9e:    bf04        ..      ITT      EQ
        0x08006aa0:    0092        ..      LSLEQ    r2,r2,#2
        0x08006aa2:    f10c0c02    ....    ADDEQ    r12,r12,#2
        0x08006aa6:    0fd3        ..      LSRS     r3,r2,#31
        0x08006aa8:    bf04        ..      ITT      EQ
        0x08006aaa:    0052        R.      LSLEQ    r2,r2,#1
        0x08006aac:    f10c0c01    ....    ADDEQ    r12,r12,#1
        0x08006ab0:    4611        .F      MOV      r1,r2
        0x08006ab2:    f04f0200    O...    MOV      r2,#0
        0x08006ab6:    f1a0001f    ....    SUB      r0,r0,#0x1f
        0x08006aba:    eba0000c    ....    SUB      r0,r0,r12
        0x08006abe:    4770        pG      BX       lr
    CL$$btod_d2e_norm_op1
    _d2e_norm_op1
        0x08006ac0:    f0114f00    ...O    TST      r1,#0x80000000
        0x08006ac4:    bf08        ..      IT       EQ
        0x08006ac6:    4770        pG      BXEQ     lr
        0x08006ac8:    f0314100    1..A    BICS     r1,r1,#0x80000000
        0x08006acc:    f43fafd5    ?...    BEQ.W    _d2e_denorm_low ; 0x8006a7a
        0x08006ad0:    0c0b        ..      LSRS     r3,r1,#16
        0x08006ad2:    bf06        ..      ITTE     EQ
        0x08006ad4:    0409        ..      LSLEQ    r1,r1,#16
        0x08006ad6:    f04f0c10    O...    MOVEQ    r12,#0x10
        0x08006ada:    f04f0c00    O...    MOVNE    r12,#0
        0x08006ade:    0e0b        ..      LSRS     r3,r1,#24
        0x08006ae0:    bf04        ..      ITT      EQ
        0x08006ae2:    0209        ..      LSLEQ    r1,r1,#8
        0x08006ae4:    f10c0c08    ....    ADDEQ    r12,r12,#8
        0x08006ae8:    0f0b        ..      LSRS     r3,r1,#28
        0x08006aea:    bf04        ..      ITT      EQ
        0x08006aec:    0109        ..      LSLEQ    r1,r1,#4
        0x08006aee:    f10c0c04    ....    ADDEQ    r12,r12,#4
        0x08006af2:    0f8b        ..      LSRS     r3,r1,#30
        0x08006af4:    bf04        ..      ITT      EQ
        0x08006af6:    0089        ..      LSLEQ    r1,r1,#2
        0x08006af8:    f10c0c02    ....    ADDEQ    r12,r12,#2
        0x08006afc:    0fcb        ..      LSRS     r3,r1,#31
        0x08006afe:    bf04        ..      ITT      EQ
        0x08006b00:    0049        I.      LSLEQ    r1,r1,#1
        0x08006b02:    f10c0c01    ....    ADDEQ    r12,r12,#1
        0x08006b06:    f1cc0320    .. .    RSB      r3,r12,#0x20
        0x08006b0a:    fa22f303    "...    LSR      r3,r2,r3
        0x08006b0e:    ea410103    A...    ORR      r1,r1,r3
        0x08006b12:    fa02f20c    ....    LSL      r2,r2,r12
        0x08006b16:    eba0000c    ....    SUB      r0,r0,r12
        0x08006b1a:    f1000001    ....    ADD      r0,r0,#1
        0x08006b1e:    4770        pG      BX       lr
    CL$$btod_div_common
    __btod_div_common
        0x08006b20:    f023477f    #..G    BIC      r7,r3,#0xff000000
        0x08006b24:    f0204c7f     ..L    BIC      r12,r0,#0xff000000
        0x08006b28:    ea800003    ....    EOR      r0,r0,r3
        0x08006b2c:    f0004000    ...@    AND      r0,r0,#0x80000000
        0x08006b30:    ebac0307    ....    SUB      r3,r12,r7
        0x08006b34:    f503537c    ..|S    ADD      r3,r3,#0x3f00
        0x08006b38:    f10303ff    ....    ADD      r3,r3,#0xff
        0x08006b3c:    e92d4980    -..I    PUSH     {r7,r8,r11,lr}
        0x08006b40:    b409        ..      PUSH     {r0,r3}
        0x08006b42:    ea4f4314    O..C    LSR      r3,r4,#16
        0x08006b46:    ea244803    $..H    BIC      r8,r4,r3,LSL #16
        0x08006b4a:    ea4f4b15    O..K    LSR      r11,r5,#16
        0x08006b4e:    ea254e0b    %..N    BIC      lr,r5,r11,LSL #16
        0x08006b52:    f20f2604    ...&    ADR.W    r6,{pc}+0x206 ; 0x8006d58
        0x08006b56:    eb062713    ...'    ADD      r7,r6,r3,LSR #8
        0x08006b5a:    783e        >x      LDRB     r6,[r7,#0]
        0x08006b5c:    fb036706    ...g    MLA      r7,r3,r6,r6
        0x08006b60:    f5c70700    ....    RSB      r7,r7,#0x800000
        0x08006b64:    fb07f606    ....    MUL      r6,r7,r6
        0x08006b68:    ea4f46d6    O..F    LSR      r6,r6,#19
        0x08006b6c:    f1060602    ....    ADD      r6,r6,#2
        0x08006b70:    ea4f3754    O.T7    LSR      r7,r4,#13
        0x08006b74:    fb076c06    ...l    MLA      r12,r7,r6,r6
        0x08006b78:    f1cc5c00    ...\    RSB      r12,r12,#0x20000000
        0x08006b7c:    ea4f471c    O..G    LSR      r7,r12,#16
        0x08006b80:    ea2c4c07    ,..L    BIC      r12,r12,r7,LSL #16
        0x08006b84:    fb0cf506    ....    MUL      r5,r12,r6
        0x08006b88:    fb07f406    ....    MUL      r4,r7,r6
        0x08006b8c:    eb044615    ...F    ADD      r6,r4,r5,LSR #16
        0x08006b90:    ea4f1696    O...    LSR      r6,r6,#6
        0x08006b94:    0849        I.      LSRS     r1,r1,#1
        0x08006b96:    ea5f0232    _.2.    RRXS     r2,r2
        0x08006b9a:    bf34        4.      ITE      CC
        0x08006b9c:    2000        .       MOVCC    r0,#0
        0x08006b9e:    f04f4000    O..@    MOVCS    r0,#0x80000000
        0x08006ba2:    ea4f37d1    O..7    LSR      r7,r1,#15
        0x08006ba6:    fb06fc07    ....    MUL      r12,r6,r7
        0x08006baa:    ea4f4c1c    O..L    LSR      r12,r12,#16
        0x08006bae:    fb0cf70b    ....    MUL      r7,r12,r11
        0x08006bb2:    1bd2        ..      SUBS     r2,r2,r7
        0x08006bb4:    fb03f70c    ....    MUL      r7,r3,r12
        0x08006bb8:    eb610107    a...    SBC      r1,r1,r7
        0x08006bbc:    fb0cf70e    ....    MUL      r7,r12,lr
        0x08006bc0:    ebb04007    ...@    SUBS     r0,r0,r7,LSL #16
        0x08006bc4:    eb724217    r..B    SBCS     r2,r2,r7,LSR #16
        0x08006bc8:    fb0cf708    ....    MUL      r7,r12,r8
        0x08006bcc:    bf34        4.      ITE      CC
        0x08006bce:    eba24207    ...B    SUBCC    r2,r2,r7,LSL #16
        0x08006bd2:    ebb24207    ...B    SUBSCS   r2,r2,r7,LSL #16
        0x08006bd6:    eb614117    a..A    SBC      r1,r1,r7,LSR #16
        0x08006bda:    ea4f440c    O..D    LSL      r4,r12,#16
        0x08006bde:    ea4f0791    O...    LSR      r7,r1,#2
        0x08006be2:    fb06fc07    ....    MUL      r12,r6,r7
        0x08006be6:    ea4f4c1c    O..L    LSR      r12,r12,#16
        0x08006bea:    fb0cf70b    ....    MUL      r7,r12,r11
        0x08006bee:    ebb040c7    ...@    SUBS     r0,r0,r7,LSL #19
        0x08006bf2:    eb723257    r.W2    SBCS     r2,r2,r7,LSR #13
        0x08006bf6:    fb03f70c    ....    MUL      r7,r3,r12
        0x08006bfa:    bf34        4.      ITE      CC
        0x08006bfc:    eba242c7    ...B    SUBCC    r2,r2,r7,LSL #19
        0x08006c00:    ebb242c7    ...B    SUBSCS   r2,r2,r7,LSL #19
        0x08006c04:    eb613157    a.W1    SBC      r1,r1,r7,LSR #13
        0x08006c08:    fb0cf70e    ....    MUL      r7,r12,lr
        0x08006c0c:    ebb000c7    ....    SUBS     r0,r0,r7,LSL #3
        0x08006c10:    eb727257    r.Wr    SBCS     r2,r2,r7,LSR #29
        0x08006c14:    fb0cf708    ....    MUL      r7,r12,r8
        0x08006c18:    bf34        4.      ITE      CC
        0x08006c1a:    eba202c7    ....    SUBCC    r2,r2,r7,LSL #3
        0x08006c1e:    ebb202c7    ....    SUBSCS   r2,r2,r7,LSL #3
        0x08006c22:    eb617157    a.Wq    SBC      r1,r1,r7,LSR #29
        0x08006c26:    ea4f6181    O..a    LSL      r1,r1,#26
        0x08006c2a:    ea411192    A...    ORR      r1,r1,r2,LSR #6
        0x08006c2e:    ea4f6282    O..b    LSL      r2,r2,#26
        0x08006c32:    ea421290    B...    ORR      r2,r2,r0,LSR #6
        0x08006c36:    ea4f6080    O..`    LSL      r0,r0,#26
        0x08006c3a:    eb0404cc    ....    ADD      r4,r4,r12,LSL #3
        0x08006c3e:    9f03        ..      LDR      r7,[sp,#0xc]
        0x08006c40:    ea4f37d1    O..7    LSR      r7,r1,#15
        0x08006c44:    fb06fc07    ....    MUL      r12,r6,r7
        0x08006c48:    ea4f4c1c    O..L    LSR      r12,r12,#16
        0x08006c4c:    fb0cf70b    ....    MUL      r7,r12,r11
        0x08006c50:    1bd2        ..      SUBS     r2,r2,r7
        0x08006c52:    fb03f70c    ....    MUL      r7,r3,r12
        0x08006c56:    eb610107    a...    SBC      r1,r1,r7
        0x08006c5a:    fb0cf70e    ....    MUL      r7,r12,lr
        0x08006c5e:    ebb04007    ...@    SUBS     r0,r0,r7,LSL #16
        0x08006c62:    eb724217    r..B    SBCS     r2,r2,r7,LSR #16
        0x08006c66:    fb0cf708    ....    MUL      r7,r12,r8
        0x08006c6a:    bf34        4.      ITE      CC
        0x08006c6c:    eba24207    ...B    SUBCC    r2,r2,r7,LSL #16
        0x08006c70:    ebb24207    ...B    SUBSCS   r2,r2,r7,LSL #16
        0x08006c74:    eb614117    a..A    SBC      r1,r1,r7,LSR #16
        0x08006c78:    ea4f558c    O..U    LSL      r5,r12,#22
        0x08006c7c:    eb04249c    ...$    ADD      r4,r4,r12,LSR #10
        0x08006c80:    ea4f0791    O...    LSR      r7,r1,#2
        0x08006c84:    fb06fc07    ....    MUL      r12,r6,r7
        0x08006c88:    ea4f4c1c    O..L    LSR      r12,r12,#16
        0x08006c8c:    fb0cf70b    ....    MUL      r7,r12,r11
        0x08006c90:    ebb040c7    ...@    SUBS     r0,r0,r7,LSL #19
        0x08006c94:    eb723257    r.W2    SBCS     r2,r2,r7,LSR #13
        0x08006c98:    fb03f70c    ....    MUL      r7,r3,r12
        0x08006c9c:    bf34        4.      ITE      CC
        0x08006c9e:    eba242c7    ...B    SUBCC    r2,r2,r7,LSL #19
        0x08006ca2:    ebb242c7    ...B    SUBSCS   r2,r2,r7,LSL #19
        0x08006ca6:    eb613157    a.W1    SBC      r1,r1,r7,LSR #13
        0x08006caa:    fb0cf70e    ....    MUL      r7,r12,lr
        0x08006cae:    ebb000c7    ....    SUBS     r0,r0,r7,LSL #3
        0x08006cb2:    eb727257    r.Wr    SBCS     r2,r2,r7,LSR #29
        0x08006cb6:    fb0cf708    ....    MUL      r7,r12,r8
        0x08006cba:    bf34        4.      ITE      CC
        0x08006cbc:    eba202c7    ....    SUBCC    r2,r2,r7,LSL #3
        0x08006cc0:    ebb202c7    ....    SUBSCS   r2,r2,r7,LSL #3
        0x08006cc4:    eb617157    a.Wq    SBC      r1,r1,r7,LSR #29
        0x08006cc8:    ea4f6181    O..a    LSL      r1,r1,#26
        0x08006ccc:    ea411192    A...    ORR      r1,r1,r2,LSR #6
        0x08006cd0:    ea4f6282    O..b    LSL      r2,r2,#26
        0x08006cd4:    ea421290    B...    ORR      r2,r2,r0,LSR #6
        0x08006cd8:    ea4f6080    O..`    LSL      r0,r0,#26
        0x08006cdc:    eb15254c    ..L%    ADDS     r5,r5,r12,LSL #9
        0x08006ce0:    f1440400    D...    ADC      r4,r4,#0
        0x08006ce4:    ea4f37d1    O..7    LSR      r7,r1,#15
        0x08006ce8:    fb06fc07    ....    MUL      r12,r6,r7
        0x08006cec:    ea4f4c1c    O..L    LSR      r12,r12,#16
        0x08006cf0:    fb0cf70b    ....    MUL      r7,r12,r11
        0x08006cf4:    1bd2        ..      SUBS     r2,r2,r7
        0x08006cf6:    fb03f70c    ....    MUL      r7,r3,r12
        0x08006cfa:    eb610107    a...    SBC      r1,r1,r7
        0x08006cfe:    fb0cf70e    ....    MUL      r7,r12,lr
        0x08006d02:    ebb04007    ...@    SUBS     r0,r0,r7,LSL #16
        0x08006d06:    eb724217    r..B    SBCS     r2,r2,r7,LSR #16
        0x08006d0a:    fb0cf708    ....    MUL      r7,r12,r8
        0x08006d0e:    bf34        4.      ITE      CC
        0x08006d10:    eba24207    ...B    SUBCC    r2,r2,r7,LSL #16
        0x08006d14:    ebb24207    ...B    SUBSCS   r2,r2,r7,LSL #16
        0x08006d18:    eb614117    a..A    SBC      r1,r1,r7,LSR #16
        0x08006d1c:    ea4f3181    O..1    LSL      r1,r1,#14
        0x08006d20:    ea414192    A..A    ORR      r1,r1,r2,LSR #18
        0x08006d24:    ea4f3282    O..2    LSL      r2,r2,#14
        0x08006d28:    ea424290    B..B    ORR      r2,r2,r0,LSR #18
        0x08006d2c:    ea4f3080    O..0    LSL      r0,r0,#14
        0x08006d30:    ea4f760c    O..v    LSL      r6,r12,#28
        0x08006d34:    eb15151c    ....    ADDS     r5,r5,r12,LSR #4
        0x08006d38:    f1440400    D...    ADC      r4,r4,#0
        0x08006d3c:    ea484303    H..C    ORR      r3,r8,r3,LSL #16
        0x08006d40:    ea4e480b    N..H    ORR      r8,lr,r11,LSL #16
        0x08006d44:    f04f0e00    O...    MOV      lr,#0
        0x08006d48:    ebb20c08    ....    SUBS     r12,r2,r8
        0x08006d4c:    eb710703    q...    SBCS     r7,r1,r3
        0x08006d50:    bf24        $.      ITT      CS
        0x08006d52:    4662        bF      MOVCS    r2,r12
        0x08006d54:    4639        9F      MOVCS    r1,r7
        0x08006d56:    eb4e0e0e    N...    ADC      lr,lr,lr
        0x08006d5a:    f04f0b00    O...    MOV      r11,#0
        0x08006d5e:    1800        ..      ADDS     r0,r0,r0
        0x08006d60:    4152        RA      ADCS     r2,r2,r2
        0x08006d62:    4149        IA      ADCS     r1,r1,r1
        0x08006d64:    eb4b0b0b    K...    ADC      r11,r11,r11
        0x08006d68:    ebb20c08    ....    SUBS     r12,r2,r8
        0x08006d6c:    eb710703    q...    SBCS     r7,r1,r3
        0x08006d70:    f17b0b00    {...    SBCS     r11,r11,#0
        0x08006d74:    bf24        $.      ITT      CS
        0x08006d76:    4662        bF      MOVCS    r2,r12
        0x08006d78:    4639        9F      MOVCS    r1,r7
        0x08006d7a:    eb4e0e0e    N...    ADC      lr,lr,lr
        0x08006d7e:    f04f0b00    O...    MOV      r11,#0
        0x08006d82:    1800        ..      ADDS     r0,r0,r0
        0x08006d84:    4152        RA      ADCS     r2,r2,r2
        0x08006d86:    4149        IA      ADCS     r1,r1,r1
        0x08006d88:    eb4b0b0b    K...    ADC      r11,r11,r11
        0x08006d8c:    ebb20c08    ....    SUBS     r12,r2,r8
        0x08006d90:    eb710703    q...    SBCS     r7,r1,r3
        0x08006d94:    f17b0b00    {...    SBCS     r11,r11,#0
        0x08006d98:    bf24        $.      ITT      CS
        0x08006d9a:    4662        bF      MOVCS    r2,r12
        0x08006d9c:    4639        9F      MOVCS    r1,r7
        0x08006d9e:    eb4e0e0e    N...    ADC      lr,lr,lr
        0x08006da2:    ea510702    Q...    ORRS     r7,r1,r2
        0x08006da6:    bf18        ..      IT       NE
        0x08006da8:    f0460601    F...    ORRNE    r6,r6,#1
        0x08006dac:    eb16760e    ...v    ADDS     r6,r6,lr,LSL #28
        0x08006db0:    f1550200    U...    ADCS     r2,r5,#0
        0x08006db4:    f1540100    T...    ADCS     r1,r4,#0
        0x08006db8:    d503        ..      BPL      0x8006dc2 ; __btod_div_common + 674
        0x08006dba:    e8bd0189    ....    POP      {r0,r3,r7,r8}
        0x08006dbe:    e8bd8800    ....    POP      {r11,pc}
        0x08006dc2:    e8bd0189    ....    POP      {r0,r3,r7,r8}
        0x08006dc6:    e8bd4800    ...H    POP      {r11,lr}
        0x08006dca:    19b6        ..      ADDS     r6,r6,r6
        0x08006dcc:    4152        RA      ADCS     r2,r2,r2
        0x08006dce:    eb410101    A...    ADC      r1,r1,r1
        0x08006dd2:    f1a30301    ....    SUB      r3,r3,#1
        0x08006dd6:    4770        pG      BX       lr
    $d
        0x08006dd8:    7e7f8080    ...~    DCD    2122285184
        0x08006ddc:    7a7b7c7d    }|{z    DCD    2054913149
        0x08006de0:    76777879    yxwv    DCD    1987541113
        0x08006de4:    73747576    vuts    DCD    1937012086
        0x08006de8:    70717172    rqqp    DCD    1886482802
        0x08006dec:    6d6e6e6f    onnm    DCD    1835953775
        0x08006df0:    6a6b6c6c    llkj    DCD    1785425004
        0x08006df4:    6868696a    jihh    DCD    1751673194
        0x08006df8:    65666667    gffe    DCD    1701209703
        0x08006dfc:    63636464    ddcc    DCD    1667458148
        0x08006e00:    60616162    baa`    DCD    1616994658
        0x08006e04:    5e5f5f60    `__^    DCD    1583308640
        0x08006e08:    5c5d5d5e    ^]]\    DCD    1549622622
        0x08006e0c:    5a5b5b5c    \[[Z    DCD    1515936604
        0x08006e10:    5859595a    ZYYX    DCD    1482250586
        0x08006e14:    56575758    XWWV    DCD    1448564568
        0x08006e18:    55555556    VUUU    DCD    1431655766
        0x08006e1c:    53535454    TTSS    DCD    1397970004
        0x08006e20:    51525252    RRRQ    DCD    1364349522
        0x08006e24:    50505051    QPPP    DCD    1347440721
        0x08006e28:    4e4f4f4f    OOON    DCD    1313820495
        0x08006e2c:    4d4d4d4e    NMMM    DCD    1296911694
        0x08006e30:    4b4c4c4c    LLLK    DCD    1263291468
        0x08006e34:    4a4a4b4b    KKJJ    DCD    1246382923
        0x08006e38:    4949494a    JIII    DCD    1229539658
        0x08006e3c:    47484848    HHHG    DCD    1195919432
        0x08006e40:    46474747    GGGF    DCD    1179076423
        0x08006e44:    45454646    FFEE    DCD    1162167878
        0x08006e48:    44444445    EDDD    DCD    1145324613
        0x08006e4c:    43434344    DCCC    DCD    1128481604
        0x08006e50:    42424243    CBBB    DCD    1111638595
        0x08006e54:    41414142    BAAA    DCD    1094795586
    $t
    CL$$btod_e2e
    _e2e
        0x08006e58:    469c        .F      MOV      r12,r3
        0x08006e5a:    2b00        .+      CMP      r3,#0
        0x08006e5c:    d430        0.      BMI      0x8006ec0 ; _e2e + 104
        0x08006e5e:    0077        w.      LSLS     r7,r6,#1
        0x08006e60:    d02b        +.      BEQ      0x8006eba ; _e2e + 98
        0x08006e62:    ea4f0737    O.7.    RRX      r7,r7
        0x08006e66:    b51c        ..      PUSH     {r2-r4,lr}
        0x08006e68:    b403        ..      PUSH     {r0,r1}
        0x08006e6a:    f04f0010    O...    MOV      r0,#0x10
        0x08006e6e:    f04f0110    O...    MOV      r1,#0x10
        0x08006e72:    f1ba0f00    ....    CMP      r10,#0
        0x08006e76:    d006        ..      BEQ      0x8006e86 ; _e2e + 46
        0x08006e78:    f1bc0f00    ....    CMP      r12,#0
        0x08006e7c:    bfdc        ..      ITT      LE
        0x08006e7e:    f0400008    @...    ORRLE    r0,r0,#8
        0x08006e82:    f0400108    @...    ORRLE    r1,r0,#8
        0x08006e86:    f04f0000    O...    MOV      r0,#0
        0x08006e8a:    bc0f        ..      POP      {r0-r3}
        0x08006e8c:    e8bd4010    ...@    POP      {r4,lr}
        0x08006e90:    f10b0b01    ....    ADD      r11,r11,#1
        0x08006e94:    f1bb0f01    ....    CMP      r11,#1
        0x08006e98:    bf08        ..      IT       EQ
        0x08006e9a:    ea5f0717    _...    LSRSEQ   r7,r7,#32
        0x08006e9e:    bf22        ".      ITTT     CS
        0x08006ea0:    f1120201    ....    ADDSCS   r2,r2,#1
        0x08006ea4:    f1110101    ....    ADDSCS   r1,r1,#1
        0x08006ea8:    f04f4100    O..A    MOVCS    r1,#0x80000000
        0x08006eac:    f1430300    C...    ADC      r3,r3,#0
        0x08006eb0:    f0004000    ...@    AND      r0,r0,#0x80000000
        0x08006eb4:    ea430000    C...    ORR      r0,r3,r0
        0x08006eb8:    4770        pG      BX       lr
        0x08006eba:    d3f9        ..      BCC      0x8006eb0 ; _e2e + 88
        0x08006ebc:    0857        W.      LSRS     r7,r2,#1
        0x08006ebe:    e7d0        ..      B        0x8006e62 ; _e2e + 10
        0x08006ec0:    ea464606    F..F    ORR      r6,r6,r6,LSL #16
        0x08006ec4:    ea4f4616    O..F    LSR      r6,r6,#16
        0x08006ec8:    f1130f40    ..@.    CMN      r3,#0x40
        0x08006ecc:    dd1f        ..      BLE      0x8006f0e ; _e2e + 182
        0x08006ece:    f1130f20    .. .    CMN      r3,#0x20
        0x08006ed2:    bfdf        ..      ITTTT    LE
        0x08006ed4:    4316        .C      ORRLE    r6,r6,r2
        0x08006ed6:    460a        .F      MOVLE    r2,r1
        0x08006ed8:    2100        .!      MOVLE    r1,#0
        0x08006eda:    3320         3      ADDLE    r3,r3,#0x20
        0x08006edc:    425b        [B      RSBS     r3,r3,#0
        0x08006ede:    d0be        ..      BEQ      0x8006e5e ; _e2e + 6
        0x08006ee0:    f1c30720    .. .    RSB      r7,r3,#0x20
        0x08006ee4:    ea464606    F..F    ORR      r6,r6,r6,LSL #16
        0x08006ee8:    ea4f4616    O..F    LSR      r6,r6,#16
        0x08006eec:    fa02f707    ....    LSL      r7,r2,r7
        0x08006ef0:    ea460607    F...    ORR      r6,r6,r7
        0x08006ef4:    fa22f203    "...    LSR      r2,r2,r3
        0x08006ef8:    f1c30720    .. .    RSB      r7,r3,#0x20
        0x08006efc:    fa01f707    ....    LSL      r7,r1,r7
        0x08006f00:    ea420207    B...    ORR      r2,r2,r7
        0x08006f04:    fa21f103    !...    LSR      r1,r1,r3
        0x08006f08:    f04f0300    O...    MOV      r3,#0
        0x08006f0c:    e7a7        ..      B        0x8006e5e ; _e2e + 6
        0x08006f0e:    ea460602    F...    ORR      r6,r6,r2
        0x08006f12:    ea464606    F..F    ORR      r6,r6,r6,LSL #16
        0x08006f16:    ea4f4616    O..F    LSR      r6,r6,#16
        0x08006f1a:    ea460601    F...    ORR      r6,r6,r1
        0x08006f1e:    bfbc        ..      ITT      LT
        0x08006f20:    ea464606    F..F    ORRLT    r6,r6,r6,LSL #16
        0x08006f24:    0c36        6.      LSRLT    r6,r6,#16
        0x08006f26:    f04f0300    O...    MOV      r3,#0
        0x08006f2a:    f04f0200    O...    MOV      r2,#0
        0x08006f2e:    f04f0100    O...    MOV      r1,#0
        0x08006f32:    e794        ..      B        0x8006e5e ; _e2e + 6
    CL$$btod_ediv
    _btod_ediv
        0x08006f34:    e92d4c80    -..L    PUSH     {r7,r10,r11,lr}
        0x08006f38:    b470        p.      PUSH     {r4-r6}
        0x08006f3a:    469a        .F      MOV      r10,r3
        0x08006f3c:    4693        .F      MOV      r11,r2
        0x08006f3e:    e8910038    ..8.    LDM      r1,{r3-r5}
        0x08006f42:    c807        ..      LDM      r0,{r0-r2}
        0x08006f44:    ea310c40    1.@.    BICS     r12,r1,r0,LSL #1
        0x08006f48:    bf48        H.      IT       MI
        0x08006f4a:    ea340c43    4.C.    BICSMI   r12,r4,r3,LSL #1
        0x08006f4e:    d503        ..      BPL      0x8006f58 ; _btod_ediv + 36
        0x08006f50:    f7fffde6    ....    BL       __btod_div_common ; 0x8006b20
        0x08006f54:    f7ffff80    ....    BL       _e2e ; 0x8006e58
        0x08006f58:    bcf0        ..      POP      {r4-r7}
        0x08006f5a:    e8bd8c00    ....    POP      {r10,r11,pc}
    CL$$btod_emul
    _btod_emul
        0x08006f5e:    e92d4c80    -..L    PUSH     {r7,r10,r11,lr}
        0x08006f62:    b470        p.      PUSH     {r4-r6}
        0x08006f64:    469a        .F      MOV      r10,r3
        0x08006f66:    4693        .F      MOV      r11,r2
        0x08006f68:    e8910038    ..8.    LDM      r1,{r3-r5}
        0x08006f6c:    c807        ..      LDM      r0,{r0-r2}
        0x08006f6e:    f0104f80    ...O    TST      r0,#0x40000000
        0x08006f72:    bf08        ..      IT       EQ
        0x08006f74:    f0134f80    ...O    TSTEQ    r3,#0x40000000
        0x08006f78:    d103        ..      BNE      0x8006f82 ; _btod_emul + 36
        0x08006f7a:    f000f805    ....    BL       __btod_mult_common ; 0x8006f88
        0x08006f7e:    f7ffff6b    ..k.    BL       _e2e ; 0x8006e58
        0x08006f82:    bcf0        ..      POP      {r4-r7}
        0x08006f84:    e8bd8c00    ....    POP      {r10,r11,pc}
    CL$$btod_mult_common
    __btod_mult_common
        0x08006f88:    f020477f     ..G    BIC      r7,r0,#0xff000000
        0x08006f8c:    f0234c7f    #..L    BIC      r12,r3,#0xff000000
        0x08006f90:    ea800003    ....    EOR      r0,r0,r3
        0x08006f94:    f0004000    ...@    AND      r0,r0,#0x80000000
        0x08006f98:    eb07030c    ....    ADD      r3,r7,r12
        0x08006f9c:    f5a3537c    ..|S    SUB      r3,r3,#0x3f00
        0x08006fa0:    f1a303fe    ....    SUB      r3,r3,#0xfe
        0x08006fa4:    f0920f00    ....    TEQ      r2,#0
        0x08006fa8:    f00080b3    ....    BEQ.W    0x8007112 ; __btod_mult_common + 394
        0x08006fac:    f0950f00    ....    TEQ      r5,#0
        0x08006fb0:    f0008077    ..w.    BEQ.W    0x80070a2 ; __btod_mult_common + 282
        0x08006fb4:    e92d4901    -..I    PUSH     {r0,r8,r11,lr}
        0x08006fb8:    ea4f4011    O..@    LSR      r0,r1,#16
        0x08006fbc:    ea214800    !..H    BIC      r8,r1,r0,LSL #16
        0x08006fc0:    ea4f4614    O..F    LSR      r6,r4,#16
        0x08006fc4:    ea244706    $..G    BIC      r7,r4,r6,LSL #16
        0x08006fc8:    fb00fc06    ....    MUL      r12,r0,r6
        0x08006fcc:    fb08f606    ....    MUL      r6,r8,r6
        0x08006fd0:    fb07f808    ....    MUL      r8,r7,r8
        0x08006fd4:    eb184806    ...H    ADDS     r8,r8,r6,LSL #16
        0x08006fd8:    eb4c4c16    L..L    ADC      r12,r12,r6,LSR #16
        0x08006fdc:    fb00f707    ....    MUL      r7,r0,r7
        0x08006fe0:    eb184807    ...H    ADDS     r8,r8,r7,LSL #16
        0x08006fe4:    eb4c4017    L..@    ADC      r0,r12,r7,LSR #16
        0x08006fe8:    ea4f4b12    O..K    LSR      r11,r2,#16
        0x08006fec:    ea224e0b    "..N    BIC      lr,r2,r11,LSL #16
        0x08006ff0:    ea4f4615    O..F    LSR      r6,r5,#16
        0x08006ff4:    ea254706    %..G    BIC      r7,r5,r6,LSL #16
        0x08006ff8:    fb0bfc06    ....    MUL      r12,r11,r6
        0x08006ffc:    fb0ef606    ....    MUL      r6,lr,r6
        0x08007000:    fb07fe0e    ....    MUL      lr,r7,lr
        0x08007004:    eb1e4e06    ...N    ADDS     lr,lr,r6,LSL #16
        0x08007008:    eb4c4c16    L..L    ADC      r12,r12,r6,LSR #16
        0x0800700c:    fb0bf707    ....    MUL      r7,r11,r7
        0x08007010:    eb1e4e07    ...N    ADDS     lr,lr,r7,LSL #16
        0x08007014:    eb4c4b17    L..K    ADC      r11,r12,r7,LSR #16
        0x08007018:    eb18080b    ....    ADDS     r8,r8,r11
        0x0800701c:    f1400000    @...    ADC      r0,r0,#0
        0x08007020:    eb180b0e    ....    ADDS     r11,r8,lr
        0x08007024:    eb580800    X...    ADCS     r8,r8,r0
        0x08007028:    f1400000    @...    ADC      r0,r0,#0
        0x0800702c:    1a8f        ..      SUBS     r7,r1,r2
        0x0800702e:    f04f0100    O...    MOV      r1,#0
        0x08007032:    f04f0600    O...    MOV      r6,#0
        0x08007036:    bf3c        <.      ITT      CC
        0x08007038:    43c9        .C      MVNCC    r1,r1
        0x0800703a:    1b66        f.      SUBCC    r6,r4,r5
        0x0800703c:    bf14        ..      ITE      NE
        0x0800703e:    ebb50c04    ....    SUBSNE   r12,r5,r4
        0x08007042:    2100        .!      MOVEQ    r1,#0
        0x08007044:    bf3c        <.      ITT      CC
        0x08007046:    43c9        .C      MVNCC    r1,r1
        0x08007048:    1bf6        ..      SUBCC    r6,r6,r7
        0x0800704a:    ea4f4417    O..D    LSR      r4,r7,#16
        0x0800704e:    ea274504    '..E    BIC      r5,r7,r4,LSL #16
        0x08007052:    ea4f471c    O..G    LSR      r7,r12,#16
        0x08007056:    ea2c4c07    ,..L    BIC      r12,r12,r7,LSL #16
        0x0800705a:    fb046207    ...b    MLA      r2,r4,r7,r6
        0x0800705e:    fb05f707    ....    MUL      r7,r5,r7
        0x08007062:    fb0cf605    ....    MUL      r6,r12,r5
        0x08007066:    eb164607    ...F    ADDS     r6,r6,r7,LSL #16
        0x0800706a:    eb424217    B..B    ADC      r2,r2,r7,LSR #16
        0x0800706e:    fb04fc0c    ....    MUL      r12,r4,r12
        0x08007072:    eb16460c    ...F    ADDS     r6,r6,r12,LSL #16
        0x08007076:    eb42421c    B..B    ADC      r2,r2,r12,LSR #16
        0x0800707a:    eb1b0606    ....    ADDS     r6,r11,r6
        0x0800707e:    eb580202    X...    ADCS     r2,r8,r2
        0x08007082:    4141        AA      ADCS     r1,r1,r0
        0x08007084:    ea4e0e8e    N...    ORR      lr,lr,lr,LSL #2
        0x08007088:    ea46069e    F...    ORR      r6,r6,lr,LSR #2
        0x0800708c:    d501        ..      BPL      0x8007092 ; __btod_mult_common + 266
        0x0800708e:    e8bd8901    ....    POP      {r0,r8,r11,pc}
        0x08007092:    19b6        ..      ADDS     r6,r6,r6
        0x08007094:    4152        RA      ADCS     r2,r2,r2
        0x08007096:    eb410101    A...    ADC      r1,r1,r1
        0x0800709a:    f1a30301    ....    SUB      r3,r3,#1
        0x0800709e:    e8bd8901    ....    POP      {r0,r8,r11,pc}
        0x080070a2:    ea4f4514    O..E    LSR      r5,r4,#16
        0x080070a6:    ea244605    $..F    BIC      r6,r4,r5,LSL #16
        0x080070aa:    ea4f4711    O..G    LSR      r7,r1,#16
        0x080070ae:    ea214c07    !..L    BIC      r12,r1,r7,LSL #16
        0x080070b2:    fb05f407    ....    MUL      r4,r5,r7
        0x080070b6:    fb06f707    ....    MUL      r7,r6,r7
        0x080070ba:    fb0cf106    ....    MUL      r1,r12,r6
        0x080070be:    eb114107    ...A    ADDS     r1,r1,r7,LSL #16
        0x080070c2:    eb444417    D..D    ADC      r4,r4,r7,LSR #16
        0x080070c6:    fb05fc0c    ....    MUL      r12,r5,r12
        0x080070ca:    eb11410c    ...A    ADDS     r1,r1,r12,LSL #16
        0x080070ce:    eb44441c    D..D    ADC      r4,r4,r12,LSR #16
        0x080070d2:    ea4f4712    O..G    LSR      r7,r2,#16
        0x080070d6:    ea224c07    "..L    BIC      r12,r2,r7,LSL #16
        0x080070da:    fb05f207    ....    MUL      r2,r5,r7
        0x080070de:    fb06f707    ....    MUL      r7,r6,r7
        0x080070e2:    fb0cf606    ....    MUL      r6,r12,r6
        0x080070e6:    eb164607    ...F    ADDS     r6,r6,r7,LSL #16
        0x080070ea:    eb424217    B..B    ADC      r2,r2,r7,LSR #16
        0x080070ee:    fb05fc0c    ....    MUL      r12,r5,r12
        0x080070f2:    eb16460c    ...F    ADDS     r6,r6,r12,LSL #16
        0x080070f6:    eb42451c    B..E    ADC      r5,r2,r12,LSR #16
        0x080070fa:    186a        j.      ADDS     r2,r5,r1
        0x080070fc:    f1540100    T...    ADCS     r1,r4,#0
        0x08007100:    bf48        H.      IT       MI
        0x08007102:    4770        pG      BXMI     lr
        0x08007104:    19b6        ..      ADDS     r6,r6,r6
        0x08007106:    4152        RA      ADCS     r2,r2,r2
        0x08007108:    eb410101    A...    ADC      r1,r1,r1
        0x0800710c:    f1a30301    ....    SUB      r3,r3,#1
        0x08007110:    4770        pG      BX       lr
        0x08007112:    f0950f00    ....    TEQ      r5,#0
        0x08007116:    d037        7.      BEQ      0x8007188 ; __btod_mult_common + 512
        0x08007118:    ea4f4211    O..B    LSR      r2,r1,#16
        0x0800711c:    ea214602    !..F    BIC      r6,r1,r2,LSL #16
        0x08007120:    ea4f4714    O..G    LSR      r7,r4,#16
        0x08007124:    ea244c07    $..L    BIC      r12,r4,r7,LSL #16
        0x08007128:    fb02f107    ....    MUL      r1,r2,r7
        0x0800712c:    fb06f707    ....    MUL      r7,r6,r7
        0x08007130:    fb0cf406    ....    MUL      r4,r12,r6
        0x08007134:    eb144407    ...D    ADDS     r4,r4,r7,LSL #16
        0x08007138:    eb414117    A..A    ADC      r1,r1,r7,LSR #16
        0x0800713c:    fb02fc0c    ....    MUL      r12,r2,r12
        0x08007140:    eb14440c    ...D    ADDS     r4,r4,r12,LSL #16
        0x08007144:    eb41411c    A..A    ADC      r1,r1,r12,LSR #16
        0x08007148:    ea4f4715    O..G    LSR      r7,r5,#16
        0x0800714c:    ea254c07    %..L    BIC      r12,r5,r7,LSL #16
        0x08007150:    fb02f507    ....    MUL      r5,r2,r7
        0x08007154:    fb06f707    ....    MUL      r7,r6,r7
        0x08007158:    fb0cf606    ....    MUL      r6,r12,r6
        0x0800715c:    eb164607    ...F    ADDS     r6,r6,r7,LSL #16
        0x08007160:    eb454517    E..E    ADC      r5,r5,r7,LSR #16
        0x08007164:    fb02fc0c    ....    MUL      r12,r2,r12
        0x08007168:    eb16460c    ...F    ADDS     r6,r6,r12,LSL #16
        0x0800716c:    eb45421c    E..B    ADC      r2,r5,r12,LSR #16
        0x08007170:    1912        ..      ADDS     r2,r2,r4
        0x08007172:    f1510100    Q...    ADCS     r1,r1,#0
        0x08007176:    bf48        H.      IT       MI
        0x08007178:    4770        pG      BXMI     lr
        0x0800717a:    19b6        ..      ADDS     r6,r6,r6
        0x0800717c:    4152        RA      ADCS     r2,r2,r2
        0x0800717e:    eb410101    A...    ADC      r1,r1,r1
        0x08007182:    f1a30301    ....    SUB      r3,r3,#1
        0x08007186:    4770        pG      BX       lr
        0x08007188:    ea4f4514    O..E    LSR      r5,r4,#16
        0x0800718c:    ea244605    $..F    BIC      r6,r4,r5,LSL #16
        0x08007190:    ea4f4711    O..G    LSR      r7,r1,#16
        0x08007194:    ea214c07    !..L    BIC      r12,r1,r7,LSL #16
        0x08007198:    fb05f107    ....    MUL      r1,r5,r7
        0x0800719c:    fb06f707    ....    MUL      r7,r6,r7
        0x080071a0:    fb0cf206    ....    MUL      r2,r12,r6
        0x080071a4:    eb124207    ...B    ADDS     r2,r2,r7,LSL #16
        0x080071a8:    eb414117    A..A    ADC      r1,r1,r7,LSR #16
        0x080071ac:    fb05fc0c    ....    MUL      r12,r5,r12
        0x080071b0:    eb12420c    ...B    ADDS     r2,r2,r12,LSL #16
        0x080071b4:    eb51411c    Q..A    ADCS     r1,r1,r12,LSR #16
        0x080071b8:    f04f0600    O...    MOV      r6,#0
        0x080071bc:    bf48        H.      IT       MI
        0x080071be:    4770        pG      BXMI     lr
        0x080071c0:    1892        ..      ADDS     r2,r2,r2
        0x080071c2:    eb410101    A...    ADC      r1,r1,r1
        0x080071c6:    f1a30301    ....    SUB      r3,r3,#1
        0x080071ca:    4770        pG      BX       lr
    OSKERNEL
    $v0
    HardFault_Handler
        0x080071cc:    f01e0f04    ....    TST      lr,#4
        0x080071d0:    bf0c        ..      ITE      EQ
        0x080071d2:    f3ef8008    ....    MRSEQ    r0,MSP
        0x080071d6:    f3ef8009    ....    MRSNE    r0,PSP
        0x080071da:    f7fbbaaf    ....    B        HardFaultHandler ; 0x800273c
    i.__ARM_fpclassify
    __ARM_fpclassify
        0x080071de:    b403        ..      PUSH     {r0,r1}
        0x080071e0:    9801        ..      LDR      r0,[sp,#4]
        0x080071e2:    0041        A.      LSLS     r1,r0,#1
        0x080071e4:    9800        ..      LDR      r0,[sp,#0]
        0x080071e6:    ea5020c1    P..     ORRS     r0,r0,r1,LSL #11
        0x080071ea:    bf18        ..      IT       NE
        0x080071ec:    2004        .       MOVNE    r0,#4
        0x080071ee:    0d4a        J.      LSRS     r2,r1,#21
        0x080071f0:    bf18        ..      IT       NE
        0x080071f2:    f0400001    @...    ORRNE    r0,r0,#1
        0x080071f6:    f24072ff    @..r    MOV      r2,#0x7ff
        0x080071fa:    ebb25f51    ..Q_    CMP      r2,r1,LSR #21
        0x080071fe:    bf08        ..      IT       EQ
        0x08007200:    f0400002    @...    ORREQ    r0,r0,#2
        0x08007204:    2801        .(      CMP      r0,#1
        0x08007206:    bf08        ..      IT       EQ
        0x08007208:    2005        .       MOVEQ    r0,#5
        0x0800720a:    b002        ..      ADD      sp,sp,#8
        0x0800720c:    4770        pG      BX       lr
    i.__hardfp_sqrt
    __hardfp_sqrt
        0x0800720e:    b500        ..      PUSH     {lr}
        0x08007210:    ed2d8b04    -...    VPUSH    {d8-d9}
        0x08007214:    eeb09a40    ..@.    VMOV.F32 s18,s0
        0x08007218:    eef09a60    ..`.    VMOV.F32 s19,s1
        0x0800721c:    b083        ..      SUB      sp,sp,#0xc
        0x0800721e:    ec510b19    Q...    VMOV     r0,r1,d9
        0x08007222:    f000fbad    ....    BL       _dsqrt ; 0x8007980
        0x08007226:    ec410b18    A...    VMOV     d8,r0,r1
        0x0800722a:    ee180a10    ....    VMOV     r0,s16
        0x0800722e:    ee181a90    ....    VMOV     r1,s17
        0x08007232:    ed8d8b00    ....    VSTR     d8,[sp,#0]
        0x08007236:    2800        .(      CMP      r0,#0
        0x08007238:    bf18        ..      IT       NE
        0x0800723a:    2001        .       MOVNE    r0,#1
        0x0800723c:    4308        .C      ORRS     r0,r0,r1
        0x0800723e:    f0204000     ..@    BIC      r0,r0,#0x80000000
        0x08007242:    f1c0607f    ...`    RSB      r0,r0,#0xff00000
        0x08007246:    f10040e0    ...@    ADD      r0,r0,#0x70000000
        0x0800724a:    0fc0        ..      LSRS     r0,r0,#31
        0x0800724c:    d014        ..      BEQ      0x8007278 ; __hardfp_sqrt + 106
        0x0800724e:    ee191a10    ....    VMOV     r1,s18
        0x08007252:    ee190a90    ....    VMOV     r0,s19
        0x08007256:    ed8d9b00    ....    VSTR     d9,[sp,#0]
        0x0800725a:    2900        .)      CMP      r1,#0
        0x0800725c:    bf18        ..      IT       NE
        0x0800725e:    2101        .!      MOVNE    r1,#1
        0x08007260:    4308        .C      ORRS     r0,r0,r1
        0x08007262:    f0204000     ..@    BIC      r0,r0,#0x80000000
        0x08007266:    f1c0607f    ...`    RSB      r0,r0,#0xff00000
        0x0800726a:    f10040e0    ...@    ADD      r0,r0,#0x70000000
        0x0800726e:    0fc0        ..      LSRS     r0,r0,#31
        0x08007270:    bf04        ..      ITT      EQ
        0x08007272:    2001        .       MOVEQ    r0,#1
        0x08007274:    f7f9fb91    ....    BLEQ     __set_errno ; 0x800099a
        0x08007278:    eeb00a48    ..H.    VMOV.F32 s0,s16
        0x0800727c:    b003        ..      ADD      sp,sp,#0xc
        0x0800727e:    eef00a68    ..h.    VMOV.F32 s1,s17
        0x08007282:    ecbd8b04    ....    VPOP     {d8-d9}
        0x08007286:    bd00        ..      POP      {pc}
    i._is_digit
    _is_digit
        0x08007288:    3830        08      SUBS     r0,r0,#0x30
        0x0800728a:    280a        .(      CMP      r0,#0xa
        0x0800728c:    d201        ..      BCS      0x8007292 ; _is_digit + 10
        0x0800728e:    2001        .       MOVS     r0,#1
        0x08007290:    4770        pG      BX       lr
        0x08007292:    2000        .       MOVS     r0,#0
        0x08007294:    4770        pG      BX       lr
        0x08007296:    0000        ..      MOVS     r0,r0
    locale$$code
    _get_lc_ctype
        0x08007298:    b510        ..      PUSH     {r4,lr}
        0x0800729a:    2900        .)      CMP      r1,#0
        0x0800729c:    d00a        ..      BEQ      0x80072b4 ; _get_lc_ctype + 28
        0x0800729e:    7808        .x      LDRB     r0,[r1,#0]
        0x080072a0:    2800        .(      CMP      r0,#0
        0x080072a2:    d007        ..      BEQ      0x80072b4 ; _get_lc_ctype + 28
        0x080072a4:    4805        .H      LDR      r0,[pc,#20] ; [0x80072bc] = 0x12f6
        0x080072a6:    4478        xD      ADD      r0,r0,pc
        0x080072a8:    f7f9f962    ..b.    BL       strcmp ; 0x8000570
        0x080072ac:    2800        .(      CMP      r0,#0
        0x080072ae:    d001        ..      BEQ      0x80072b4 ; _get_lc_ctype + 28
        0x080072b0:    2000        .       MOVS     r0,#0
        0x080072b2:    bd10        ..      POP      {r4,pc}
        0x080072b4:    4802        .H      LDR      r0,[pc,#8] ; [0x80072c0] = 0x12ee
        0x080072b6:    4478        xD      ADD      r0,r0,pc
        0x080072b8:    bd10        ..      POP      {r4,pc}
    $d
        0x080072ba:    0000        ..      DCW    0
        0x080072bc:    000012f6    ....    DCD    4854
        0x080072c0:    000012ee    ....    DCD    4846
    $t
    locale$$code
    _get_lc_time
        0x080072c4:    b510        ..      PUSH     {r4,lr}
        0x080072c6:    2900        .)      CMP      r1,#0
        0x080072c8:    d00a        ..      BEQ      0x80072e0 ; _get_lc_time + 28
        0x080072ca:    7808        .x      LDRB     r0,[r1,#0]
        0x080072cc:    2800        .(      CMP      r0,#0
        0x080072ce:    d007        ..      BEQ      0x80072e0 ; _get_lc_time + 28
        0x080072d0:    4805        .H      LDR      r0,[pc,#20] ; [0x80072e8] = 0x13da
        0x080072d2:    4478        xD      ADD      r0,r0,pc
        0x080072d4:    f7f9f94c    ..L.    BL       strcmp ; 0x8000570
        0x080072d8:    2800        .(      CMP      r0,#0
        0x080072da:    d001        ..      BEQ      0x80072e0 ; _get_lc_time + 28
        0x080072dc:    2000        .       MOVS     r0,#0
        0x080072de:    bd10        ..      POP      {r4,pc}
        0x080072e0:    4802        .H      LDR      r0,[pc,#8] ; [0x80072ec] = 0x13d2
        0x080072e2:    4478        xD      ADD      r0,r0,pc
        0x080072e4:    bd10        ..      POP      {r4,pc}
    $d
        0x080072e6:    0000        ..      DCW    0
        0x080072e8:    000013da    ....    DCD    5082
        0x080072ec:    000013d2    ....    DCD    5074
    $t
    locale$$code
    _get_lc_numeric
        0x080072f0:    b510        ..      PUSH     {r4,lr}
        0x080072f2:    2900        .)      CMP      r1,#0
        0x080072f4:    d00a        ..      BEQ      0x800730c ; _get_lc_numeric + 28
        0x080072f6:    7808        .x      LDRB     r0,[r1,#0]
        0x080072f8:    2800        .(      CMP      r0,#0
        0x080072fa:    d007        ..      BEQ      0x800730c ; _get_lc_numeric + 28
        0x080072fc:    4805        .H      LDR      r0,[pc,#20] ; [0x8007314] = 0x152e
        0x080072fe:    4478        xD      ADD      r0,r0,pc
        0x08007300:    f7f9f936    ..6.    BL       strcmp ; 0x8000570
        0x08007304:    2800        .(      CMP      r0,#0
        0x08007306:    d001        ..      BEQ      0x800730c ; _get_lc_numeric + 28
        0x08007308:    2000        .       MOVS     r0,#0
        0x0800730a:    bd10        ..      POP      {r4,pc}
        0x0800730c:    4802        .H      LDR      r0,[pc,#8] ; [0x8007318] = 0x1526
        0x0800730e:    4478        xD      ADD      r0,r0,pc
        0x08007310:    bd10        ..      POP      {r4,pc}
    $d
        0x08007312:    0000        ..      DCW    0
        0x08007314:    0000152e    ....    DCD    5422
        0x08007318:    00001526    &...    DCD    5414
    $t
    x$fpl$d2f
    $v0
    __aeabi_d2f
    _d2f
        0x0800731c:    f0214200    !..B    BIC      r2,r1,#0x80000000
        0x08007320:    f0014300    ...C    AND      r3,r1,#0x80000000
        0x08007324:    f1a25260    ..`R    SUB      r2,r2,#0x38000000
        0x08007328:    f5b21f80    ....    CMP      r2,#0x100000
        0x0800732c:    bf28        (.      IT       CS
        0x0800732e:    f1d26c7f    ...l    RSBSCS   r12,r2,#0xff00000
        0x08007332:    d90b        ..      BLS      0x800734c ; __aeabi_d2f + 48
        0x08007334:    ea5f1c00    _...    LSLS     r12,r0,#4
        0x08007338:    ea4302c2    C...    ORR      r2,r3,r2,LSL #3
        0x0800733c:    eb427050    B.Pp    ADC      r0,r2,r0,LSR #29
        0x08007340:    bf18        ..      IT       NE
        0x08007342:    4770        pG      BXNE     lr
        0x08007344:    bf28        (.      IT       CS
        0x08007346:    f0200001     ...    BICCS    r0,r0,#1
        0x0800734a:    4770        pG      BX       lr
        0x0800734c:    f5b21f80    ....    CMP      r2,#0x100000
        0x08007350:    bfbc        ..      ITT      LT
        0x08007352:    4618        .F      MOVLT    r0,r3
        0x08007354:    4770        pG      BXLT     lr
        0x08007356:    ea4f0c41    O.A.    LSL      r12,r1,#1
        0x0800735a:    f51c1f00    ....    CMN      r12,#0x200000
        0x0800735e:    d202        ..      BCS      0x8007366 ; __aeabi_d2f + 74
        0x08007360:    4608        .F      MOV      r0,r1
        0x08007362:    f000bd45    ..E.    B.W      __fpl_fretinf ; 0x8007df0
        0x08007366:    b570        p.      PUSH     {r4-r6,lr}
        0x08007368:    f000fab6    ....    BL       __fpl_dnaninf ; 0x80078d8
    $d
        0x0800736c:    89000000    ....    DCD    2298478592
    $t
        0x08007370:    f7ffbff6    ....    B.W      0x8007360 ; __aeabi_d2f + 68
        0x08007374:    f04f4000    O..@    MOV      r0,#0x80000000
        0x08007378:    f5a00080    ....    SUB      r0,r0,#0x400000
        0x0800737c:    4770        pG      BX       lr
        0x0800737e:    0000        ..      MOVS     r0,r0
    x$fpl$dadd
    $v0
    __aeabi_dadd
    _dadd
        0x08007380:    b510        ..      PUSH     {r4,lr}
        0x08007382:    ea910f03    ....    TEQ      r1,r3
        0x08007386:    bf48        H.      IT       MI
        0x08007388:    f0834300    ...C    EORMI    r3,r3,#0x80000000
        0x0800738c:    f10083cc    ....    BMI.W    _dsub1 ; 0x8007b28
    _dadd1
        0x08007390:    1a84        ..      SUBS     r4,r0,r2
        0x08007392:    eb710c03    q...    SBCS     r12,r1,r3
        0x08007396:    d205        ..      BCS      0x80073a4 ; _dadd1 + 20
        0x08007398:    1912        ..      ADDS     r2,r2,r4
        0x0800739a:    eb43030c    C...    ADC      r3,r3,r12
        0x0800739e:    1b00        ..      SUBS     r0,r0,r4
        0x080073a0:    eb61010c    a...    SBC      r1,r1,r12
        0x080073a4:    ea4f5411    O..T    LSR      r4,r1,#20
        0x080073a8:    eba45c13    ...\    SUB      r12,r4,r3,LSR #20
        0x080073ac:    f8dfe11c    ....    LDR      lr,[pc,#284] ; [0x80074cc] = 0xffe00000
        0x080073b0:    ea1e0f43    ..C.    TST      lr,r3,LSL #1
        0x080073b4:    bf18        ..      IT       NE
        0x080073b6:    ea9e5f44    ..D_    TEQNE    lr,r4,LSL #21
        0x080073ba:    f0008074    ..t.    BEQ.W    0x80074a6 ; _dadd1 + 278
        0x080073be:    ea215104    !..Q    BIC      r1,r1,r4,LSL #20
        0x080073c2:    ea23030e    #...    BIC      r3,r3,lr
        0x080073c6:    f4431380    C...    ORR      r3,r3,#0x100000
        0x080073ca:    f1dc0e20    .. .    RSBS     lr,r12,#0x20
        0x080073ce:    d332        2.      BCC      0x8007436 ; _dadd1 + 166
        0x080073d0:    fa22fe0c    "...    LSR      lr,r2,r12
        0x080073d4:    eb10000e    ....    ADDS     r0,r0,lr
        0x080073d8:    fa23fe0c    #...    LSR      lr,r3,r12
        0x080073dc:    eb41010e    A...    ADC      r1,r1,lr
        0x080073e0:    f1cc0e20    .. .    RSB      lr,r12,#0x20
        0x080073e4:    fa03fe0e    ....    LSL      lr,r3,lr
        0x080073e8:    eb10000e    ....    ADDS     r0,r0,lr
        0x080073ec:    f1cc0e20    .. .    RSB      lr,r12,#0x20
        0x080073f0:    f1510100    Q...    ADCS     r1,r1,#0
        0x080073f4:    f5b11f80    ....    CMP      r1,#0x100000
        0x080073f8:    d232        2.      BCS      0x8007460 ; _dadd1 + 208
        0x080073fa:    eb015104    ...Q    ADD      r1,r1,r4,LSL #20
        0x080073fe:    fa12f20e    ....    LSLS     r2,r2,lr
        0x08007402:    e8bd4010    ...@    POP      {r4,lr}
        0x08007406:    bf58        X.      IT       PL
        0x08007408:    4770        pG      BXPL     lr
        0x0800740a:    1c40        @.      ADDS     r0,r0,#1
        0x0800740c:    bf38        8.      IT       CC
        0x0800740e:    ea5f0242    _.B.    LSLSCC   r2,r2,#1
        0x08007412:    bf18        ..      IT       NE
        0x08007414:    4770        pG      BXNE     lr
        0x08007416:    2800        .(      CMP      r0,#0
        0x08007418:    bf14        ..      ITE      NE
        0x0800741a:    f0200001     ...    BICNE    r0,r0,#1
        0x0800741e:    f1410100    A...    ADCEQ    r1,r1,#0
        0x08007422:    ea4f0341    O.A.    LSL      r3,r1,#1
        0x08007426:    f5131f00    ....    CMN      r3,#0x200000
        0x0800742a:    bf38        8.      IT       CC
        0x0800742c:    4770        pG      BXCC     lr
        0x0800742e:    f1a141c0    ...A    SUB      r1,r1,#0x60000000
        0x08007432:    f000ba9f    ....    B.W      __fpl_dretinf ; 0x8007974
        0x08007436:    2a01        .*      CMP      r2,#1
        0x08007438:    eb430203    C...    ADC      r2,r3,r3
        0x0800743c:    f1ac0c20    .. .    SUB      r12,r12,#0x20
        0x08007440:    f1dc0e1f    ....    RSBS     lr,r12,#0x1f
        0x08007444:    bf32        2.      ITEE     CC
        0x08007446:    f04f0e00    O...    MOVCC    lr,#0
        0x0800744a:    fa23f30c    #...    LSRCS    r3,r3,r12
        0x0800744e:    eb100003    ....    ADDSCS   r0,r0,r3
        0x08007452:    eb415104    A..Q    ADC      r1,r1,r4,LSL #20
        0x08007456:    ebb45f11    ..._    CMP      r4,r1,LSR #20
        0x0800745a:    d0d0        ..      BEQ      0x80073fe ; _dadd1 + 110
        0x0800745c:    eba15104    ...Q    SUB      r1,r1,r4,LSL #20
        0x08007460:    f5011180    ....    ADD      r1,r1,#0x100000
        0x08007464:    0849        I.      LSRS     r1,r1,#1
        0x08007466:    eb015104    ...Q    ADD      r1,r1,r4,LSL #20
        0x0800746a:    ea5f0030    _.0.    RRXS     r0,r0
        0x0800746e:    d30e        ..      BCC      0x800748e ; _dadd1 + 254
        0x08007470:    f1500000    P...    ADCS     r0,r0,#0
        0x08007474:    bf38        8.      IT       CC
        0x08007476:    fa12fe0e    ....    LSLSCC   lr,r2,lr
        0x0800747a:    d108        ..      BNE      0x800748e ; _dadd1 + 254
        0x0800747c:    e8bd4010    ...@    POP      {r4,lr}
        0x08007480:    e7c9        ..      B        0x8007416 ; _dadd1 + 134
        0x08007482:    1c40        @.      ADDS     r0,r0,#1
        0x08007484:    bf38        8.      IT       CC
        0x08007486:    ea5f0242    _.B.    LSLSCC   r2,r2,#1
        0x0800748a:    d1ca        ..      BNE      0x8007422 ; _dadd1 + 146
        0x0800748c:    e7c3        ..      B        0x8007416 ; _dadd1 + 134
        0x0800748e:    e8bd4010    ...@    POP      {r4,lr}
        0x08007492:    ea4f0341    O.A.    LSL      r3,r1,#1
        0x08007496:    f5131f00    ....    CMN      r3,#0x200000
        0x0800749a:    bf38        8.      IT       CC
        0x0800749c:    4770        pG      BXCC     lr
        0x0800749e:    f1a141c0    ...A    SUB      r1,r1,#0x60000000
        0x080074a2:    f000ba67    ..g.    B.W      __fpl_dretinf ; 0x8007974
        0x080074a6:    ea9e5f44    ..D_    TEQ      lr,r4,LSL #21
        0x080074aa:    d008        ..      BEQ      0x80074be ; _dadd1 + 302
        0x080074ac:    ea110f5e    ..^.    TST      r1,lr,LSR #1
        0x080074b0:    e8bd4010    ...@    POP      {r4,lr}
        0x080074b4:    bf04        ..      ITT      EQ
        0x080074b6:    f0014100    ...A    ANDEQ    r1,r1,#0x80000000
        0x080074ba:    2000        .       MOVEQ    r0,#0
        0x080074bc:    4770        pG      BX       lr
        0x080074be:    e8bd4010    ...@    POP      {r4,lr}
        0x080074c2:    b570        p.      PUSH     {r4-r6,lr}
        0x080074c4:    f000fa08    ....    BL       __fpl_dnaninf ; 0x80078d8
    $d
        0x080074c8:    3ebefb64    d..>    DCD    1052703588
        0x080074cc:    ffe00000    ....    DCD    4292870144
    $t
    x$fpl$ddiv
    $v0
    __aeabi_ddiv
    _ddiv
        0x080074d0:    e92d41c0    -..A    PUSH     {r6-r8,lr}
        0x080074d4:    b430        0.      PUSH     {r4,r5}
    ddiv_entry
        0x080074d6:    f8dfc2a4    ....    LDR      r12,[pc,#676] ; [0x800777c] = 0x7ff0000
        0x080074da:    ea3c1411    <...    BICS     r4,r12,r1,LSR #4
        0x080074de:    bf18        ..      IT       NE
        0x080074e0:    ea3c1413    <...    BICSNE   r4,r12,r3,LSR #4
        0x080074e4:    f00080ed    ....    BEQ.W    0x80076c2 ; ddiv_entry + 492
        0x080074e8:    ea1c1411    ....    ANDS     r4,r12,r1,LSR #4
        0x080074ec:    ea810503    ....    EOR      r5,r1,r3
        0x080074f0:    ea4474d5    D..t    ORR      r4,r4,r5,LSR #31
        0x080074f4:    bf18        ..      IT       NE
        0x080074f6:    ea1c1513    ....    ANDSNE   r5,r12,r3,LSR #4
        0x080074fa:    f00080c8    ....    BEQ.W    0x800768e ; ddiv_entry + 440
        0x080074fe:    eba40405    ....    SUB      r4,r4,r5
        0x08007502:    f104747f    ...t    ADD      r4,r4,#0x3fc0000
        0x08007506:    f5043400    ...4    ADD      r4,r4,#0x20000
        0x0800750a:    f04f4500    O..E    MOV      r5,#0x80000000
        0x0800750e:    ea4521c1    E..!    ORR      r1,r5,r1,LSL #11
        0x08007512:    ea4523c3    E..#    ORR      r3,r5,r3,LSL #11
        0x08007516:    ea415150    A.PQ    ORR      r1,r1,r0,LSR #21
        0x0800751a:    ea435352    C.RS    ORR      r3,r3,r2,LSR #21
        0x0800751e:    ea4f20c0    O..     LSL      r0,r0,#11
        0x08007522:    ea4f22c2    O.."    LSL      r2,r2,#11
        0x08007526:    4299        .B      CMP      r1,r3
        0x08007528:    bf08        ..      IT       EQ
        0x0800752a:    4290        .B      CMPEQ    r0,r2
        0x0800752c:    f000809d    ....    BEQ.W    0x800766a ; ddiv_entry + 404
        0x08007530:    ea4f6513    O..e    LSR      r5,r3,#24
        0x08007534:    f20f1644    ..D.    ADR.W    r6,{pc}+0x148 ; 0x800767c
        0x08007538:    5d76        v]      LDRB     r6,[r6,r5]
        0x0800753a:    ea4f4513    O..E    LSR      r5,r3,#16
        0x0800753e:    fb06f705    ....    MUL      r7,r6,r5
        0x08007542:    f1c77780    ...w    RSB      r7,r7,#0x1000000
        0x08007546:    fb06f707    ....    MUL      r7,r6,r7
        0x0800754a:    ea4f37d7    O..7    LSR      r7,r7,#15
        0x0800754e:    fba76803    ...h    UMULL    r6,r8,r7,r3
        0x08007552:    4276        vB      RSBS     r6,r6,#0
        0x08007554:    fba7ce06    ....    UMULL    r12,lr,r7,r6
        0x08007558:    f5c83880    ...8    RSB      r8,r8,#0x10000
        0x0800755c:    bf38        8.      IT       CC
        0x0800755e:    f1a80801    ....    SUBCC    r8,r8,#1
        0x08007562:    fb07e608    ....    MLA      r6,r7,r8,lr
        0x08007566:    fba68c02    ....    UMULL    r8,r12,r6,r2
        0x0800756a:    f04f0e00    O...    MOV      lr,#0
        0x0800756e:    fbe6ce03    ....    UMLAL    r12,lr,r6,r3
        0x08007572:    f1dc0c00    ....    RSBS     r12,r12,#0
        0x08007576:    f1ce4e00    ...N    RSB      lr,lr,#0x80000000
        0x0800757a:    bf38        8.      IT       CC
        0x0800757c:    f1ae0e01    ....    SUBCC    lr,lr,#1
        0x08007580:    fba6580c    ...X    UMULL    r5,r8,r6,r12
        0x08007584:    f04f0700    O...    MOV      r7,#0
        0x08007588:    fbe6870e    ....    UMLAL    r8,r7,r6,lr
        0x0800758c:    fba1c608    ....    UMULL    r12,r6,r1,r8
        0x08007590:    fba0ce07    ....    UMULL    r12,lr,r0,r7
        0x08007594:    eb16060e    ....    ADDS     r6,r6,lr
        0x08007598:    f04f0500    O...    MOV      r5,#0
        0x0800759c:    f1450500    E...    ADC      r5,r5,#0
        0x080075a0:    fbe16507    ...e    UMLAL    r6,r5,r1,r7
        0x080075a4:    f1154ee0    ...N    ADDS     lr,r5,#0x70000000
        0x080075a8:    bf7e        ~.      ITTT     VC
        0x080075aa:    f5a43480    ...4    SUBVC    r4,r4,#0x10000
        0x080075ae:    ea5f0646    _.F.    LSLSVC   r6,r6,#1
        0x080075b2:    416d        mA      ADCVC    r5,r5,r5
        0x080075b4:    f1160780    ....    ADDS     r7,r6,#0x80
        0x080075b8:    f1450500    E...    ADC      r5,r5,#0
        0x080075bc:    ea4f2717    O..'    LSR      r7,r7,#8
        0x080075c0:    ea476705    G..g    ORR      r7,r7,r5,LSL #24
        0x080075c4:    ea4f2515    O..%    LSR      r5,r5,#8
        0x080075c8:    ea4f6606    O..f    LSL      r6,r6,#24
        0x080075cc:    f1a646de    ...F    SUB      r6,r6,#0x6f000000
        0x080075d0:    f1b65f80    ..._    CMP      r6,#0x10000000
        0x080075d4:    d920         .      BLS      0x8007618 ; ddiv_entry + 322
        0x080075d6:    4638        8F      MOV      r0,r7
        0x080075d8:    eb0571c4    ...q    ADD      r1,r5,r4,LSL #31
        0x080075dc:    f0240c01    $...    BIC      r12,r4,#1
        0x080075e0:    eb01110c    ....    ADD      r1,r1,r12,LSL #4
        0x080075e4:    f1bc6ffe    ...o    CMP      r12,#0x7f00000
        0x080075e8:    d802        ..      BHI      0x80075f0 ; ddiv_entry + 282
        0x080075ea:    bcf0        ..      POP      {r4-r7}
        0x080075ec:    e8bd8100    ....    POP      {r8,pc}
        0x080075f0:    4224        $B      TST      r4,r4
        0x080075f2:    bf5c        \.      ITT      PL
        0x080075f4:    f5011e80    ....    ADDPL    lr,r1,#0x100000
        0x080075f8:    ea9e7fc4    ....    TEQPL    lr,r4,LSL #31
        0x080075fc:    d402        ..      BMI      0x8007604 ; ddiv_entry + 302
        0x080075fe:    bcf0        ..      POP      {r4-r7}
        0x08007600:    e8bd8100    ....    POP      {r8,pc}
        0x08007604:    4224        $B      TST      r4,r4
        0x08007606:    f1008039    ..9.    BMI.W    0x800767c ; ddiv_entry + 422
        0x0800760a:    f1a141c0    ...A    SUB      r1,r1,#0x60000000
        0x0800760e:    bcf0        ..      POP      {r4-r7}
        0x08007610:    e8bd4100    ...A    POP      {r8,lr}
        0x08007614:    f000b9ae    ....    B.W      __fpl_dretinf ; 0x8007974
        0x08007618:    ea4f20d0    O..     LSR      r0,r0,#11
        0x0800761c:    ea405041    @.AP    ORR      r0,r0,r1,LSL #21
        0x08007620:    ea4f21d1    O..!    LSR      r1,r1,#11
        0x08007624:    ea4f22d2    O.."    LSR      r2,r2,#11
        0x08007628:    ea425243    B.CR    ORR      r2,r2,r3,LSL #21
        0x0800762c:    ea4f23d3    O..#    LSR      r3,r3,#11
        0x08007630:    fba78602    ....    UMULL    r8,r6,r7,r2
        0x08007634:    fb076603    ...f    MLA      r6,r7,r3,r6
        0x08007638:    fb056602    ...f    MLA      r6,r5,r2,r6
        0x0800763c:    ea1e0f0e    ....    TST      lr,lr
        0x08007640:    bf58        X.      IT       PL
        0x08007642:    eba65600    ...V    SUBPL    r6,r6,r0,LSL #20
        0x08007646:    ebb65600    ...V    SUBS     r6,r6,r0,LSL #20
        0x0800764a:    ea4f0e52    O.R.    LSR      lr,r2,#1
        0x0800764e:    ea4e7ec3    N..~    ORR      lr,lr,r3,LSL #31
        0x08007652:    eb180e0e    ....    ADDS     lr,r8,lr
        0x08007656:    eb560e53    V.S.    ADCS     lr,r6,r3,LSR #1
        0x0800765a:    d5bc        ..      BPL      0x80075d6 ; ddiv_entry + 256
        0x0800765c:    eb180802    ....    ADDS     r8,r8,r2
        0x08007660:    415e        ^A      ADCS     r6,r6,r3
        0x08007662:    1c7f        ..      ADDS     r7,r7,#1
        0x08007664:    f1550500    U...    ADCS     r5,r5,#0
        0x08007668:    e7b5        ..      B        0x80075d6 ; ddiv_entry + 256
        0x0800766a:    f44f1580    O...    MOV      r5,#0x100000
        0x0800766e:    f04f0700    O...    MOV      r7,#0
        0x08007672:    f04f0600    O...    MOV      r6,#0
        0x08007676:    f04f0800    O...    MOV      r8,#0
        0x0800767a:    e7ac        ..      B        0x80075d6 ; ddiv_entry + 256
        0x0800767c:    f10141c0    ...A    ADD      r1,r1,#0x60000000
        0x08007680:    f0014100    ...A    AND      r1,r1,#0x80000000
        0x08007684:    f04f0000    O...    MOV      r0,#0
        0x08007688:    bcf0        ..      POP      {r4-r7}
        0x0800768a:    e8bd8100    ....    POP      {r8,pc}
        0x0800768e:    ea0c1513    ....    AND      r5,r12,r3,LSR #4
        0x08007692:    ea111f0c    ....    TST      r1,r12,LSL #4
        0x08007696:    d000        ..      BEQ      0x800769a ; ddiv_entry + 452
        0x08007698:    e00c        ..      B        0x80076b4 ; ddiv_entry + 478
        0x0800769a:    ea131f0c    ....    TST      r3,r12,LSL #4
        0x0800769e:    f0008026    ..&.    BEQ.W    0x80076ee ; ddiv_entry + 536
        0x080076a2:    f04f0000    O...    MOV      r0,#0
        0x080076a6:    ea810103    ....    EOR      r1,r1,r3
        0x080076aa:    f0014100    ...A    AND      r1,r1,#0x80000000
        0x080076ae:    bcf0        ..      POP      {r4-r7}
        0x080076b0:    e8bd8100    ....    POP      {r8,pc}
        0x080076b4:    bcf0        ..      POP      {r4-r7}
        0x080076b6:    e8bd4100    ...A    POP      {r8,lr}
        0x080076ba:    ea810103    ....    EOR      r1,r1,r3
        0x080076be:    f000b959    ..Y.    B.W      __fpl_dretinf ; 0x8007974
        0x080076c2:    bcf0        ..      POP      {r4-r7}
        0x080076c4:    e8bd4100    ...A    POP      {r8,lr}
        0x080076c8:    b570        p.      PUSH     {r4-r6,lr}
        0x080076ca:    f000f905    ....    BL       __fpl_dnaninf ; 0x80078d8
        0x080076ce:    bf00        ..      NOP      
    $d
        0x080076d0:    3efc7e09    .~.>    DCD    1056734729
    $t
        0x080076d4:    f000b807    ....    B.W      0x80076e6 ; ddiv_entry + 528
        0x080076d8:    f04f0000    O...    MOV      r0,#0
        0x080076dc:    ea810103    ....    EOR      r1,r1,r3
        0x080076e0:    f0014100    ...A    AND      r1,r1,#0x80000000
        0x080076e4:    4770        pG      BX       lr
        0x080076e6:    ea810103    ....    EOR      r1,r1,r3
        0x080076ea:    f000b943    ..C.    B.W      __fpl_dretinf ; 0x8007974
        0x080076ee:    bcf0        ..      POP      {r4-r7}
        0x080076f0:    e8bd4100    ...A    POP      {r8,lr}
        0x080076f4:    4922        "I      LDR      r1,[pc,#136] ; [0x8007780] = 0x7ff80000
        0x080076f6:    f04f0000    O...    MOV      r0,#0
        0x080076fa:    4770        pG      BX       lr
    $d
        0x080076fc:    f9fbfdff    ....    DCD    4194041343
        0x08007700:    f2f4f5f7    ....    DCD    4076140023
        0x08007704:    ebedeef0    ....    DCD    3958238960
        0x08007708:    e4e6e8e9    ....    DCD    3840338153
        0x0800770c:    dee0e1e3    ....    DCD    3739279843
        0x08007710:    d8dadbdd    ....    DCD    3638221789
        0x08007714:    d3d4d5d7    ....    DCD    3553940951
        0x08007718:    cdcfd0d1    ....    DCD    3452948689
        0x0800771c:    c8cacbcc    ....    DCD    3368733644
        0x08007720:    c4c5c6c7    ....    DCD    3301295815
        0x08007724:    bfc0c1c2    ....    DCD    3217080770
        0x08007728:    bbbcbdbe    ....    DCD    3149708734
        0x0800772c:    b7b8b9ba    ....    DCD    3082336698
        0x08007730:    b3b4b5b6    ....    DCD    3014964662
        0x08007734:    afb0b1b2    ....    DCD    2947592626
        0x08007738:    abacadae    ....    DCD    2880220590
        0x0800773c:    a8a8a9aa    ....    DCD    2829625770
        0x08007740:    a4a5a6a7    ....    DCD    2762319527
        0x08007744:    a1a2a3a3    ....    DCD    2711790499
        0x08007748:    9e9f9fa0    ....    DCD    2661261216
        0x0800774c:    9b9c9c9d    ....    DCD    2610732189
        0x08007750:    9899999a    ....    DCD    2560203162
        0x08007754:    95969797    ....    DCD    2509674391
        0x08007758:    93939495    ....    DCD    2475922581
        0x0800775c:    90919192    ....    DCD    2425459090
        0x08007760:    8e8e8f8f    ....    DCD    2391707535
        0x08007764:    8b8c8c8d    ....    DCD    2341244045
        0x08007768:    89898a8b    ....    DCD    2307492491
        0x0800776c:    87878888    ....    DCD    2273806472
        0x08007770:    84858586    ....    DCD    2223342982
        0x08007774:    82838384    ....    DCD    2189656964
        0x08007778:    80818182    ....    DCD    2155970946
        0x0800777c:    07ff0000    ....    DCD    134152192
        0x08007780:    7ff80000    ....    DCD    2146959360
    $t
    x$fpl$dmul
    $v0
    __aeabi_dmul
    _dmul
        0x08007784:    b570        p.      PUSH     {r4-r6,lr}
        0x08007786:    f8dfc148    ..H.    LDR      r12,[pc,#328] ; [0x80078d0] = 0x7ff0000
        0x0800778a:    ea1c1e11    ....    ANDS     lr,r12,r1,LSR #4
        0x0800778e:    bf1e        ..      ITTT     NE
        0x08007790:    ea1c1513    ....    ANDSNE   r5,r12,r3,LSR #4
        0x08007794:    ea9e0f0c    ....    TEQNE    lr,r12
        0x08007798:    ea950f0c    ....    TEQNE    r5,r12
        0x0800779c:    f000806f    ..o.    BEQ.W    0x800787e ; __aeabi_dmul + 250
        0x080077a0:    ea810403    ....    EOR      r4,r1,r3
        0x080077a4:    ea4e7ed4    N..~    ORR      lr,lr,r4,LSR #31
        0x080077a8:    44ae        .D      ADD      lr,lr,r5
        0x080077aa:    ea21114c    !.L.    BIC      r1,r1,r12,LSL #5
        0x080077ae:    ea23134c    #.L.    BIC      r3,r3,r12,LSL #5
        0x080077b2:    f4411180    A...    ORR      r1,r1,#0x100000
        0x080077b6:    f4431380    C...    ORR      r3,r3,#0x100000
        0x080077ba:    f1ae7e7f    ...~    SUB      lr,lr,#0x3fc0000
        0x080077be:    fba14c02    ...L    UMULL    r4,r12,r1,r2
        0x080077c2:    fba06503    ...e    UMULL    r6,r5,r0,r3
        0x080077c6:    1936        6.      ADDS     r6,r6,r4
        0x080077c8:    eb55050c    U...    ADCS     r5,r5,r12
        0x080077cc:    fba14c03    ...L    UMULL    r4,r12,r1,r3
        0x080077d0:    f14c0300    L...    ADC      r3,r12,#0
        0x080077d4:    fba01c02    ....    UMULL    r1,r12,r0,r2
        0x080077d8:    eb16060c    ....    ADDS     r6,r6,r12
        0x080077dc:    4165        eA      ADCS     r5,r5,r4
        0x080077de:    f1530300    S...    ADCS     r3,r3,#0
        0x080077e2:    4209        .B      TST      r1,r1
        0x080077e4:    bf18        ..      IT       NE
        0x080077e6:    f0460601    F...    ORRNE    r6,r6,#1
        0x080077ea:    f4137f00    ....    TST      r3,#0x200
        0x080077ee:    d10b        ..      BNE      0x8007808 ; __aeabi_dmul + 132
        0x080077f0:    ea4f3103    O..1    LSL      r1,r3,#12
        0x080077f4:    ea4f3005    O..0    LSL      r0,r5,#12
        0x080077f8:    ea415115    A..Q    ORR      r1,r1,r5,LSR #20
        0x080077fc:    ea405016    @..P    ORR      r0,r0,r6,LSR #20
        0x08007800:    0334        4.      LSLS     r4,r6,#12
        0x08007802:    f06f0203    o...    MVN      r2,#3
        0x08007806:    e00a        ..      B        0x800781e ; __aeabi_dmul + 154
        0x08007808:    ea4f21c3    O..!    LSL      r1,r3,#11
        0x0800780c:    ea4f20c5    O..     LSL      r0,r5,#11
        0x08007810:    ea415155    A.UQ    ORR      r1,r1,r5,LSR #21
        0x08007814:    ea405056    @.VP    ORR      r0,r0,r6,LSR #21
        0x08007818:    02f4        ..      LSLS     r4,r6,#11
        0x0800781a:    f06f0202    o...    MVN      r2,#2
        0x0800781e:    eb02422e    ...B    ADD      r2,r2,lr,ASR #16
        0x08007822:    eb015502    ...U    ADD      r5,r1,r2,LSL #20
        0x08007826:    ea8571ce    ...q    EOR      r1,r5,lr,LSL #31
        0x0800782a:    d00a        ..      BEQ      0x8007842 ; __aeabi_dmul + 190
        0x0800782c:    ea5f0c44    _.D.    LSLS     r12,r4,#1
        0x08007830:    bf18        ..      IT       NE
        0x08007832:    f0244400    $..D    BICNE    r4,r4,#0x80000000
        0x08007836:    f1500000    P...    ADCS     r0,r0,#0
        0x0800783a:    f1410100    A...    ADC      r1,r1,#0
        0x0800783e:    ea2070d4     ..p    BIC      r0,r0,r4,LSR #31
        0x08007842:    f2407cfe    @..|    MOV      r12,#0x7fe
        0x08007846:    4562        bE      CMP      r2,r12
        0x08007848:    d200        ..      BCS      0x800784c ; __aeabi_dmul + 200
        0x0800784a:    bd70        p.      POP      {r4-r6,pc}
        0x0800784c:    42a8        .B      CMP      r0,r5
        0x0800784e:    bf14        ..      ITE      NE
        0x08007850:    f04f4480    O..D    MOVNE    r4,#0x40000000
        0x08007854:    f04f4440    O.@D    MOVEQ    r4,#0xc0000000
        0x08007858:    2e00        ..      CMP      r6,#0
        0x0800785a:    bf08        ..      IT       EQ
        0x0800785c:    2400        .$      MOVEQ    r4,#0
        0x0800785e:    f1be6f80    ...o    CMP      lr,#0x4000000
        0x08007862:    bfa8        ..      IT       GE
        0x08007864:    f1a141c0    ...A    SUBGE    r1,r1,#0x60000000
        0x08007868:    e8bd4070    ..p@    POP      {r4-r6,lr}
        0x0800786c:    f2808082    ....    BGE.W    __fpl_dretinf ; 0x8007974
        0x08007870:    f10141c0    ...A    ADD      r1,r1,#0x60000000
        0x08007874:    f0014100    ...A    AND      r1,r1,#0x80000000
        0x08007878:    f04f0000    O...    MOV      r0,#0
        0x0800787c:    4770        pG      BX       lr
        0x0800787e:    ea0c1513    ....    AND      r5,r12,r3,LSR #4
        0x08007882:    ea9e0f0c    ....    TEQ      lr,r12
        0x08007886:    bf18        ..      IT       NE
        0x08007888:    ea950f0c    ....    TEQNE    r5,r12
        0x0800788c:    d006        ..      BEQ      0x800789c ; __aeabi_dmul + 280
        0x0800788e:    ea810e03    ....    EOR      lr,r1,r3
        0x08007892:    f04f0000    O...    MOV      r0,#0
        0x08007896:    f00e4100    ...A    AND      r1,lr,#0x80000000
        0x0800789a:    bd70        p.      POP      {r4-r6,pc}
        0x0800789c:    f000f81c    ....    BL       __fpl_dnaninf ; 0x80078d8
    $d
        0x080078a0:    3e010089    ...>    DCD    1040253065
    $t
        0x080078a4:    f000b807    ....    B.W      0x80078b6 ; __aeabi_dmul + 306
        0x080078a8:    f000b809    ....    B.W      0x80078be ; __aeabi_dmul + 314
        0x080078ac:    ea4f0c43    O.C.    LSL      r12,r3,#1
        0x080078b0:    ea5f5c5c    _.\\    LSRS     r12,r12,#21
        0x080078b4:    d008        ..      BEQ      0x80078c8 ; __aeabi_dmul + 324
        0x080078b6:    ea810103    ....    EOR      r1,r1,r3
        0x080078ba:    f000b85b    ..[.    B.W      __fpl_dretinf ; 0x8007974
        0x080078be:    ea4f0c41    O.A.    LSL      r12,r1,#1
        0x080078c2:    ea5f5c5c    _.\\    LSRS     r12,r12,#21
        0x080078c6:    d1f6        ..      BNE      0x80078b6 ; __aeabi_dmul + 306
        0x080078c8:    4902        .I      LDR      r1,[pc,#8] ; [0x80078d4] = 0x7ff80000
        0x080078ca:    f04f0000    O...    MOV      r0,#0
        0x080078ce:    4770        pG      BX       lr
    $d
        0x080078d0:    07ff0000    ....    DCD    134152192
        0x080078d4:    7ff80000    ....    DCD    2146959360
    $t
    x$fpl$dnaninf
    $v0
    __fpl_dnaninf
        0x080078d8:    f10e0e02    ....    ADD      lr,lr,#2
        0x080078dc:    f02e0e03    ....    BIC      lr,lr,#3
        0x080078e0:    f85e6b04    ^..k    LDR      r6,[lr],#4
        0x080078e4:    4236        6B      TST      r6,r6
        0x080078e6:    d405        ..      BMI      0x80078f4 ; __fpl_dnaninf + 28
        0x080078e8:    2a01        .*      CMP      r2,#1
        0x080078ea:    eb430503    C...    ADC      r5,r3,r3
        0x080078ee:    f5151f00    ....    CMN      r5,#0x200000
        0x080078f2:    d812        ..      BHI      0x800791a ; __fpl_dnaninf + 66
        0x080078f4:    2801        .(      CMP      r0,#1
        0x080078f6:    eb410c01    A...    ADC      r12,r1,r1
        0x080078fa:    f51c1f00    ....    CMN      r12,#0x200000
        0x080078fe:    d80c        ..      BHI      0x800791a ; __fpl_dnaninf + 66
        0x08007900:    d10e        ..      BNE      0x8007920 ; __fpl_dnaninf + 72
        0x08007902:    ea4f7cd1    O..|    LSR      r12,r1,#31
        0x08007906:    eb0c0c4c    ..L.    ADD      r12,r12,r12,LSL #1
        0x0800790a:    f10c0c02    ....    ADD      r12,r12,#2
        0x0800790e:    f5151f00    ....    CMN      r5,#0x200000
        0x08007912:    bf08        ..      IT       EQ
        0x08007914:    eb4c7cd3    L..|    ADCEQ    r12,r12,r3,LSR #31
        0x08007918:    e004        ..      B        0x8007924 ; __fpl_dnaninf + 76
        0x0800791a:    f04f0c08    O...    MOV      r12,#8
        0x0800791e:    e001        ..      B        0x8007924 ; __fpl_dnaninf + 76
        0x08007920:    ea4f7cd3    O..|    LSR      r12,r3,#31
        0x08007924:    eb0c054c    ..L.    ADD      r5,r12,r12,LSL #1
        0x08007928:    fa26f605    &...    LSR      r6,r6,r5
        0x0800792c:    f0060607    ....    AND      r6,r6,#7
        0x08007930:    f1b60c04    ....    SUBS     r12,r6,#4
        0x08007934:    d206        ..      BCS      0x8007944 ; __fpl_dnaninf + 108
        0x08007936:    eb0e0c86    ....    ADD      r12,lr,r6,LSL #2
        0x0800793a:    e8bd4070    ..p@    POP      {r4-r6,lr}
        0x0800793e:    f04c0c01    L...    ORR      r12,r12,#1
        0x08007942:    4760        `G      BX       r12
        0x08007944:    e8dff00c    ....    TBB      [pc,r12]
    $d
        0x08007948:    02020b09    ....    DCD    33688329
    $t
        0x0800794c:    f04f4100    O..A    MOV      r1,#0x80000000
        0x08007950:    f5a12100    ...!    SUB      r1,r1,#0x80000
        0x08007954:    f04f0000    O...    MOV      r0,#0
        0x08007958:    bd70        p.      POP      {r4-r6,pc}
        0x0800795a:    4619        .F      MOV      r1,r3
        0x0800795c:    4610        .F      MOV      r0,r2
        0x0800795e:    2801        .(      CMP      r0,#1
        0x08007960:    eb510401    Q...    ADCS     r4,r1,r1
        0x08007964:    bf18        ..      IT       NE
        0x08007966:    f5d41400    ....    RSBSNE   r4,r4,#0x200000
        0x0800796a:    bf84        ..      ITT      HI
        0x0800796c:    2000        .       MOVHI    r0,#0
        0x0800796e:    f0014100    ...A    ANDHI    r1,r1,#0x80000000
        0x08007972:    bd70        p.      POP      {r4-r6,pc}
    x$fpl$dretinf
    $v0
    __fpl_dretinf
        0x08007974:    0808        ..      LSRS     r0,r1,#32
        0x08007976:    f5a01100    ....    SUB      r1,r0,#0x200000
        0x0800797a:    ea4f0131    O.1.    RRX      r1,r1
        0x0800797e:    4770        pG      BX       lr
    x$fpl$dsqrt
    $v0
    _dsqrt
        0x08007980:    e92d41f0    -..A    PUSH     {r4-r8,lr}
        0x08007984:    f5011c80    ....    ADD      r12,r1,#0x100000
        0x08007988:    f5bc1f00    ....    CMP      r12,#0x200000
        0x0800798c:    f2c080a9    ....    BLT.W    0x8007ae2 ; _dsqrt + 354
        0x08007990:    ea4f5c11    O..\    LSR      r12,r1,#20
        0x08007994:    ea21510c    !..Q    BIC      r1,r1,r12,LSL #20
        0x08007998:    f4411180    A...    ORR      r1,r1,#0x100000
        0x0800799c:    f10c0cfd    ....    ADD      r12,r12,#0xfd
        0x080079a0:    ea5f0c5c    _.\.    LSRS     r12,r12,#1
        0x080079a4:    f50c7cc0    ...|    ADD      r12,r12,#0x180
        0x080079a8:    d301        ..      BCC      0x80079ae ; _dsqrt + 46
        0x080079aa:    0040        @.      LSLS     r0,r0,#1
        0x080079ac:    4149        IA      ADCS     r1,r1,r1
        0x080079ae:    0289        ..      LSLS     r1,r1,#10
        0x080079b0:    ea415190    A..Q    ORR      r1,r1,r0,LSR #22
        0x080079b4:    0287        ..      LSLS     r7,r0,#10
        0x080079b6:    a42e        ..      ADR      r4,{pc}+0xba ; 0x8007a70
        0x080079b8:    0e8e        ..      LSRS     r6,r1,#26
        0x080079ba:    5da4        .]      LDRB     r4,[r4,r6]
        0x080079bc:    0c0a        ..      LSRS     r2,r1,#16
        0x080079be:    fb04f604    ....    MUL      r6,r4,r4
        0x080079c2:    fb02f606    ....    MUL      r6,r2,r6
        0x080079c6:    f1c64640    ..@F    RSB      r6,r6,#0xc0000000
        0x080079ca:    fba46206    ...b    UMULL    r6,r2,r4,r6
        0x080079ce:    0df6        ..      LSRS     r6,r6,#23
        0x080079d0:    ea462642    F.B&    ORR      r6,r6,r2,LSL #9
        0x080079d4:    fb06f406    ....    MUL      r4,r6,r6
        0x080079d8:    fba42301    ...#    UMULL    r2,r3,r4,r1
        0x080079dc:    4252        RB      RSBS     r2,r2,#0
        0x080079de:    f1c34340    ..@C    RSB      r3,r3,#0xc0000000
        0x080079e2:    bf38        8.      IT       CC
        0x080079e4:    1e5b        [.      SUBCC    r3,r3,#1
        0x080079e6:    fba64202    ...B    UMULL    r4,r2,r6,r2
        0x080079ea:    2400        .$      MOVS     r4,#0
        0x080079ec:    fbe62403    ...$    UMLAL    r2,r4,r6,r3
        0x080079f0:    0bd2        ..      LSRS     r2,r2,#15
        0x080079f2:    ea424644    B.DF    ORR      r6,r2,r4,LSL #17
        0x080079f6:    fba62306    ...#    UMULL    r2,r3,r6,r6
        0x080079fa:    fba1e202    ....    UMULL    lr,r2,r1,r2
        0x080079fe:    fba3e407    ....    UMULL    lr,r4,r3,r7
        0x08007a02:    fbe34261    ..aB    UMAAL    r4,r2,r3,r1
        0x08007a06:    4264        dB      RSBS     r4,r4,#0
        0x08007a08:    f1c24e40    ..@N    RSB      lr,r2,#0xc0000000
        0x08007a0c:    bf38        8.      IT       CC
        0x08007a0e:    f1ae0e01    ....    SUBCC    lr,lr,#1
        0x08007a12:    fba62304    ...#    UMULL    r2,r3,r6,r4
        0x08007a16:    f04f0200    O...    MOV      r2,#0
        0x08007a1a:    fbe6320e    ...2    UMLAL    r3,r2,r6,lr
        0x08007a1e:    fba24603    ...F    UMULL    r4,r6,r2,r3
        0x08007a22:    0034        4.      MOVS     r4,r6
        0x08007a24:    fbe26462    ..bd    UMAAL    r6,r4,r2,r2
        0x08007a28:    fba1e606    ....    UMULL    lr,r6,r1,r6
        0x08007a2c:    fba4e807    ....    UMULL    lr,r8,r4,r7
        0x08007a30:    fbe46861    ..ah    UMAAL    r6,r8,r4,r1
        0x08007a34:    4276        vB      RSBS     r6,r6,#0
        0x08007a36:    f1c85840    ..@X    RSB      r8,r8,#0x30000000
        0x08007a3a:    bf38        8.      IT       CC
        0x08007a3c:    f1a80801    ....    SUBCC    r8,r8,#1
        0x08007a40:    fba2e406    ....    UMULL    lr,r4,r2,r6
        0x08007a44:    fba3e508    ....    UMULL    lr,r5,r3,r8
        0x08007a48:    fbe25468    ..hT    UMAAL    r5,r4,r2,r8
        0x08007a4c:    fba1e605    ....    UMULL    lr,r6,r1,r5
        0x08007a50:    fba7e804    ....    UMULL    lr,r8,r7,r4
        0x08007a54:    fbe18664    ..d.    UMAAL    r8,r6,r1,r4
        0x08007a58:    f1180520    .. .    ADDS     r5,r8,#0x20
        0x08007a5c:    f1560600    V...    ADCS     r6,r6,#0
        0x08007a60:    09a8        ..      LSRS     r0,r5,#6
        0x08007a62:    ea406086    @..`    ORR      r0,r0,r6,LSL #26
        0x08007a66:    09b1        ..      LSRS     r1,r6,#6
        0x08007a68:    f1a8081b    ....    SUB      r8,r8,#0x1b
        0x08007a6c:    f008083f    ..?.    AND      r8,r8,#0x3f
        0x08007a70:    f1b80f0a    ....    CMP      r8,#0xa
        0x08007a74:    d91c        ..      BLS      0x8007ab0 ; _dsqrt + 304
        0x08007a76:    eb01510c    ...Q    ADD      r1,r1,r12,LSL #20
        0x08007a7a:    e8bd81f0    ....    POP      {r4-r8,pc}
        0x08007a7e:    bf00        ..      NOP      
    $d
        0x08007a80:    e8eef5fc    ....    DCD    3907974652
        0x08007a84:    d3d8dde2    ....    DCD    3554205154
        0x08007a88:    c3c7cbcf    ....    DCD    3284650959
        0x08007a8c:    b6b9bdc0    ....    DCD    3065626048
        0x08007a90:    acaeb1b4    ....    DCD    2897129908
        0x08007a94:    a3a5a7a9    ....    DCD    2745542569
        0x08007a98:    9b9d9fa1    ....    DCD    2610798497
        0x08007a9c:    9596989a    ....    DCD    2509674650
        0x08007aa0:    8f909293    ....    DCD    2408616595
        0x08007aa4:    898b8c8d    ....    DCD    2307624077
        0x08007aa8:    85868788    ....    DCD    2240186248
        0x08007aac:    81828384    ....    DCD    2172814212
    $t
        0x08007ab0:    fba06800    ...h    UMULL    r6,r8,r0,r0
        0x08007ab4:    fb00f201    ....    MUL      r2,r0,r1
        0x08007ab8:    eb080842    ..B.    ADD      r8,r8,r2,LSL #1
        0x08007abc:    ebb82887    ...(    SUBS     r8,r8,r7,LSL #10
        0x08007ac0:    d507        ..      BPL      0x8007ad2 ; _dsqrt + 338
        0x08007ac2:    1834        4.      ADDS     r4,r6,r0
        0x08007ac4:    eb580401    X...    ADCS     r4,r8,r1
        0x08007ac8:    d5d5        ..      BPL      0x8007a76 ; _dsqrt + 246
        0x08007aca:    1c40        @.      ADDS     r0,r0,#1
        0x08007acc:    f1510100    Q...    ADCS     r1,r1,#0
        0x08007ad0:    e7d1        ..      B        0x8007a76 ; _dsqrt + 246
        0x08007ad2:    1a34        4.      SUBS     r4,r6,r0
        0x08007ad4:    eb780401    x...    SBCS     r4,r8,r1
        0x08007ad8:    d4cd        ..      BMI      0x8007a76 ; _dsqrt + 246
        0x08007ada:    1e40        @.      SUBS     r0,r0,#1
        0x08007adc:    f1710100    q...    SBCS     r1,r1,#0
        0x08007ae0:    e7c9        ..      B        0x8007a76 ; _dsqrt + 246
        0x08007ae2:    ea5f0c4c    _.L.    LSLS     r12,r12,#1
        0x08007ae6:    ea5f5c9c    _..\    LSRS     r12,r12,#22
        0x08007aea:    d10d        ..      BNE      0x8007b08 ; _dsqrt + 392
        0x08007aec:    d305        ..      BCC      0x8007afa ; _dsqrt + 378
        0x08007aee:    f0014100    ...A    AND      r1,r1,#0x80000000
        0x08007af2:    f04f0000    O...    MOV      r0,#0
        0x08007af6:    e8bd81f0    ....    POP      {r4-r8,pc}
        0x08007afa:    e8bd41f0    ...A    POP      {r4-r8,lr}
        0x08007afe:    b570        p.      PUSH     {r4-r6,lr}
        0x08007b00:    f7fffeea    ....    BL       __fpl_dnaninf ; 0x80078d8
    $d
        0x08007b04:    beffdb6d    m...    DCD    3204438893
    $t
        0x08007b08:    e8bd41f0    ...A    POP      {r4-r8,lr}
        0x08007b0c:    4901        .I      LDR      r1,[pc,#4] ; [0x8007b14] = 0x7ff80000
        0x08007b0e:    f04f0000    O...    MOV      r0,#0
        0x08007b12:    4770        pG      BX       lr
    $d
        0x08007b14:    7ff80000    ....    DCD    2146959360
    $t
    x$fpl$dsub
    $v0
    __aeabi_dsub
    _dsub
        0x08007b18:    b510        ..      PUSH     {r4,lr}
        0x08007b1a:    ea910f03    ....    TEQ      r1,r3
        0x08007b1e:    bf48        H.      IT       MI
        0x08007b20:    f0834300    ...C    EORMI    r3,r3,#0x80000000
        0x08007b24:    f53fac34    ?.4.    BMI      _dadd1 ; 0x8007390
    _dsub1
        0x08007b28:    1a84        ..      SUBS     r4,r0,r2
        0x08007b2a:    eb710c03    q...    SBCS     r12,r1,r3
        0x08007b2e:    d207        ..      BCS      0x8007b40 ; _dsub1 + 24
        0x08007b30:    f08c4c00    ...L    EOR      r12,r12,#0x80000000
        0x08007b34:    1912        ..      ADDS     r2,r2,r4
        0x08007b36:    eb43030c    C...    ADC      r3,r3,r12
        0x08007b3a:    1b00        ..      SUBS     r0,r0,r4
        0x08007b3c:    eb61010c    a...    SBC      r1,r1,r12
        0x08007b40:    ea4f5411    O..T    LSR      r4,r1,#20
        0x08007b44:    eba45c13    ...\    SUB      r12,r4,r3,LSR #20
        0x08007b48:    f8dfe1a4    ....    LDR      lr,[pc,#420] ; [0x8007cf0] = 0xffe00000
        0x08007b4c:    ea1e0f43    ..C.    TST      lr,r3,LSL #1
        0x08007b50:    bf18        ..      IT       NE
        0x08007b52:    ea9e5f44    ..D_    TEQNE    lr,r4,LSL #21
        0x08007b56:    f00080b4    ....    BEQ.W    0x8007cc2 ; _dsub1 + 410
        0x08007b5a:    ea215104    !..Q    BIC      r1,r1,r4,LSL #20
        0x08007b5e:    ea23036e    #.n.    BIC      r3,r3,lr,ASR #1
        0x08007b62:    4252        RB      RSBS     r2,r2,#0
        0x08007b64:    ebc3036e    ..n.    RSB      r3,r3,lr,ASR #1
        0x08007b68:    bf38        8.      IT       CC
        0x08007b6a:    1e5b        [.      SUBCC    r3,r3,#1
        0x08007b6c:    f1dc0e20    .. .    RSBS     lr,r12,#0x20
        0x08007b70:    d325        %.      BCC      0x8007bbe ; _dsub1 + 150
        0x08007b72:    fa22fe0c    "...    LSR      lr,r2,r12
        0x08007b76:    eb10000e    ....    ADDS     r0,r0,lr
        0x08007b7a:    fa43fe0c    C...    ASR      lr,r3,r12
        0x08007b7e:    eb41010e    A...    ADC      r1,r1,lr
        0x08007b82:    f1cc0e20    .. .    RSB      lr,r12,#0x20
        0x08007b86:    fa03fe0e    ....    LSL      lr,r3,lr
        0x08007b8a:    eb10000e    ....    ADDS     r0,r0,lr
        0x08007b8e:    f1cc0e20    .. .    RSB      lr,r12,#0x20
        0x08007b92:    f1510100    Q...    ADCS     r1,r1,#0
        0x08007b96:    d429        ).      BMI      0x8007bec ; _dsub1 + 196
        0x08007b98:    eb015104    ...Q    ADD      r1,r1,r4,LSL #20
        0x08007b9c:    fa12f20e    ....    LSLS     r2,r2,lr
        0x08007ba0:    e8bd4010    ...@    POP      {r4,lr}
        0x08007ba4:    bf58        X.      IT       PL
        0x08007ba6:    4770        pG      BXPL     lr
        0x08007ba8:    1c40        @.      ADDS     r0,r0,#1
        0x08007baa:    bf1c        ..      ITT      NE
        0x08007bac:    f1b24f00    ...O    CMPNE    r2,#0x80000000
        0x08007bb0:    4770        pG      BXNE     lr
        0x08007bb2:    2800        .(      CMP      r0,#0
        0x08007bb4:    bf0c        ..      ITE      EQ
        0x08007bb6:    1c49        I.      ADDEQ    r1,r1,#1
        0x08007bb8:    f0200001     ...    BICNE    r0,r0,#1
        0x08007bbc:    4770        pG      BX       lr
        0x08007bbe:    eb120e02    ....    ADDS     lr,r2,r2
        0x08007bc2:    eb430203    C...    ADC      r2,r3,r3
        0x08007bc6:    bf18        ..      IT       NE
        0x08007bc8:    f04f0e01    O...    MOVNE    lr,#1
        0x08007bcc:    ea4e0242    N.B.    ORR      r2,lr,r2,LSL #1
        0x08007bd0:    f1ac0c20    .. .    SUB      r12,r12,#0x20
        0x08007bd4:    f1dc0e1e    ....    RSBS     lr,r12,#0x1e
        0x08007bd8:    d956        V.      BLS      0x8007c88 ; _dsub1 + 352
        0x08007bda:    fa43fe0c    C...    ASR      lr,r3,r12
        0x08007bde:    eb10000e    ....    ADDS     r0,r0,lr
        0x08007be2:    f1cc0e1e    ....    RSB      lr,r12,#0x1e
        0x08007be6:    f15131ff    Q..1    ADCS     r1,r1,#0xffffffff
        0x08007bea:    d5d5        ..      BPL      0x8007b98 ; _dsub1 + 112
        0x08007bec:    f10e0e01    ....    ADD      lr,lr,#1
        0x08007bf0:    fa12fe0e    ....    LSLS     lr,r2,lr
        0x08007bf4:    4140        @A      ADCS     r0,r0,r0
        0x08007bf6:    eb410101    A...    ADC      r1,r1,r1
        0x08007bfa:    eb015c44    ..D\    ADD      r12,r1,r4,LSL #21
        0x08007bfe:    ea5f5c5c    _.\\    LSRS     r12,r12,#21
        0x08007c02:    d910        ..      BLS      0x8007c26 ; _dsub1 + 254
        0x08007c04:    eb015104    ...Q    ADD      r1,r1,r4,LSL #20
        0x08007c08:    eb1070de    ...p    ADDS     r0,r0,lr,LSR #31
        0x08007c0c:    bf38        8.      IT       CC
        0x08007c0e:    f1be4f00    ...O    CMPCC    lr,#0x80000000
        0x08007c12:    e8bd4010    ...@    POP      {r4,lr}
        0x08007c16:    bf18        ..      IT       NE
        0x08007c18:    4770        pG      BXNE     lr
        0x08007c1a:    2800        .(      CMP      r0,#0
        0x08007c1c:    bf0c        ..      ITE      EQ
        0x08007c1e:    1c49        I.      ADDEQ    r1,r1,#1
        0x08007c20:    f0200001     ...    BICNE    r0,r0,#1
        0x08007c24:    4770        pG      BX       lr
        0x08007c26:    d234        4.      BCS      0x8007c92 ; _dsub1 + 362
        0x08007c28:    ea4f2cd4    O..,    LSR      r12,r4,#11
        0x08007c2c:    f4246400    $..d    BIC      r4,r4,#0x800
        0x08007c30:    f5111100    ....    ADDS     r1,r1,#0x200000
        0x08007c34:    d01b        ..      BEQ      0x8007c6e ; _dsub1 + 326
        0x08007c36:    fab1f281    ....    CLZ      r2,r1
        0x08007c3a:    3a0b        .:      SUBS     r2,r2,#0xb
        0x08007c3c:    1aa4        ..      SUBS     r4,r4,r2
        0x08007c3e:    1ea4        ..      SUBS     r4,r4,#2
        0x08007c40:    f1d20320    .. .    RSBS     r3,r2,#0x20
        0x08007c44:    4091        .@      LSLS     r1,r1,r2
        0x08007c46:    fa30f303    0...    LSRS     r3,r0,r3
        0x08007c4a:    4319        .C      ORRS     r1,r1,r3
        0x08007c4c:    4090        .@      LSLS     r0,r0,r2
        0x08007c4e:    eb0171cc    ...q    ADD      r1,r1,r12,LSL #31
        0x08007c52:    eb015104    ...Q    ADD      r1,r1,r4,LSL #20
        0x08007c56:    2c00        .,      CMP      r4,#0
        0x08007c58:    e8bd4010    ...@    POP      {r4,lr}
        0x08007c5c:    bfa8        ..      IT       GE
        0x08007c5e:    4770        pG      BXGE     lr
        0x08007c60:    f10141c0    ...A    ADD      r1,r1,#0x60000000
        0x08007c64:    f0014100    ...A    AND      r1,r1,#0x80000000
        0x08007c68:    f04f0000    O...    MOV      r0,#0
        0x08007c6c:    4770        pG      BX       lr
        0x08007c6e:    fab0f380    ....    CLZ      r3,r0
        0x08007c72:    fa10f103    ....    LSLS     r1,r0,r3
        0x08007c76:    d102        ..      BNE      0x8007c7e ; _dsub1 + 342
        0x08007c78:    e8bd4010    ...@    POP      {r4,lr}
        0x08007c7c:    4770        pG      BX       lr
        0x08007c7e:    1ae4        ..      SUBS     r4,r4,r3
        0x08007c80:    3c17        .<      SUBS     r4,r4,#0x17
        0x08007c82:    0548        H.      LSLS     r0,r1,#21
        0x08007c84:    0ac9        ..      LSRS     r1,r1,#11
        0x08007c86:    e7e2        ..      B        0x8007c4e ; _dsub1 + 294
        0x08007c88:    eb015104    ...Q    ADD      r1,r1,r4,LSL #20
        0x08007c8c:    e8bd4010    ...@    POP      {r4,lr}
        0x08007c90:    4770        pG      BX       lr
        0x08007c92:    1049        I.      ASRS     r1,r1,#1
        0x08007c94:    ea4f0030    O.0.    RRX      r0,r0
        0x08007c98:    eb015104    ...Q    ADD      r1,r1,r4,LSL #20
        0x08007c9c:    e8bd4010    ...@    POP      {r4,lr}
        0x08007ca0:    e002        ..      B        0x8007ca8 ; _dsub1 + 384
        0x08007ca2:    f04f0100    O...    MOV      r1,#0
        0x08007ca6:    4770        pG      BX       lr
        0x08007ca8:    004a        J.      LSLS     r2,r1,#1
        0x08007caa:    bf08        ..      IT       EQ
        0x08007cac:    4200        .B      TSTEQ    r0,r0
        0x08007cae:    d0f8        ..      BEQ      0x8007ca2 ; _dsub1 + 378
        0x08007cb0:    f5b21f00    ....    CMP      r2,#0x200000
        0x08007cb4:    bf28        (.      IT       CS
        0x08007cb6:    4770        pG      BXCS     lr
        0x08007cb8:    f0014100    ...A    AND      r1,r1,#0x80000000
        0x08007cbc:    f04f0000    O...    MOV      r0,#0
        0x08007cc0:    4770        pG      BX       lr
        0x08007cc2:    ea9e5f44    ..D_    TEQ      lr,r4,LSL #21
        0x08007cc6:    d007        ..      BEQ      0x8007cd8 ; _dsub1 + 432
        0x08007cc8:    ea110f5e    ..^.    TST      r1,lr,LSR #1
        0x08007ccc:    e8bd4010    ...@    POP      {r4,lr}
        0x08007cd0:    bf04        ..      ITT      EQ
        0x08007cd2:    2100        .!      MOVEQ    r1,#0
        0x08007cd4:    2000        .       MOVEQ    r0,#0
        0x08007cd6:    4770        pG      BX       lr
        0x08007cd8:    e8bd4010    ...@    POP      {r4,lr}
        0x08007cdc:    b570        p.      PUSH     {r4-r6,lr}
        0x08007cde:    f7fffdfb    ....    BL       __fpl_dnaninf ; 0x80078d8
        0x08007ce2:    bf00        ..      NOP      
    $d
        0x08007ce4:    3ef6df40    @..>    DCD    1056366400
    $t
        0x08007ce8:    4610        .F      MOV      r0,r2
        0x08007cea:    f0834100    ...A    EOR      r1,r3,#0x80000000
        0x08007cee:    4770        pG      BX       lr
    $d
        0x08007cf0:    ffe00000    ....    DCD    4292870144
    $t
    x$fpl$f2d
    $v0
    __aeabi_f2d
    _f2d
        0x08007cf4:    0043        C.      LSLS     r3,r0,#1
        0x08007cf6:    ea4f0cd3    O...    LSR      r12,r3,#3
        0x08007cfa:    ea4f0c3c    O.<.    RRX      r12,r12
        0x08007cfe:    4043        C@      EORS     r3,r3,r0
        0x08007d00:    bf1f        ..      ITTTT    NE
        0x08007d02:    0740        @.      LSLNE    r0,r0,#29
        0x08007d04:    f10c5160    ..`Q    ADDNE    r1,r12,#0x38000000
        0x08007d08:    f0134ffe    ...O    TSTNE    r3,#0x7f000000
        0x08007d0c:    4770        pG      BXNE     lr
        0x08007d0e:    f01c6f00    ...o    TST      r12,#0x8000000
        0x08007d12:    d103        ..      BNE      0x8007d1c ; __aeabi_f2d + 40
        0x08007d14:    f00c4100    ...A    AND      r1,r12,#0x80000000
        0x08007d18:    2000        .       MOVS     r0,#0
        0x08007d1a:    4770        pG      BX       lr
        0x08007d1c:    f00c4300    ...C    AND      r3,r12,#0x80000000
        0x08007d20:    ea437050    C.Pp    ORR      r0,r3,r0,LSR #29
        0x08007d24:    ea4000cc    @...    ORR      r0,r0,r12,LSL #3
        0x08007d28:    b510        ..      PUSH     {r4,lr}
        0x08007d2a:    f000f80e    ....    BL       __fpl_fnaninf ; 0x8007d4a
        0x08007d2e:    bf00        ..      NOP      
    $d
        0x08007d30:    92000000    ....    DCD    2449473536
    $t
        0x08007d34:    ea4f0100    O...    MOV.W    r1,r0
        0x08007d38:    f7ffbe1c    ....    B.W      __fpl_dretinf ; 0x8007974
        0x08007d3c:    f04f4100    O..A    MOV      r1,#0x80000000
        0x08007d40:    f5a12100    ...!    SUB      r1,r1,#0x80000
        0x08007d44:    f04f0000    O...    MOV      r0,#0
        0x08007d48:    4770        pG      BX       lr
    x$fpl$fnaninf
    $v0
    __fpl_fnaninf
        0x08007d4a:    f10e0e02    ....    ADD      lr,lr,#2
        0x08007d4e:    f02e0e03    ....    BIC      lr,lr,#3
        0x08007d52:    f85e4b04    ^..K    LDR      r4,[lr],#4
        0x08007d56:    4224        $B      TST      r4,r4
        0x08007d58:    d404        ..      BMI      0x8007d64 ; __fpl_fnaninf + 26
        0x08007d5a:    ea4f0241    O.A.    LSL      r2,r1,#1
        0x08007d5e:    f1b24f7f    ...O    CMP      r2,#0xff000000
        0x08007d62:    d811        ..      BHI      0x8007d88 ; __fpl_fnaninf + 62
        0x08007d64:    ea4f0340    O.@.    LSL      r3,r0,#1
        0x08007d68:    f1b34f7f    ...O    CMP      r3,#0xff000000
        0x08007d6c:    d80c        ..      BHI      0x8007d88 ; __fpl_fnaninf + 62
        0x08007d6e:    d10e        ..      BNE      0x8007d8e ; __fpl_fnaninf + 68
        0x08007d70:    ea4f7cd0    O..|    LSR      r12,r0,#31
        0x08007d74:    eb0c0c4c    ..L.    ADD      r12,r12,r12,LSL #1
        0x08007d78:    f10c0c02    ....    ADD      r12,r12,#2
        0x08007d7c:    f1b24f7f    ...O    CMP      r2,#0xff000000
        0x08007d80:    bf08        ..      IT       EQ
        0x08007d82:    eb4c7cd1    L..|    ADCEQ    r12,r12,r1,LSR #31
        0x08007d86:    e004        ..      B        0x8007d92 ; __fpl_fnaninf + 72
        0x08007d88:    f04f0c08    O...    MOV      r12,#8
        0x08007d8c:    e001        ..      B        0x8007d92 ; __fpl_fnaninf + 72
        0x08007d8e:    ea4f7cd1    O..|    LSR      r12,r1,#31
        0x08007d92:    eb0c034c    ..L.    ADD      r3,r12,r12,LSL #1
        0x08007d96:    fa24f403    $...    LSR      r4,r4,r3
        0x08007d9a:    f0040407    ....    AND      r4,r4,#7
        0x08007d9e:    f1b40c04    ....    SUBS     r12,r4,#4
        0x08007da2:    d206        ..      BCS      0x8007db2 ; __fpl_fnaninf + 104
        0x08007da4:    eb0e0c84    ....    ADD      r12,lr,r4,LSL #2
        0x08007da8:    e8bd4010    ...@    POP      {r4,lr}
        0x08007dac:    f04c0c01    L...    ORR      r12,r12,#1
        0x08007db0:    4760        `G      BX       r12
        0x08007db2:    e8dff00c    ....    TBB      [pc,r12]
    $d
        0x08007db6:    0807        ..      DCW    2055
        0x08007db8:    0202        ..      DCW    514
    $t
        0x08007dba:    f04f4000    O..@    MOV      r0,#0x80000000
        0x08007dbe:    f5a00080    ....    SUB      r0,r0,#0x400000
        0x08007dc2:    bd10        ..      POP      {r4,pc}
        0x08007dc4:    4608        .F      MOV      r0,r1
        0x08007dc6:    0042        B.      LSLS     r2,r0,#1
        0x08007dc8:    bf18        ..      IT       NE
        0x08007dca:    f1d27280    ...r    RSBSNE   r2,r2,#0x1000000
        0x08007dce:    bf88        ..      IT       HI
        0x08007dd0:    f0004000    ...@    ANDHI    r0,r0,#0x80000000
        0x08007dd4:    bd10        ..      POP      {r4,pc}
    x$fpl$fpinit
    $v0
    _fp_init
        0x08007dd6:    eef10a10    ....    VMRS     r0,FPSCR
        0x08007dda:    f64f71ff    O..q    MOV      r1,#0xffff
        0x08007dde:    f2c031c0    ...1    MOVT     r1,#0x3c0
        0x08007de2:    ea200001     ...    BIC      r0,r0,r1
        0x08007de6:    f0407040    @.@p    ORR      r0,r0,#0x3000000
        0x08007dea:    eee10a10    ....    VMSR     FPSCR,r0
    __fplib_config_fpu_vfp
    __fplib_config_pureend_doubles
        0x08007dee:    4770        pG      BX       lr
    x$fpl$fretinf
    $v0
    __fpl_fretinf
        0x08007df0:    21ff        .!      MOVS     r1,#0xff
        0x08007df2:    ea4150d0    A..P    ORR      r0,r1,r0,LSR #23
        0x08007df6:    05c0        ..      LSLS     r0,r0,#23
        0x08007df8:    4770        pG      BX       lr
    x$fpl$printf1
    $v0
    _printf_fp_dec
        0x08007dfa:    f7f9bcd3    ....    B        _printf_fp_dec_real ; 0x80017a4
    x$fpl$printf2
    $v0
    _printf_fp_hex
        0x08007dfe:    f7f9be07    ....    B        _printf_fp_hex_real ; 0x8001a10
    x$fpl$usenofp
    __I$use$fp
        0x08007e02:    0000        ..      MOVS     r0,r0
    $d.realdata
    .constdata
    initial_mbstate
        0x08007e04:    00000000    ....    DCD    0
        0x08007e08:    00000000    ....    DCD    0
    .constdata
    uc_hextab
        0x08007e0c:    33323130    0123    DCD    858927408
        0x08007e10:    37363534    4567    DCD    926299444
        0x08007e14:    42413938    89AB    DCD    1111570744
        0x08007e18:    46454443    CDEF    DCD    1178944579
        0x08007e1c:    00583040    @0X.    DCD    5779520
    lc_hextab
        0x08007e20:    33323130    0123    DCD    858927408
        0x08007e24:    37363534    4567    DCD    926299444
        0x08007e28:    62613938    89ab    DCD    1650538808
        0x08007e2c:    66656463    cdef    DCD    1717920867
        0x08007e30:    00783040    @0x.    DCD    7876672
    .constdata
    maptable
        0x08007e34:    08000004    ....    DCD    134217732
        0x08007e38:    00000000    ....    DCD    0
        0x08007e3c:    02000000    ....    DCD    33554432
        0x08007e40:    00000100    ....    DCD    256
        0x08007e44:    10          .       DCB    16
    .constdata
    __stdin_name
        0x08007e45:    3a7474      :tt     DCB    58,116,116
        0x08007e48:    00          .       DCB    0
    .constdata
    __stdout_name
        0x08007e49:    3a7474      :tt     DCB    58,116,116
        0x08007e4c:    00          .       DCB    0
    .constdata
    __stderr_name
        0x08007e4d:    3a7474      :tt     DCB    58,116,116
        0x08007e50:    00          .       DCB    0
    .constdata
    lc_hextab
        0x08007e51:    303132      012     DCB    48,49,50
        0x08007e54:    36353433    3456    DCD    909456435
        0x08007e58:    61393837    789a    DCD    1631139895
        0x08007e5c:    65646362    bcde    DCD    1701077858
        0x08007e60:    00707866    fxp.    DCD    7370854
    uc_hextab
        0x08007e64:    33323130    0123    DCD    858927408
        0x08007e68:    37363534    4567    DCD    926299444
        0x08007e6c:    42413938    89AB    DCD    1111570744
        0x08007e70:    46454443    CDEF    DCD    1178944579
        0x08007e74:    5058        XP      DCW    20568
        0x08007e76:    00          .       DCB    0
    .constdata
    _monlen
        0x08007e77:    1f          .       DCB    31
        0x08007e78:    1f1e1f1d    ....    DCD    522067741
        0x08007e7c:    1e1f1f1e    ....    DCD    505356062
        0x08007e80:    001f1e1f    ....    DCD    2039327
    .constdata
    tenpwrs_x
        0x08007e84:    00004002    .@..    DCD    16386
        0x08007e88:    a0000000    ....    DCD    2684354560
        0x08007e8c:    00000000    ....    DCD    0
        0x08007e90:    00004005    .@..    DCD    16389
        0x08007e94:    c8000000    ....    DCD    3355443200
        0x08007e98:    00000000    ....    DCD    0
        0x08007e9c:    0000400c    .@..    DCD    16396
        0x08007ea0:    9c400000    ..@.    DCD    2621440000
        0x08007ea4:    00000000    ....    DCD    0
        0x08007ea8:    00004019    .@..    DCD    16409
        0x08007eac:    bebc2000    . ..    DCD    3200000000
        0x08007eb0:    00000000    ....    DCD    0
        0x08007eb4:    00004034    4@..    DCD    16436
        0x08007eb8:    8e1bc9bf    ....    DCD    2384185791
        0x08007ebc:    04000000    ....    DCD    67108864
    tenpwrs_i
        0x08007ec0:    000040b5    .@..    DCD    16565
        0x08007ec4:    d0cf4b50    PK..    DCD    3503246160
        0x08007ec8:    cfe20766    f...    DCD    3487696742
        0x08007ecc:    00000001    ....    DCD    1
        0x08007ed0:    0000416c    lA..    DCD    16748
        0x08007ed4:    aa51823e    >.Q.    DCD    2857468478
        0x08007ed8:    34a7eedf    ...4    DCD    883420895
        0x08007edc:    00000001    ....    DCD    1
        0x08007ee0:    000042d9    .B..    DCD    17113
        0x08007ee4:    e2a0b5dc    ....    DCD    3802183132
        0x08007ee8:    971f303a    :0..    DCD    2535403578
        0x08007eec:    ffffffff    ....    DCD    4294967295
        0x08007ef0:    000045b4    .E..    DCD    17844
        0x08007ef4:    c8a025fd    .%..    DCD    3365938685
        0x08007ef8:    4fc1a3e9    ...O    DCD    1338090473
        0x08007efc:    ffffffff    ....    DCD    4294967295
        0x08007f00:    00003fff    .?..    DCD    16383
        0x08007f04:    80000000    ....    DCD    2147483648
        0x08007f08:    00000000    ....    DCD    0
        0x08007f0c:    00003fff    .?..    DCD    16383
        0x08007f10:    80000000    ....    DCD    2147483648
        0x08007f14:    00000000    ....    DCD    0
    _PrintUnsigned._aV2C
        0x08007f18:    33323130    0123    DCD    858927408
        0x08007f1c:    37363534    4567    DCD    926299444
        0x08007f20:    42413938    89AB    DCD    1111570744
        0x08007f24:    46454443    CDEF    DCD    1178944579
    nr_ansi_in_cmd
        0x08007f28:    4241496d    mIAB    DCD    1111574893
        0x08007f2c:    4b584443    CDXK    DCD    1264075843
        0x08007f30:    404a504d    MPJ@    DCD    1078612045
        0x08007f34:    6e686c4c    Llhn    DCD    1852337228
        0x08007f38:    7e757348    Hsu~    DCD    2121626440
        0x08007f3c:    00000000    ....    DCD    0
    nr_ansi_in_cmd_fun
        0x08007f40:    08005d51    Q]..    DCD    134241617
        0x08007f44:    08005d51    Q]..    DCD    134241617
        0x08007f48:    080060d9    .`..    DCD    134242521
        0x08007f4c:    08005e69    i^..    DCD    134241897
        0x08007f50:    08005fa9    ._..    DCD    134242217
        0x08007f54:    08005f49    I_..    DCD    134242121
        0x08007f58:    08005d51    Q]..    DCD    134241617
        0x08007f5c:    08005d51    Q]..    DCD    134241617
        0x08007f60:    08005d51    Q]..    DCD    134241617
        0x08007f64:    08005d51    Q]..    DCD    134241617
        0x08007f68:    08005d51    Q]..    DCD    134241617
        0x08007f6c:    08005d51    Q]..    DCD    134241617
        0x08007f70:    08005d51    Q]..    DCD    134241617
        0x08007f74:    08005d51    Q]..    DCD    134241617
        0x08007f78:    08005d51    Q]..    DCD    134241617
        0x08007f7c:    08005d51    Q]..    DCD    134241617
        0x08007f80:    08005d51    Q]..    DCD    134241617
        0x08007f84:    08005d51    Q]..    DCD    134241617
        0x08007f88:    08005d51    Q]..    DCD    134241617
        0x08007f8c:    08005d91    .]..    DCD    134241681
    nr_ansi_in_special_symbol
        0x08007f90:    090d0a08    ....    DCD    151849480
        0x08007f94:    00000000    ....    DCD    0
    nr_ansi_in_special_symbol_fun
        0x08007f98:    08005dfd    .]..    DCD    134241789
        0x08007f9c:    08005f75    u_..    DCD    134242165
        0x08007fa0:    08005f0d    ._..    DCD    134242061
        0x08007fa4:    08005fd9    ._..    DCD    134242265
    __tagsym$$used.0
    _nr_cmd_start_
        0x08007fa8:    00000030    0...    DCD    48
        0x08007fac:    00000000    ....    DCD    0
        0x08007fb0:    00000000    ....    DCD    0
        0x08007fb4:    00000000    ....    DCD    0
        0x08007fb8:    00000000    ....    DCD    0
    __tagsym$$used.1
    _nr_cmd_end_
        0x08007fbc:    0000006e    n...    DCD    110
        0x08007fc0:    00000000    ....    DCD    0
        0x08007fc4:    00000000    ....    DCD    0
        0x08007fc8:    00000000    ....    DCD    0
        0x08007fcc:    00000000    ....    DCD    0
    s_AdcHclkPresTable
        0x08007fd0:    06040201    ....    DCD    100925953
        0x08007fd4:    100c0a08    ....    DCD    269224456
        0x08007fd8:    20202020            DCD    538976288
        0x08007fdc:    20202020            DCD    538976288
    s_AdcPllClkPresTable
        0x08007fe0:    00020001    ....    DCD    131073
        0x08007fe4:    00060004    ....    DCD    393220
        0x08007fe8:    000a0008    ....    DCD    655368
        0x08007fec:    0010000c    ....    DCD    1048588
        0x08007ff0:    00400020     .@.    DCD    4194336
        0x08007ff4:    01000080    ....    DCD    16777344
        0x08007ff8:    01000100    ....    DCD    16777472
        0x08007ffc:    01000100    ....    DCD    16777472
    s_ApbAhbPresTable
        0x08008000:    00000000    ....    DCD    0
        0x08008004:    04030201    ....    DCD    67305985
        0x08008008:    04030201    ....    DCD    67305985
        0x0800800c:    09080706    ....    DCD    151521030
    static_cmd
        0x08008010:    64786568    hexd    DCD    1685611880
        0x08008014:    00706d75    ump.    DCD    7368053
        0x08008018:    00000000    ....    DCD    0
        0x0800801c:    080040e1    .@..    DCD    134234337
        0x08008020:    00000000    ....    DCD    0
        0x08008024:    74697571    quit    DCD    1953068401
        0x08008028:    00000000    ....    DCD    0
        0x0800802c:    00000000    ....    DCD    0
        0x08008030:    08004055    U@..    DCD    134234197
        0x08008034:    00000000    ....    DCD    0
        0x08008038:    65646f6d    mode    DCD    1701080941
        0x0800803c:    00000000    ....    DCD    0
        0x08008040:    00000000    ....    DCD    0
        0x08008044:    08003f89    .?..    DCD    134233993
        0x08008048:    00000000    ....    DCD    0
        0x0800804c:    706f7473    stop    DCD    1886352499
        0x08008050:    00000000    ....    DCD    0
        0x08008054:    00000000    ....    DCD    0
        0x08008058:    08004091    .@..    DCD    134234257
        0x0800805c:    00000000    ....    DCD    0
        0x08008060:    72617473    star    DCD    1918989427
        0x08008064:    00000074    t...    DCD    116
        0x08008068:    00000000    ....    DCD    0
        0x0800806c:    080040b9    .@..    DCD    134234297
        0x08008070:    00000000    ....    DCD    0
        0x08008074:    00000000    ....    DCD    0
        0x08008078:    00000000    ....    DCD    0
        0x0800807c:    00000000    ....    DCD    0
        0x08008080:    00000000    ....    DCD    0
        0x08008084:    00000000    ....    DCD    0
    .L.str.7
        0x08008088:    3031736d    ms10    DCD    808547181
        0x0800808c:    63203033    30 c    DCD    1663053875
        0x08008090:    69666e6f    onfi    DCD    1768320623
        0x08008094:    61662067    g fa    DCD    1634082919
        0x08008098:    64656c69    iled    DCD    1684368489
        0x0800809c:    0d212121    !!!.    DCD    220274977
        0x080080a0:    000a        ..      DCW    10
    .L.str.6
        0x080080a2:    736d        ms      DCW    29549
        0x080080a4:    30333031    1030    DCD    808661041
        0x080080a8:    6e6f6320     con    DCD    1852793632
        0x080080ac:    20676966    fig     DCD    543648102
        0x080080b0:    21216b6f    ok!!    DCD    555838319
        0x080080b4:    000a0d21    !...    DCD    658721
    .L.str
        0x080080b8:    732f2e2e    ../s    DCD    1932471854
        0x080080bc:    6372756f    ourc    DCD    1668445551
        0x080080c0:    616d2f65    e/ma    DCD    1634545509
        0x080080c4:    632e6e69    in.c    DCD    1663987305
        0x080080c8:    7070        pp      DCW    28784
        0x080080ca:    00          .       DCB    0
    .L.str.2
        0x080080cb:    70          p       DCB    112
        0x080080cc:    316b6c63    clk1    DCD    829123683
        0x080080d0:    6425203a    : %d    DCD    1680154682
        0x080080d4:    0a0d        ..      DCW    2573
        0x080080d6:    00          .       DCB    0
    .L.str.3
        0x080080d7:    70          p       DCB    112
        0x080080d8:    326b6c63    clk2    DCD    845900899
        0x080080dc:    6425203a    : %d    DCD    1680154682
        0x080080e0:    0a0d        ..      DCW    2573
        0x080080e2:    00          .       DCB    0
    .L.str.1
        0x080080e3:    68          h       DCB    104
        0x080080e4:    3a6b6c63    clk:    DCD    980118627
        0x080080e8:    0d642520     %d.    DCD    224666912
        0x080080ec:    000a        ..      DCW    10
    .L.str
        0x080080ee:    7973        sy      DCW    31091
        0x080080f0:    6b6c6373    sclk    DCD    1802265459
        0x080080f4:    6425203a    : %d    DCD    1680154682
        0x080080f8:    0a0d        ..      DCW    2573
        0x080080fa:    00          .       DCB    0
    .L.str.7
        0x080080fb:    66          f       DCB    102
        0x080080fc:    6873616c    lash    DCD    1752392044
        0x08008100:    65646f63    code    DCD    1701080931
        0x08008104:    6f727020     pro    DCD    1869770784
        0x08008108:    6d617267    gram    DCD    1835102823
        0x0800810c:    67656220     beg    DCD    1734697504
        0x08008110:    2e2e6e69    in..    DCD    774794857
        0x08008114:    000a0d2e    ....    DCD    658734
    .L.str.4
        0x08008118:    706d6f63    comp    DCD    1886220131
        0x0800811c:    64656c69    iled    DCD    1684368489
        0x08008120:    6d697420     tim    DCD    1835627552
        0x08008124:    25203a65    e: %    DCD    622869093
        0x08008128:    73252073    s %s    DCD    1931812979
        0x0800812c:    0a0d        ..      DCW    2573
        0x0800812e:    00          .       DCB    0
    .L.str.1
        0x0800812f:    25          %       DCB    37
        0x08008130:    444f4d73    sMOD    DCD    1146047859
        0x08008134:    3a454c55    ULE:    DCD    977620053
        0x08008138:    52494120     AIR    DCD    1380532512
        0x0800813c:    574f4c46    FLOW    DCD    1464814662
        0x08008140:    54454d5f    _MET    DCD    1413827935
        0x08008144:    425f5245    ER_B    DCD    1113543237
        0x08008148:    0a0d7325    %s..    DCD    168653605
        0x0800814c:    00          .       DCB    0
    .L.str.5
        0x0800814d:    4a756c      Jul     DCB    74,117,108
        0x08008150:    20353220     25     DCD    540357152
        0x08008154:    32323032    2022    DCD    842149938
        0x08008158:    00          .       DCB    0
    .L.str.6
        0x08008159:    30303a      00:     DCB    48,48,58
        0x0800815c:    323a3332    23:2    DCD    842674994
        0x08008160:    0032        2.      DCW    50
    .L.str
        0x08008162:    534a        JS      DCW    21322
        0x08008164:    65706f63    cope    DCD    1701867363
        0x08008168:    5532555f    _U2U    DCD    1429362015
    .L.str.23
        0x0800816c:    0032        2.      DCW    50
    .L.str.2
    .L.str.12
        0x0800816e:    5b1b        .[      DCW    23323
        0x08008170:    31343b34    4;41    DCD    825506612
        0x08008174:    006d        m.      DCW    109
    .L.str
        0x08008176:    7265        er      DCW    29285
        0x08008178:    21726f72    ror!    DCD    561147762
        0x0800817c:    0a0d2121    !!..    DCD    168632609
        0x08008180:    00          .       DCB    0
    .L.str
    .L.str.27
        0x08008181:    6d6f64      mod     DCB    109,111,100
        0x08008184:    65          e       DCB    101
    .L.str.1
        0x08008185:    206e6f       no     DCB    32,110,111
    .L.str.2
        0x08008188:    2074        t       DCW    8308
        0x0800818a:    73          s       DCB    115
    .L.str.3
        0x0800818b:    75          u       DCB    117
        0x0800818c:    7070        pp      DCW    28784
    .L.str.4
        0x0800818e:    726f        or      DCW    29295
        0x08008190:    0a0d2174    t!..    DCD    168632692
        0x08008194:    00          .       DCB    0
    .L.str.28
        0x08008195:    757365      use     DCB    117,115,101
        0x08008198:    3a656761    age:    DCD    979724129
        0x0800819c:    646f6d20     mod    DCD    1685024032
    .L.str.5
        0x080081a0:    2065        e       DCW    8293
        0x080081a2:    30          0       DCB    48
    .L.str.6
        0x080081a3:    7c          |       DCB    124
        0x080081a4:    000a0d31    1...    DCD    658737
    .L.str.13
        0x080081a8:    61657375    usea    DCD    1634038645
        0x080081ac:    203a6567    ge:     DCD    540697959
        0x080081b0:    64786568    hexd    DCD    1685611880
        0x080081b4:    20706d75    ump     DCD    544238965
        0x080081b8:    6461        ad      DCW    25697
    .L.str.7
        0x080081ba:    7264        dr      DCW    29284
        0x080081bc:    6e656c20     len    DCD    1852140576
        0x080081c0:    0a0d        ..      DCW    2573
        0x080081c2:    00          .       DCB    0
    .L.str.17
        0x080081c3:    75          u       DCB    117
        0x080081c4:    6573        se      DCW    25971
    .L.str.8
        0x080081c6:    6761        ag      DCW    26465
        0x080081c8:    73203a65    e: s    DCD    1931491941
        0x080081cc:    0d706f74    top.    DCD    225472372
        0x080081d0:    000a        ..      DCW    10
    .L.str.12
        0x080081d2:    6170        pa      DCW    24944
        0x080081d4:    20736172    ras     DCD    544432498
        0x080081d8:    6425        %d      DCW    25637
    .L.str.9
        0x080081da:    203a        :       DCW    8250
        0x080081dc:    0a0d7325    %s..    DCD    168653605
        0x080081e0:    00          .       DCB    0
    .L.str.14
        0x080081e1:    096164      .ad     DCB    9,97,100
        0x080081e4:    203a7264    dr:     DCD    540701284
        0x080081e8:    6f6d656d    memo    DCD    1869440365
        0x080081ec:    61207972    ry a    DCD    1629518194
        0x080081f0:    64          d       DCB    100
    .L.str.10
        0x080081f1:    647265      dre     DCB    100,114,101
        0x080081f4:    0a0d7373    ss..    DCD    168653683
        0x080081f8:    00          .       DCB    0
    .L.str.24
        0x080081f9:    6d6f64      mod     DCB    109,111,100
        0x080081fc:    28312065    e 1(    DCD    674308197
        0x08008200:    6d207763    cw m    DCD    1830844259
        0x08008204:    2c65646f    ode,    DCD    744842351
        0x08008208:    6e697020     pin    DCD    1852403744
        0x0800820c:    6f20         o      DCW    28448
    .L.str.11
        0x0800820e:    2964        d)      DCW    10596
        0x08008210:    6c657320     sel    DCD    1818587936
        0x08008214:    0d746365    ect.    DCD    225731429
        0x08008218:    000a        ..      DCW    10
    .L.str.26
        0x0800821a:    6f6d        mo      DCW    28525
        0x0800821c:    33206564    de 3    DCD    857761124
        0x08008220:    6b736628    (fsk    DCD    1802724904
        0x08008224:    646f6d20     mod    DCD    1685024032
        0x08008228:    73202965    e) s    DCD    1931487589
        0x0800822c:    63656c65    elec    DCD    1667591269
        0x08008230:    000a0d74    t...    DCD    658804
    .L.str.22
        0x08008234:    65646f6d    mode    DCD    1701080941
        0x08008238:    63283120     1(c    DCD    1663578400
        0x0800823c:    6f6d2077    w mo    DCD    1869422711
        0x08008240:    202c6564    de,     DCD    539780452
        0x08008244:    206e6970    pin     DCD    544106864
        0x08008248:    68676968    high    DCD    1751607656
        0x0800824c:    65732029    ) se    DCD    1702043689
        0x08008250:    7463656c    lect    DCD    1952671084
        0x08008254:    0a0d        ..      DCW    2573
        0x08008256:    00          .       DCB    0
    .L.str.20
        0x08008257:    6d          m       DCB    109
        0x08008258:    2065646f    ode     DCD    543515759
        0x0800825c:    77632830    0(cw    DCD    2002987056
        0x08008260:    646f6d20     mod    DCD    1685024032
        0x08008264:    70202c65    e, p    DCD    1881156709
        0x08008268:    6c206e69    in l    DCD    1814064745
        0x0800826c:    2029776f    ow)     DCD    539588463
        0x08008270:    656c6573    sele    DCD    1701602675
        0x08008274:    0a0d7463    ct..    DCD    168653923
        0x08008278:    00          .       DCB    0
    .L.str.18
        0x08008279:    757365      use     DCB    117,115,101
        0x0800827c:    3a656761    age:    DCD    979724129
        0x08008280:    69757120     qui    DCD    1769304352
        0x08008284:    000a0d74    t...    DCD    658804
    .L.str.16
        0x08008288:    61657375    usea    DCD    1634038645
        0x0800828c:    203a6567    ge:     DCD    540697959
        0x08008290:    72617473    star    DCD    1918989427
        0x08008294:    000a0d74    t...    DCD    658804
    .L.str.15
        0x08008298:    6e656c09    .len    DCD    1852140553
        0x0800829c:    6964203a    : di    DCD    1768169530
        0x080082a0:    616c7073    spla    DCD    1634496627
        0x080082a4:    6f682079    y ho    DCD    1869095033
        0x080082a8:    616d2077    w ma    DCD    1634541687
        0x080082ac:    0a0d796e    ny..    DCD    168655214
        0x080082b0:    00          .       DCB    0
    .L.str.19
        0x080082b1:    3000        0.      DCB    48,0
    .L.str.21
        0x080082b3:    31          1       DCB    49
        0x080082b4:    00          .       DCB    0
    .L.str.25
        0x080082b5:    3300        3.      DCB    51,0
    .L.str.2
        0x080082b7:    70          p       DCB    112
        0x080082b8:    30303174    t100    DCD    808464756
        0x080082bc:    25203a30    0: %    DCD    622869040
        0x080082c0:    6c332e33    3.3l    DCD    1815293491
        0x080082c4:    33252d66    f-%3    DCD    858074470
        0x080082c8:    666c332e    .3lf    DCD    1718367022
        0x080082cc:    0a0d        ..      DCW    2573
        0x080082ce:    00          .       DCB    0
    .L.str.5
        0x080082cf:    52          R       DCB    82
        0x080082d0:    4745        EG      DCW    18245
    .L.str.1
        0x080082d2:    5f30        0_      DCW    24368
        0x080082d4:    30203a4c    L: 0    DCD    807418444
        0x080082d8:    32302578    x%02    DCD    842016120
        0x080082dc:    000a0d78    x...    DCD    658808
    .L.str
        0x080082e0:    612f2e2e    ../a    DCD    1630481966
        0x080082e4:    696c7070    ppli    DCD    1768714352
        0x080082e8:    69746163    cati    DCD    1769234787
        0x080082ec:    732f6e6f    on/s    DCD    1932488303
        0x080082f0:    732f6970    pi/s    DCD    1932487024
        0x080082f4:    632e6970    pi.c    DCD    1663986032
        0x080082f8:    7070        pp      DCW    28784
        0x080082fa:    00          .       DCB    0
    .L.str
        0x080082fb:    5b          [       DCB    91
        0x080082fc:    3a5d7325    %s]:    DCD    979202853
        0x08008300:    25783020     0x%    DCD    628633632
        0x08008304:    2c583830    08X,    DCD    743979056
    .L.str.3
        0x08008308:    0d642520     %d.    DCD    224666912
        0x0800830c:    000a        ..      DCW    10
    .L.str.3
        0x0800830e:    3025        %0      DCW    12325
        0x08008310:    20207834    4x      DCD    538998836
        0x08008314:    25207325    %s %    DCD    622883621
        0x08008318:    73          s       DCB    115
    .L.str.4
        0x08008319:    0d0a00      ...     DCB    13,10,0
    .L.str.2
        0x0800831c:    78343025    %04x    DCD    2016686117
        0x08008320:    73252020      %s    DCD    1931812896
        0x08008324:    2520         %      DCW    9504
        0x08008326:    73          s       DCB    115
    .L.str.8
        0x08008327:    0a          .       DCB    10
        0x08008328:    00          .       DCB    0
    .L.str.1
        0x08008329:    303132      012     DCB    48,49,50
        0x0800832c:    36353433    3456    DCD    909456435
        0x08008330:    41393837    789A    DCD    1094268983
        0x08008334:    45444342    BCDE    DCD    1162101570
        0x08008338:    0046        F.      DCW    70
    .L__FUNCTION__.hexdump
        0x0800833a:    6568        he      DCW    25960
        0x0800833c:    6d756478    xdum    DCD    1836409976
        0x08008340:    0070        p.      DCW    112
    .L.str
        0x08008342:    5b1b        .[      DCW    23323
        0x08008344:    4031        1@      DCW    16433
        0x08008346:    00          .       DCB    0
    .L.str.5
        0x08008347:    1b          .       DCB    27
        0x08008348:    0043315b    [1C.    DCD    4403547
    .L.str.4
        0x0800834c:    44315b1b    .[1D    DCD    1144085275
        0x08008350:    00          .       DCB    0
    .L.str.2
        0x08008351:    1b5b25      .[%     DCB    27,91,37
        0x08008354:    4464        dD      DCW    17508
        0x08008356:    00          .       DCB    0
    .L.str.3
        0x08008357:    1b          .       DCB    27
        0x08008358:    4b5b        [K      DCW    19291
        0x0800835a:    00          .       DCB    0
    .L.str.1
        0x0800835b:    1b          .       DCB    27
        0x0800835c:    0050315b    [1P.    DCD    5255515
    .L.str.7
    .L.str.14
        0x08008360:    7325        %s      DCW    29477
        0x08008362:    00          .       DCB    0
    .L.str.1
        0x08008363:    20                  DCB    32
        0x08008364:    5f5f5f5f    ____    DCD    1600085855
        0x08008368:    5f20205f    _  _    DCD    1595940959
        0x0800836c:    20202020            DCD    538976288
        0x08008370:    5f20205f    _  _    DCD    1595940959
        0x08008374:    205f5f5f    ___     DCD    543121247
        0x08008378:    5f5f2020      __    DCD    1600069664
        0x0800837c:    5f20205f    _  _    DCD    1595940959
        0x08008380:    2020205f    _       DCD    538976351
        0x08008384:    5f205f5f    __ _    DCD    1595957087
        0x08008388:    0a0d205f    _ ..    DCD    168632415
        0x0800838c:    00          .       DCB    0
    .L.str.16
        0x0800838d:    746869      thi     DCB    116,104,105
        0x08008390:    6f632073    s co    DCD    1868767347
        0x08008394:    6e616d6d    mman    DCD    1851878765
        0x08008398:    73692064    d is    DCD    1936269412
        0x0800839c:    6f6f7420     too    DCD    1869575200
        0x080083a0:    6e6f6c20     lon    DCD    1852795936
        0x080083a4:    0a0d2e67    g...    DCD    168636007
        0x080083a8:    00          .       DCB    0
    .L.str.9
        0x080083a9:    566572      Ver     DCB    86,101,114
        0x080083ac:    6e6f6973    sion    DCD    1852795251
        0x080083b0:    2020203a    :       DCD    538976314
        0x080083b4:    2e312020      1.    DCD    774971424
        0x080083b8:    0d302e30    0.0.    DCD    221261360
        0x080083bc:    000a        ..      DCW    10
    .L.str.10
        0x080083be:    6f43        Co      DCW    28483
        0x080083c0:    69727970    pyri    DCD    1769109872
        0x080083c4:    3a746867    ght:    DCD    980707431
        0x080083c8:    32202020       2    DCD    840966176
        0x080083cc:    20323230    022     DCD    540160560
        0x080083d0:    61746562    beta    DCD    1635018082
        0x080083d4:    0a0d        ..      DCW    2573
        0x080083d6:    00          .       DCB    0
    .L.str.11
        0x080083d7:    25          %       DCB    37
        0x080083d8:    616c6673    sfla    DCD    1634494067
        0x080083dc:    6f636873    shco    DCD    1868785779
        0x080083e0:    73256564    de%s    DCD    1931830628
        0x080083e4:    6f727020     pro    DCD    1869770784
        0x080083e8:    6d617267    gram    DCD    1835102823
        0x080083ec:    0a0d        ..      DCW    2573
        0x080083ee:    00          .       DCB    0
    .L.str.18
        0x080083ef:    6e          n       DCB    110
        0x080083f0:    6f63206f    o co    DCD    1868767343
        0x080083f4:    6e616d6d    mman    DCD    1851878765
        0x080083f8:    616e2064    d na    DCD    1634607204
        0x080083fc:    3a64656d    med:    DCD    979658093
        0x08008400:    0d732520     %s.    DCD    225649952
        0x08008404:    000a        ..      DCW    10
    .L.str.2
        0x08008406:    207c        |       DCW    8316
        0x08008408:    205f5f20     __     DCD    543121184
        0x0800840c:    7c207c5c    \| |    DCD    2082503772
        0x08008410:    207c2020      |     DCD    545005600
        0x08008414:    5f202f7c    |/ _    DCD    1595944828
        0x08008418:    205c205f    _ \     DCD    542908511
        0x0800841c:    205f202f    / _     DCD    543105071
        0x08008420:    205f2f5c    \/_     DCD    543108956
        0x08008424:    202f207c    | /     DCD    539959420
        0x08008428:    205f2f2f    //_     DCD    543108911
        0x0800842c:    000a0d7c    |...    DCD    658812
    .L.str.5
        0x08008430:    207c207c    | |     DCD    545005692
        0x08008434:    7c202020       |    DCD    2082480160
        0x08008438:    20207c20     |      DCD    538999840
        0x0800843c:    207c207c    | |     DCD    545005692
        0x08008440:    7c5f5f7c    |__|    DCD    2086625148
        0x08008444:    28207c20     | (    DCD    673217568
        0x08008448:    7c20295f    _) |    DCD    2082482527
        0x0800844c:    207c207c    | |     DCD    545005692
        0x08008450:    20295f28    (_)     DCD    539582248
        0x08008454:    0d7c207c    | |.    DCD    226238588
        0x08008458:    000a        ..      DCW    10
    .L.str.3
        0x0800845a:    207c        |       DCW    8316
        0x0800845c:    295f5f7c    |__)    DCD    694116220
        0x08008460:    7c207c20     | |    DCD    2082503712
        0x08008464:    207c5f5f    __|     DCD    545021791
        0x08008468:    207c207c    | |     DCD    545005692
        0x0800846c:    7c207c20     | |    DCD    2082503712
        0x08008470:    295f2820     (_)    DCD    694102048
        0x08008474:    207c7c20     ||     DCD    545029152
        0x08008478:    2f202f7c    |/ /    DCD    790638460
        0x0800847c:    207c205f    _ |     DCD    545005663
        0x08008480:    000a0d7c    |...    DCD    658812
    .L.str.4
        0x08008484:    5f20207c    |  _    DCD    1595940988
        0x08008488:    7c2f5f5f    __/|    DCD    2083479391
        0x0800848c:    5f5f2020      __    DCD    1600069664
        0x08008490:    207c2020      |     DCD    545005600
        0x08008494:    7c20207c    |  |    DCD    2082480252
        0x08008498:    203e7c20     |>     DCD    540965920
        0x0800849c:    203c205f    _ <     DCD    540811359
        0x080084a0:    207c207c    | |     DCD    545005692
        0x080084a4:    5c205f27    '_ \    DCD    1545625383
        0x080084a8:    0d7c207c    | |.    DCD    226238588
        0x080084ac:    000a        ..      DCW    10
    .L.str.6
        0x080084ae:    5f7c        |_      DCW    24444
        0x080084b0:    2020207c    |       DCD    538976380
        0x080084b4:    7c5f7c20     |_|    DCD    2086632480
        0x080084b8:    5f7c2020      |_    DCD    1601970208
        0x080084bc:    5f5f5c7c    |\__    DCD    1600085116
        0x080084c0:    202f5f5f    __/     DCD    539975519
        0x080084c4:    5f5f5f5c    \___    DCD    1600085852
        0x080084c8:    5f7c202f    / |_    DCD    1601970223
        0x080084cc:    5f5f5c7c    |\__    DCD    1600085116
        0x080084d0:    5f7c2f5f    _/|_    DCD    1601974111
        0x080084d4:    7c          |       DCB    124
    .L.str.6
        0x080084d5:    0d0a00      ...     DCB    13,10,0
    .L.str.15
        0x080084d8:    6320736c    ls c    DCD    1663071084
        0x080084dc:    646d        md      DCW    25709
        0x080084de:    00          .       DCB    0
    .L.str.8
        0x080084df:    1b          .       DCB    27
        0x080084e0:    3b37335b    [37;    DCD    993473371
        0x080084e4:    75426d31    1mBu    DCD    1967287601
        0x080084e8:    3a646c69    ild:    DCD    979659881
        0x080084ec:    20202020            DCD    538976288
        0x080084f0:    4a202020       J    DCD    1243619360
        0x080084f4:    32206c75    ul 2    DCD    840985717
        0x080084f8:    30322035    5 20    DCD    808591413
        0x080084fc:    30203232    22 0    DCD    807416370
        0x08008500:    33323a30    0:23    DCD    858929712
        0x08008504:    323a        :2      DCW    12858
        0x08008506:    32          2       DCB    50
    .L.str.7
        0x08008507:    0d          .       DCB    13
        0x08008508:    0a          .       DCB    10
    .L.str.3
    .L.str.13
        0x08008509:    1b5b30      .[0     DCB    27,91,48
        0x0800850c:    006d        m.      DCW    109
    .L.str
        0x0800850e:    0a0d        ..      DCW    2573
        0x08008510:    36335b1b    .[36    DCD    909335323
        0x08008514:    006d313b    ;1m.    DCD    7156027
    .L.str.7
        0x08008518:    25207325    %s %    DCD    622883621
        0x0800851c:    2073352d    -5s     DCD    544421165
        0x08008520:    253a7325    %s:%    DCD    624587557
        0x08008524:    3a64        d:      DCW    14948
    .L.str.17
        0x08008526:    0020         .      DCW    32
        0x08008528:    43415254    TRAC    DCD    1128354388
        0x0800852c:    45440045    E.DE    DCD    1162084421
        0x08008530:    00475542    BUG.    DCD    4674882
        0x08008534:    41544146    FATA    DCD    1096040774
        0x08008538:    004c        L.      DCW    76
    .L.str.6
        0x0800853a:    4157        WA      DCW    16727
        0x0800853c:    49004e52    RN.I    DCD    1224756818
        0x08008540:    004f464e    NFO.    DCD    5195342
        0x08008544:    4f525245    ERRO    DCD    1330795077
        0x08008548:    0052        R.      DCW    82
    .L.str.9
        0x0800854a:    4825        %H      DCW    18469
        0x0800854c:    3a4d253a    :%M:    DCD    978134330
        0x08008550:    5325        %S      DCW    21285
        0x08008552:    00          .       DCB    0
    .L.str
        0x08008553:    62          b       DCB    98
        0x08008554:    20657479    yte     DCD    543519865
        0x08008558:    3a766572    rev:    DCD    980837746
        0x0800855c:    25783020     0x%    DCD    628633632
        0x08008560:    0d583230    02X.    DCD    223883824
        0x08008564:    000a        ..      DCW    10
    .L.str.2
        0x08008566:    4553        SE      DCW    17747
        0x08008568:    52454747    GGER    DCD    1380271943
        0x0800856c:    00          .       DCB    0
    .L.str.1
        0x0800856d:    525454      RTT     DCB    82,84,84
        0x08008570:    00          .       DCB    0
    .L.str
        0x08008571:    546572      Ter     DCB    84,101,114
        0x08008574:    616e696d    mina    DCD    1634625901
        0x08008578:    0000006c    l...    DCD    108
    Region$$Table$$Base
        0x0800857c:    08008850    P...    DCD    134252624
        0x08008580:    20000000    ...     DCD    536870912
        0x08008584:    00000168    h...    DCD    360
        0x08008588:    080001d4    ....    DCD    134218196
        0x0800858c:    08008890    ....    DCD    134252688
        0x08008590:    20000168    h..     DCD    536871272
        0x08008594:    000059e0    .Y..    DCD    23008
        0x08008598:    08000210    ....    DCD    134218256
    locale$$data
    Region$$Table$$Limit
        0x0800859c:    00000110    ....    DCD    272
    __lcctype_c_name
        0x080085a0:    00000043    C...    DCD    67
        0x080085a4:    fffffff8    ....    DCD    4294967288
    __lcctype_c_start
        0x080085a8:    00          .       DCB    0
    __ctype
        0x080085a9:    404040      @@@     DCB    64,64,64
        0x080085ac:    40404040    @@@@    DCD    1077952576
        0x080085b0:    41414040    @@AA    DCD    1094795328
        0x080085b4:    40414141    AAA@    DCD    1078018369
        0x080085b8:    40404040    @@@@    DCD    1077952576
        0x080085bc:    40404040    @@@@    DCD    1077952576
        0x080085c0:    40404040    @@@@    DCD    1077952576
        0x080085c4:    40404040    @@@@    DCD    1077952576
        0x080085c8:    02020540    @...    DCD    33686848
        0x080085cc:    02020202    ....    DCD    33686018
        0x080085d0:    02020202    ....    DCD    33686018
        0x080085d4:    02020202    ....    DCD    33686018
        0x080085d8:    20202002    .       DCD    538976258
        0x080085dc:    20202020            DCD    538976288
        0x080085e0:    02202020       .    DCD    35659808
        0x080085e4:    02020202    ....    DCD    33686018
        0x080085e8:    90900202    ....    DCD    2425356802
        0x080085ec:    90909090    ....    DCD    2425393296
        0x080085f0:    10101010    ....    DCD    269488144
        0x080085f4:    10101010    ....    DCD    269488144
        0x080085f8:    10101010    ....    DCD    269488144
        0x080085fc:    10101010    ....    DCD    269488144
        0x08008600:    10101010    ....    DCD    269488144
        0x08008604:    02020202    ....    DCD    33686018
        0x08008608:    88880202    ....    DCD    2290614786
        0x0800860c:    88888888    ....    DCD    2290649224
        0x08008610:    08080808    ....    DCD    134744072
        0x08008614:    08080808    ....    DCD    134744072
        0x08008618:    08080808    ....    DCD    134744072
        0x0800861c:    08080808    ....    DCD    134744072
        0x08008620:    08080808    ....    DCD    134744072
        0x08008624:    02020202    ....    DCD    33686018
        0x08008628:    00000040    @...    DCD    64
        0x0800862c:    00000000    ....    DCD    0
        0x08008630:    00000000    ....    DCD    0
        0x08008634:    00000000    ....    DCD    0
        0x08008638:    00000000    ....    DCD    0
        0x0800863c:    00000000    ....    DCD    0
        0x08008640:    00000000    ....    DCD    0
        0x08008644:    00000000    ....    DCD    0
        0x08008648:    00000000    ....    DCD    0
        0x0800864c:    00000000    ....    DCD    0
        0x08008650:    00000000    ....    DCD    0
        0x08008654:    00000000    ....    DCD    0
        0x08008658:    00000000    ....    DCD    0
        0x0800865c:    00000000    ....    DCD    0
        0x08008660:    00000000    ....    DCD    0
        0x08008664:    00000000    ....    DCD    0
        0x08008668:    00000000    ....    DCD    0
        0x0800866c:    00000000    ....    DCD    0
        0x08008670:    00000000    ....    DCD    0
        0x08008674:    00000000    ....    DCD    0
        0x08008678:    00000000    ....    DCD    0
        0x0800867c:    00000000    ....    DCD    0
        0x08008680:    00000000    ....    DCD    0
        0x08008684:    00000000    ....    DCD    0
        0x08008688:    00000000    ....    DCD    0
        0x0800868c:    00000000    ....    DCD    0
        0x08008690:    00000000    ....    DCD    0
        0x08008694:    00000000    ....    DCD    0
        0x08008698:    00000000    ....    DCD    0
        0x0800869c:    00000000    ....    DCD    0
        0x080086a0:    00000000    ....    DCD    0
        0x080086a4:    00000000    ....    DCD    0
        0x080086a8:    00000000    ....    DCD    0
    __lcctype_c_end
    locale$$data
        0x080086ac:    00000180    ....    DCD    384
    __lctime_c_name
        0x080086b0:    00000043    C...    DCD    67
        0x080086b4:    fffffff8    ....    DCD    4294967288
    __lctime_c_start
        0x080086b8:    00000038    8...    DCD    56
        0x080086bc:    00000054    T...    DCD    84
        0x080086c0:    00000099    ....    DCD    153
        0x080086c4:    000000c9    ....    DCD    201
        0x080086c8:    00000140    @...    DCD    320
        0x080086cc:    00000143    C...    DCD    323
        0x080086d0:    00000146    F...    DCD    326
        0x080086d4:    00000155    U...    DCD    341
        0x080086d8:    0000015e    ^...    DCD    350
        0x080086dc:    00000004    ....    DCD    4
        0x080086e0:    0000000a    ....    DCD    10
        0x080086e4:    00000004    ....    DCD    4
        0x080086e8:    0000000a    ....    DCD    10
        0x080086ec:    00000167    g...    DCD    359
    __lctime_c_week_short
        0x080086f0:    006e7553    Sun.    DCD    7238995
        0x080086f4:    006e6f4d    Mon.    DCD    7237453
        0x080086f8:    00657554    Tue.    DCD    6649172
        0x080086fc:    00646557    Wed.    DCD    6579543
        0x08008700:    00756854    Thu.    DCD    7694420
        0x08008704:    00697246    Fri.    DCD    6910534
        0x08008708:    00746153    Sat.    DCD    7627091
    __lctime_c_week_long
        0x0800870c:    646e7553    Sund    DCD    1684960595
        0x08008710:    00007961    ay..    DCD    31073
        0x08008714:    6f4d0000    ..Mo    DCD    1867317248
        0x08008718:    7961646e    nday    DCD    2036425838
        0x0800871c:    00000000    ....    DCD    0
        0x08008720:    73657554    Tues    DCD    1936029012
        0x08008724:    00796164    day.    DCD    7954788
        0x08008728:    65570000    ..We    DCD    1700200448
        0x0800872c:    73656e64    dnes    DCD    1936027236
        0x08008730:    00796164    day.    DCD    7954788
        0x08008734:    72756854    Thur    DCD    1920297044
        0x08008738:    79616473    sday    DCD    2036425843
        0x0800873c:    72460000    ..Fr    DCD    1917190144
        0x08008740:    79616469    iday    DCD    2036425833
        0x08008744:    00000000    ....    DCD    0
        0x08008748:    75746153    Satu    DCD    1970561363
        0x0800874c:    79616472    rday    DCD    2036425842
        0x08008750:    00          .       DCB    0
    __lctime_c_month_short
        0x08008751:    4a616e      Jan     DCB    74,97,110
        0x08008754:    62654600    .Feb    DCD    1650804224
        0x08008758:    72614d00    .Mar    DCD    1918979328
        0x0800875c:    72704100    .Apr    DCD    1919959296
        0x08008760:    79614d00    .May    DCD    2036419840
        0x08008764:    6e754a00    .Jun    DCD    1853180416
        0x08008768:    6c754a00    .Jul    DCD    1819625984
        0x0800876c:    67754100    .Aug    DCD    1735737600
        0x08008770:    70655300    .Sep    DCD    1885688576
        0x08008774:    74634f00    .Oct    DCD    1952665344
        0x08008778:    766f4e00    .Nov    DCD    1987005952
        0x0800877c:    63654400    .Dec    DCD    1667580928
        0x08008780:    00          .       DCB    0
    __lctime_c_month_long
        0x08008781:    4a616e      Jan     DCB    74,97,110
        0x08008784:    79726175    uary    DCD    2037539189
        0x08008788:    46000000    ...F    DCD    1174405120
        0x0800878c:    75726265    ebru    DCD    1970430565
        0x08008790:    00797261    ary.    DCD    7959137
        0x08008794:    72614d00    .Mar    DCD    1918979328
        0x08008798:    00006863    ch..    DCD    26723
        0x0800879c:    41000000    ...A    DCD    1090519040
        0x080087a0:    6c697270    pril    DCD    1818849904
        0x080087a4:    00000000    ....    DCD    0
        0x080087a8:    79614d00    .May    DCD    2036419840
        0x080087ac:    00000000    ....    DCD    0
        0x080087b0:    4a000000    ...J    DCD    1241513984
        0x080087b4:    00656e75    une.    DCD    6647413
        0x080087b8:    00000000    ....    DCD    0
        0x080087bc:    6c754a00    .Jul    DCD    1819625984
        0x080087c0:    00000079    y...    DCD    121
        0x080087c4:    41000000    ...A    DCD    1090519040
        0x080087c8:    73756775    ugus    DCD    1937074037
        0x080087cc:    00000074    t...    DCD    116
        0x080087d0:    70655300    .Sep    DCD    1885688576
        0x080087d4:    626d6574    temb    DCD    1651336564
        0x080087d8:    4f007265    er.O    DCD    1325429349
        0x080087dc:    626f7463    ctob    DCD    1651471459
        0x080087e0:    00007265    er..    DCD    29285
        0x080087e4:    766f4e00    .Nov    DCD    1987005952
        0x080087e8:    65626d65    embe    DCD    1700949349
        0x080087ec:    44000072    r..D    DCD    1140850802
        0x080087f0:    6d656365    ecem    DCD    1835361125
        0x080087f4:    00726562    ber.    DCD    7497058
    __lctime_c_am
        0x080087f8:    4d41        AM      DCW    19777
        0x080087fa:    00          .       DCB    0
    __lctime_c_pm
        0x080087fb:    50          P       DCB    80
        0x080087fc:    004d        M.      DCW    77
    __lctime_c_datetime
        0x080087fe:    6125        %a      DCW    24869
        0x08008800:    20622520     %b     DCD    543302944
        0x08008804:    25206525    %e %    DCD    622880037
        0x08008808:    59252054    T %Y    DCD    1495605332
        0x0800880c:    00          .       DCB    0
    __lctime_c_date
        0x0800880d:    256d2f      %m/     DCB    37,109,47
        0x08008810:    252f6425    %d/%    DCD    623862821
        0x08008814:    0079        y.      DCW    121
    __lctime_c_time
        0x08008816:    4825        %H      DCW    18469
        0x08008818:    3a4d253a    :%M:    DCD    978134330
        0x0800881c:    5325        %S      DCW    21285
        0x0800881e:    00          .       DCB    0
    __lctime_c_12hrtime
        0x0800881f:    25          %       DCB    37
        0x08008820:    4d253a49    I:%M    DCD    1294285385
        0x08008824:    2053253a    :%S     DCD    542319930
        0x08008828:    00007025    %p..    DCD    28709
    __lctime_c_end
    locale$$data
        0x0800882c:    0000001c    ....    DCD    28
    __lcnum_c_name
        0x08008830:    00000043    C...    DCD    67
        0x08008834:    fffffff8    ....    DCD    4294967288
    __lcnum_c_start
        0x08008838:    0000000c    ....    DCD    12
        0x0800883c:    0000000e    ....    DCD    14
        0x08008840:    0000000f    ....    DCD    15
    __lcnum_c_point
        0x08008844:    002e        ..      DCW    46
    __lcnum_c_thousands
        0x08008846:    00          .       DCB    0
    __lcnum_c_grouping
        0x08008847:    00          .       DCB    0
    __lcnum_c_end
    SHT$$INIT_ARRAY$$Base
        0x08008848:    ffffb025    %...    DCD    4294946853
    .init_array
    SHT$$INIT_ARRAY$$Limit

** Section #2 'RW_IRAM1' (SHT_PROGBITS) [SHF_ALLOC + SHF_WRITE]
    Size   : 64 bytes (alignment 8)
    Address: 0x20000000


** Section #3 'RW_IRAM1' (SHT_NOBITS) [SHF_ALLOC + SHF_WRITE]
    Size   : 23008 bytes (alignment 8)
    Address: 0x20000168


** Section #4 '.debug_abbrev' (SHT_PROGBITS)
    Size   : 12532 bytes


** Section #5 '.debug_frame' (SHT_PROGBITS)
    Size   : 12128 bytes


** Section #6 '.debug_info' (SHT_PROGBITS)
    Size   : 197984 bytes


** Section #7 '.debug_line' (SHT_PROGBITS)
    Size   : 35006 bytes


** Section #8 '.debug_str' (SHT_PROGBITS)
    Size   : 83275 bytes


** Section #9 '.debug_ranges' (SHT_PROGBITS)
    Size   : 2712 bytes


** Section #10 '.symtab' (SHT_SYMTAB)
    Size   : 21408 bytes (alignment 4)
    String table #11 '.strtab'
    Last local symbol no. 793


** Section #11 '.strtab' (SHT_STRTAB)
    Size   : 15628 bytes


** Section #12 '.note' (SHT_NOTE)
    Size   : 28 bytes (alignment 4)


** Section #13 '.comment' (SHT_PROGBITS)
    Size   : 2144 bytes


** Section #14 '.shstrtab' (SHT_STRTAB)
    Size   : 136 bytes


